(lp0
F1.73077
aF0.403846
aF0.192307
aF0.519231
aF3.57692
aF1.11538
aF1.17308
aF2.211543
aF1.8461529999999997
aF1.7500000000000002
aF1.88462
aF0.4807600000000001
aF0.942308
aF1.0192285
aF1.1538469
aF0.461542
aF0.5
aF0.6730800000000001
aF0.5384599999999999
aF3.0
aF1.69231
aF0.403846
aF0.4615389999999999
aF0.846154
a.