(lp0
(lp1
F0.0
aF0.0384615
aF0.153846
aa(lp2
F0.0
aF0.1153845
aF1.0769185000000001
aa(lp3
F0.0
aF0.961534
aF1.0000040000000001
aa(lp4
F0.0
aF0.038470000000000004
aF0.28847
aa(lp5
F0.0
aF0.25
aF0.9807699999999999
aa(lp6
F0.0
aF0.7307699999999999
aF0.7692300000000001
aa(lp7
F0.0
aF0.03846000000000016
aF0.09615000000000018
aa(lp8
F0.0
aF0.05769000000000002
aF0.17307000000000006
aa(lp9
F0.0
aF0.11538000000000004
aF0.15384999999999982
aa(lp10
F0.0
aF0.03846999999999978
aF0.13461999999999996
aa(lp11
F0.0
aF0.09615000000000018
aF0.1538400000000002
aa(lp12
F0.0
aF0.05769000000000002
aF0.09614999999999974
aa(lp13
F0.0
aF0.03845999999999972
aF0.2884599999999997
aa(lp14
F0.0
aF0.0769231
aF0.153846
aa(lp15
F0.0
aF0.557692
aF2.48077
aa(lp16
F0.0
aF1.9230780000000003
aF2.6730780000000003
aa(lp17
F0.0
aF0.75
aF0.7692299999999999
aa(lp18
F0.0
aF0.0384615
aF0.0769231
aa(lp19
F0.0
aF0.03846159999999999
aF0.9038465
aa(lp20
F0.0
aF0.8653849
aF0.9807669
aa(lp21
F0.0
aF0.11538199999999998
aF0.2884619999999999
aa(lp22
F0.0
aF0.1730799999999999
aF0.34616
aa(lp23
F0.0
aF0.17308000000000012
aF0.3269200000000001
aa(lp24
F0.0
aF0.15383999999999998
aF0.5
aa(lp25
F0.0
aF0.34616
aF0.38461999999999996
aa(lp26
F0.0
aF0.365385
aF0.423077
aa(lp27
F0.0
aF0.442308
aF2.21154
aa(lp28
F0.0
aF0.0769231
aF2.38462
aa(lp29
F0.0
aF0.153846
aF0.211538
aa(lp30
F0.0
aF0.05769199999999999
aF0.24999999999999997
aa(lp31
F0.0
aF1.07692
aF1.13462
aa(lp32
F0.0
aF0.05769999999999986
aF0.26922999999999986
aa(lp33
F0.0
aF0.596154
aF0.692308
aa(lp34
F0.0
aF0.288462
aF0.365385
aa(lp35
F0.0
aF0.07692300000000002
aF0.11538399999999999
aa(lp36
F0.0
aF0.0576923
aF2.03846
aa(lp37
F0.0
aF1.9807677000000001
aF2.1923077
aa(lp38
F0.0
aF0.846154
aF1.32692
aa(lp39
F0.0
aF1.13462
aF3.28846
aa(lp40
F0.0
aF2.15384
aF3.1923000000000004
aa(lp41
F0.0
aF0.115385
aF0.230769
aa(lp42
F0.0
aF0.115384
aF0.25
aa(lp43
F0.0
aF0.134616
aF0.653846
aa(lp44
F0.0
aF0.5192300000000001
aF0.6346149999999999
aa(lp45
F0.0
aF0.11538499999999996
aF0.519235
aa(lp46
F0.0
aF0.40385000000000004
aF1.3461500000000002
aa(lp47
F0.0
aF0.9423000000000001
aF1.15384
aa(lp48
F0.0
aF0.21153999999999984
aF0.36538999999999966
aa(lp49
F0.0
aF0.15384999999999982
aF0.21153999999999984
aa(lp50
F0.0
aF0.05769000000000002
aF0.17308000000000012
aa(lp51
F0.0
aF0.1153900000000001
aF0.40385000000000026
aa(lp52
F0.0
aF0.28846000000000016
aF0.5384600000000002
aa(lp53
F0.0
aF0.25
aF0.9615399999999998
aa(lp54
F0.0
aF0.7115399999999998
aF0.7692299999999999
aa(lp55
F0.0
aF0.05769000000000002
aF0.3269200000000003
aa.