(lp0
F0.788462
aF0.403846
aF0.192307
aF3.07692
aF2.480766
aF2.0769200000000003
aF0.9423100000000004
aF0.7500000000000004
aF0.4230800000000001
aF0.980769
aF1.1923030000000001
aF1.25
aF0.846154
aF0.365385
aF0.7692300000000001
aF0.769231
aF1.038465
aF1.461535
aF1.55769
aF1.3076899999999998
aF0.4230799999999997
aF0.32692999999999994
aF0.4615400000000003
aF0.6538500000000003
aF1.25
aF1.0192299999999999
aF1.0384600000000002
aF0.5
aF1.94231
aF1.7884630000000001
aF0.59616
aF0.26922999999999986
aF0.44230999999999976
aF0.3846099999999999
aF0.48077000000000014
aF0.4038400000000002
aF0.5
aF0.46153999999999984
aF0.55769
aF0.4038499999999998
aF0.4038400000000002
aF0.21153999999999984
aF0.19230999999999998
aF0.19230999999999998
aF0.21154000000000028
aF0.17307000000000006
aF0.15384999999999982
aF0.21153999999999984
aF1.46154
aF1.11538
aF1.13462
a.