(lp0
F0.634615
aF0.653846
aF0.307692
aF0.3461537
aF0.9423090000000001
aF1.269228
aF0.211538
aF0.1730769
aF1.21154
aF0.442308
aF0.4615385
aF0.326924
aF0.19230700000000006
aF0.17307700000000004
aF0.519228
aF0.5000049999999999
a.