(lp0
(lp1
F0.0
aF0.365385
aF0.730769
aa(lp2
F0.365385
aF0.730769
aF0.75
aa(lp3
F0.0
aF2.0
aF2.09615
aa(lp4
F2.0
aF2.09615
aF2.25
aa(lp5
F2.09615
aF2.25
aF2.36538
aa(lp6
F0.0
aF0.192308
aF0.538462
aa(lp7
F0.192308
aF0.538462
aF0.711538
aa(lp8
F0.538462
aF0.711538
aF0.903846
aa(lp9
F0.711538
aF0.903846
aF1.32692
aa(lp10
F0.903846
aF1.32692
aF1.40385
aa(lp11
F0.0
aF0.365385
aF0.423077
aa(lp12
F0.365385
aF0.423077
aF0.576923
aa(lp13
F0.0
aF0.0192308
aF0.442308
aa(lp14
F0.0192308
aF0.442308
aF0.538462
aa(lp15
F0.442308
aF0.538462
aF0.75
aa(lp16
F0.0
aF1.59615
aF2.78846
aa(lp17
F0.0
aF0.0384615
aF0.211538
aa(lp18
F0.0384615
aF0.211538
aF0.442308
aa(lp19
F0.211538
aF0.442308
aF0.5
aa(lp20
F0.442308
aF0.5
aF0.538462
aa(lp21
F0.5
aF0.538462
aF0.634615
aa(lp22
F0.538462
aF0.634615
aF0.673077
aa(lp23
F0.634615
aF0.673077
aF1.05769
aa.