(lp0
F0.75
aF1.153845
aF2.25
aF0.36538000000000004
aF0.5192299999999999
aF0.711538
aF0.711538
aF0.7884580000000001
aF0.692312
aF0.6730740000000001
aF0.576923
aF1.211535
aF0.538462
aF0.7307692
aF0.980772
aF3.09615
aF0.442308
aF0.4615385
aF0.326924
aF0.19230700000000006
aF0.17307700000000004
aF0.519228
aF0.5000049999999999
a.