(lp0
(lp1
I11
aI11
aI11
aa(lp2
I11
aI11
aI11
aa(lp3
I11
aI11
aI11
aa(lp4
I11
aI11
aI11
aa(lp5
I11
aI11
aI11
aa(lp6
I11
aI11
aI11
aa(lp7
I11
aI11
aI11
aa(lp8
I11
aI11
aI11
aa(lp9
I11
aI11
aI11
aa(lp10
I11
aI11
aI11
aa(lp11
I11
aI11
aI11
aa(lp12
I11
aI11
aI11
aa(lp13
I11
aI11
aI11
aa(lp14
I8
aI8
aI8
aa(lp15
I0
aI19
aI0
aa(lp16
I19
aI0
aI0
aa(lp17
I0
aI0
aI0
aa(lp18
I0
aI0
aI0
aa(lp19
I0
aI0
aI0
aa(lp20
I0
aI0
aI0
aa(lp21
I0
aI0
aI0
aa(lp22
I0
aI0
aI0
aa(lp23
I0
aI0
aI0
aa(lp24
I0
aI0
aI0
aa(lp25
I0
aI0
aI0
aa(lp26
I0
aI0
aI0
aa(lp27
I14
aI14
aI14
aa(lp28
I0
aI0
aI0
aa(lp29
I0
aI0
aI0
aa(lp30
I0
aI0
aI0
aa(lp31
I11
aI1
aI1
aa(lp32
I1
aI1
aI1
aa(lp33
I0
aI0
aI0
aa(lp34
I0
aI0
aI0
aa(lp35
I0
aI0
aI0
aa(lp36
I0
aI0
aI1
aa(lp37
I0
aI1
aI1
aa(lp38
I0
aI0
aI0
aa(lp39
I0
aI0
aI0
aa(lp40
I0
aI0
aI0
aa(lp41
I20
aI10
aI21
aa(lp42
I10
aI21
aI13
aa(lp43
I21
aI13
aI20
aa(lp44
I13
aI20
aI11
aa(lp45
I20
aI11
aI20
aa(lp46
I11
aI20
aI15
aa(lp47
I20
aI15
aI11
aa(lp48
I15
aI11
aI22
aa(lp49
I11
aI22
aI10
aa(lp50
I22
aI10
aI23
aa(lp51
I10
aI23
aI10
aa(lp52
I23
aI10
aI11
aa(lp53
I10
aI11
aI20
aa(lp54
I11
aI20
aI11
aa(lp55
I20
aI11
aI11
aa.