(lp0
(lp1
I7
aI14
aI7
aa(lp2
I0
aI0
aI0
aa(lp3
I0
aI0
aI0
aa(lp4
I10
aI10
aI1
aa(lp5
I7
aI8
aI8
aa(lp6
I16
aI7
aI7
aa(lp7
I1
aI0
aI0
aa(lp8
I0
aI0
aI0
aa(lp9
I0
aI0
aI0
aa(lp10
I0
aI0
aI0
aa(lp11
I1
aI1
aI1
aa(lp12
I1
aI1
aI1
aa(lp13
I0
aI0
aI0
aa(lp14
I0
aI0
aI0
aa(lp15
I0
aI0
aI0
aa(lp16
I0
aI0
aI0
aa(lp17
I0
aI0
aI0
aa(lp18
I0
aI0
aI0
aa(lp19
I0
aI0
aI0
aa(lp20
I0
aI0
aI0
aa(lp21
I17
aI13
aI13
aa(lp22
I0
aI0
aI0
aa(lp23
I0
aI0
aI0
aa(lp24
I11
aI1
aI1
aa.