(lp0
(lp1
F0.0
aF0.115385
aF0.25
aa(lp2
F0.0
aF2.78846
aF3.42308
aa(lp3
F0.0
aF1.5
aF3.0
aa(lp4
F0.0
aF0.0384615
aF0.461538
aa(lp5
F0.0
aF0.326923
aF0.384615
aa(lp6
F0.0
aF1.42308
aF1.63462
aa(lp7
F0.0
aF0.769231
aF0.980769
aa(lp8
F0.0
aF0.211538
aF0.32691899999999996
aa(lp9
F0.0
aF1.07692
aF1.13462
aa(lp10
F0.0
aF0.05769999999999986
aF0.26922999999999986
aa(lp11
F0.0
aF0.134615
aF0.173077
aa(lp12
F0.0
aF0.038461999999999996
aF0.269231
aa(lp13
F0.0
aF0.346154
aF1.25
aa(lp14
F0.0
aF0.9038459999999999
aF0.961536
aa(lp15
F0.0
aF0.05769000000000002
aF0.5
aa(lp16
F0.0
aF0.44231
aF0.4807699999999999
aa(lp17
F0.0
aF2.07692
aF2.11538
aa(lp18
F0.0
aF0.03846000000000016
aF1.07693
aa(lp19
F0.0
aF1.0384699999999998
aF1.07693
aa(lp20
F0.0
aF0.03846000000000016
aF0.28846000000000016
aa(lp21
F0.0
aF0.846154
aF1.76923
aa(lp22
F0.0
aF0.9230760000000001
aF2.230766
aa(lp23
F0.0
aF1.3076899999999998
aF1.5576899999999998
aa(lp24
F0.0
aF0.25
aF0.7692300000000003
aa(lp25
F0.0
aF0.5192300000000003
aF0.6923100000000004
aa(lp26
F0.0
aF0.17308000000000012
aF0.23077000000000014
aa(lp27
F0.0
aF2.53846
aF2.69231
aa(lp28
F0.0
aF0.15384999999999982
aF0.46153999999999984
aa.