(lp0
(lp1
I1
aI1
aI1
aa(lp2
I1
aI1
aI1
aa(lp3
I0
aI0
aI0
aa(lp4
I0
aI0
aI0
aa(lp5
I0
aI0
aI0
aa(lp6
I14
aI1
aI0
aa(lp7
I1
aI0
aI0
aa(lp8
I0
aI0
aI0
aa(lp9
I0
aI0
aI0
aa(lp10
I0
aI0
aI0
aa(lp11
I0
aI0
aI0
aa(lp12
I0
aI0
aI0
aa(lp13
I60
aI13
aI55
aa(lp14
I13
aI55
aI13
aa(lp15
I55
aI13
aI60
aa(lp16
I8
aI8
aI1
aa(lp17
I19
aI19
aI1
aa(lp18
I19
aI1
aI1
aa(lp19
I1
aI1
aI19
aa(lp20
I1
aI19
aI19
aa(lp21
I19
aI19
aI1
aa(lp22
I19
aI1
aI1
aa(lp23
I1
aI1
aI1
aa.