(lp0
I10
aI1
aI19
aI19
aI1
aI1
aI1
aI19
aI0
aI0
aI0
aI0
aI0
aI0
aI0
aI0
aI0
aI0
aI0
aI0
aI0
aI0
aI0
aI0
aI0
aI0
aI0
aI0
aI0
aI0
aI0
aI0
aI0
aI0
aI0
aI0
aI0
aI0
aI0
aI0
aI0
aI0
aI0
aI3
aI11
aI11
aI11
aI11
aI11
aI11
aI1
aI58
aI2
aI1
aI1
a.