(lp0
(lp1
F0.0
aF0.596154
aF0.692308
aa(lp2
F0.0
aF1.63462
aF1.73077
aa(lp3
F1.63462
aF1.73077
aF1.88462
aa(lp4
F0.0
aF0.961538
aF1.15385
aa(lp5
F0.0
aF0.557692
aF2.48077
aa(lp6
F0.557692
aF2.48077
aF3.23077
aa(lp7
F2.48077
aF3.23077
aF3.25
aa(lp8
F0.0
aF1.38462
aF1.55769
aa(lp9
F0.0
aF0.0961538
aF0.134615
aa(lp10
F0.0961538
aF0.134615
aF0.230769
aa(lp11
F0.134615
aF0.230769
aF0.365385
aa(lp12
F0.230769
aF0.365385
aF0.442308
aa(lp13
F0.365385
aF0.442308
aF0.538462
aa(lp14
F0.442308
aF0.538462
aF0.75
aa(lp15
F0.538462
aF0.75
aF0.788462
aa(lp16
F0.75
aF0.788462
aF1.01923
aa(lp17
F0.788462
aF1.01923
aF1.11538
aa(lp18
F1.01923
aF1.11538
aF1.15385
aa(lp19
F1.11538
aF1.15385
aF1.17308
aa(lp20
F1.15385
aF1.17308
aF1.67308
aa(lp21
F1.17308
aF1.67308
aF1.69231
aa(lp22
F1.67308
aF1.69231
aF1.73077
aa(lp23
F1.69231
aF1.73077
aF2.55769
aa(lp24
F1.73077
aF2.55769
aF2.76923
aa(lp25
F2.55769
aF2.76923
aF3.13462
aa(lp26
F2.76923
aF3.13462
aF3.61538
aa(lp27
F3.13462
aF3.61538
aF4.09615
aa(lp28
F3.61538
aF4.09615
aF4.13462
aa(lp29
F4.09615
aF4.13462
aF4.17308
aa(lp30
F4.13462
aF4.17308
aF4.23077
aa(lp31
F4.17308
aF4.23077
aF4.26923
aa(lp32
F4.23077
aF4.26923
aF4.34615
aa(lp33
F4.26923
aF4.34615
aF4.38462
aa(lp34
F4.34615
aF4.38462
aF4.40385
aa(lp35
F4.38462
aF4.40385
aF4.44231
aa(lp36
F4.40385
aF4.44231
aF4.5
aa(lp37
F4.44231
aF4.5
aF4.55769
aa(lp38
F0.0
aF0.365385
aF0.423077
aa(lp39
F0.365385
aF0.423077
aF0.576923
aa(lp40
F0.0
aF2.0
aF4.05769
aa(lp41
F0.0
aF0.0769231
aF0.153846
aa(lp42
F0.0769231
aF0.153846
aF0.211538
aa(lp43
F0.0
aF0.826923
aF0.942308
aa.