(lp0
I11
aI11
aI11
aI11
aI11
aI11
aI11
aI11
aI11
aI11
aI11
aI11
aI11
aI8
aI0
aI0
aI0
aI0
aI0
aI0
aI0
aI0
aI0
aI0
aI0
aI0
aI14
aI0
aI0
aI0
aI1
aI1
aI0
aI0
aI0
aI1
aI8
aI0
aI0
aI0
aI13
aI20
aI11
aI20
aI15
aI11
aI22
aI10
aI23
aI10
aI11
aI20
aI11
aI11
aI10
a.