(lp0
(lp1
F0.0
aF0.192308
aF0.538462
aa(lp2
F0.0
aF0.288462
aF0.365385
aa(lp3
F0.0
aF0.07692300000000002
aF0.11538399999999999
aa(lp4
F0.0
aF0.326923
aF0.384615
aa(lp5
F0.0
aF0.0769231
aF2.59615
aa(lp6
F0.0
aF0.0576923
aF0.769231
aa(lp7
F0.0
aF0.423077
aF0.923077
aa(lp8
F0.0
aF0.5
aF0.750003
aa(lp9
F0.0
aF0.25000299999999986
aF1.7115429999999998
aa(lp10
F0.0
aF1.46154
aF1.59615
aa(lp11
F0.0
aF1.63462
aF1.73077
aa(lp12
F0.0
aF0.09614999999999996
aF0.25
aa(lp13
F0.0
aF0.0384615
aF0.0769231
aa(lp14
F0.0
aF0.03846159999999999
aF0.9038465
aa(lp15
F0.0
aF0.8653849
aF0.9807669
aa(lp16
F0.0
aF0.11538199999999998
aF0.2884619999999999
aa(lp17
F0.0
aF0.1730799999999999
aF0.34616
aa(lp18
F0.0
aF0.17308000000000012
aF0.3269200000000001
aa(lp19
F0.0
aF0.15383999999999998
aF0.5
aa(lp20
F0.0
aF0.34616
aF0.38461999999999996
aa(lp21
F0.0
aF0.711538
aF1.15385
aa(lp22
F0.0
aF0.153846
aF0.211538
aa(lp23
F0.0
aF0.05769199999999999
aF0.24999999999999997
aa(lp24
F0.0
aF0.115385
aF0.25
aa.