(lp0
(lp1
I0
aI0
aI0
aa(lp2
I1
aI0
aI0
aa(lp3
I0
aI0
aI0
aa(lp4
I0
aI0
aI0
aa(lp5
I0
aI0
aI0
aa(lp6
I0
aI0
aI0
aa(lp7
I8
aI1
aI1
aa(lp8
I1
aI1
aI1
aa(lp9
I13
aI25
aI25
aa(lp10
I25
aI25
aI25
aa(lp11
I25
aI25
aI13
aa(lp12
I25
aI13
aI25
aa(lp13
I8
aI8
aI8
aa(lp14
I0
aI0
aI0
aa(lp15
I0
aI0
aI0
aa(lp16
I0
aI0
aI0
aa(lp17
I0
aI0
aI0
aa(lp18
I0
aI0
aI0
aa(lp19
I0
aI0
aI0
aa(lp20
I0
aI0
aI0
aa(lp21
I0
aI0
aI0
aa(lp22
I0
aI0
aI0
aa(lp23
I60
aI13
aI55
aa(lp24
I13
aI55
aI13
aa(lp25
I55
aI13
aI60
aa(lp26
I8
aI8
aI8
aa(lp27
I0
aI0
aI0
aa(lp28
I1
aI11
aI1
aa(lp29
I32
aI22
aI13
aa(lp30
I0
aI1
aI0
aa(lp31
I1
aI0
aI0
aa(lp32
I0
aI0
aI0
aa(lp33
I14
aI1
aI0
aa(lp34
I1
aI0
aI0
aa(lp35
I0
aI0
aI0
aa(lp36
I0
aI0
aI0
aa(lp37
I0
aI0
aI0
aa(lp38
I1
aI1
aI13
aa(lp39
I2
aI52
aI2
aa(lp40
I1
aI1
aI1
aa(lp41
I1
aI1
aI1
aa(lp42
I14
aI15
aI14
aa(lp43
I11
aI11
aI11
aa(lp44
I11
aI11
aI11
aa(lp45
I11
aI11
aI11
aa(lp46
I11
aI11
aI11
aa(lp47
I11
aI11
aI11
aa(lp48
I11
aI11
aI11
aa(lp49
I11
aI11
aI11
aa(lp50
I11
aI11
aI11
aa(lp51
I11
aI11
aI11
aa(lp52
I11
aI11
aI11
aa(lp53
I11
aI11
aI11
aa(lp54
I11
aI11
aI11
aa(lp55
I11
aI11
aI11
aa(lp56
I7
aI6
aI6
aa(lp57
I0
aI0
aI0
aa(lp58
I0
aI0
aI0
aa(lp59
I0
aI0
aI0
aa(lp60
I0
aI0
aI0
aa(lp61
I0
aI0
aI0
aa(lp62
I0
aI0
aI0
aa(lp63
I0
aI0
aI0
aa(lp64
I0
aI0
aI0
aa(lp65
I0
aI0
aI0
aa(lp66
I0
aI0
aI0
aa(lp67
I0
aI0
aI0
aa(lp68
I0
aI0
aI0
aa(lp69
I0
aI0
aI0
aa(lp70
I0
aI0
aI0
aa(lp71
I0
aI0
aI0
aa(lp72
I30
aI1
aI1
aa(lp73
I1
aI1
aI1
aa(lp74
I1
aI1
aI1
aa(lp75
I0
aI0
aI0
aa(lp76
I0
aI0
aI0
aa(lp77
I0
aI0
aI0
aa(lp78
I1
aI0
aI0
aa(lp79
I0
aI0
aI0
aa(lp80
I0
aI0
aI0
aa(lp81
I0
aI0
aI0
aa(lp82
I1
aI1
aI0
aa(lp83
I1
aI0
aI1
aa(lp84
I8
aI0
aI0
aa(lp85
I7
aI7
aI7
aa(lp86
I2
aI2
aI2
aa(lp87
I1
aI1
aI1
aa(lp88
I1
aI1
aI1
aa(lp89
I17
aI13
aI13
aa(lp90
I13
aI1
aI1
aa(lp91
I7
aI14
aI7
aa(lp92
I1
aI1
aI1
aa(lp93
I1
aI1
aI1
aa(lp94
I8
aI8
aI8
aa(lp95
I0
aI0
aI0
aa(lp96
I8
aI8
aI8
aa(lp97
I8
aI8
aI8
aa(lp98
I1
aI1
aI1
aa(lp99
I1
aI1
aI1
aa(lp100
I1
aI1
aI1
aa(lp101
I1
aI1
aI1
aa(lp102
I10
aI10
aI1
aa(lp103
I0
aI0
aI0
aa(lp104
I0
aI0
aI0
aa(lp105
I0
aI0
aI0
aa(lp106
I0
aI0
aI0
aa(lp107
I1
aI1
aI1
aa(lp108
I0
aI0
aI0
aa(lp109
I0
aI0
aI1
aa(lp110
I0
aI1
aI1
aa(lp111
I1
aI1
aI0
aa(lp112
I1
aI0
aI1
aa(lp113
I0
aI1
aI1
aa(lp114
I1
aI1
aI1
aa(lp115
I1
aI1
aI1
aa(lp116
I1
aI1
aI1
aa(lp117
I1
aI1
aI0
aa(lp118
I1
aI0
aI0
aa(lp119
I0
aI0
aI0
aa(lp120
I0
aI0
aI0
aa(lp121
I0
aI0
aI1
aa(lp122
I0
aI1
aI0
aa(lp123
I1
aI0
aI0
aa(lp124
I0
aI0
aI0
aa(lp125
I0
aI0
aI0
aa(lp126
I0
aI0
aI0
aa(lp127
I1
aI0
aI1
aa(lp128
I0
aI1
aI0
aa(lp129
I1
aI0
aI1
aa(lp130
I0
aI1
aI1
aa(lp131
I1
aI1
aI0
aa(lp132
I1
aI1
aI1
aa(lp133
I6
aI6
aI7
aa(lp134
I11
aI1
aI1
aa(lp135
I1
aI1
aI1
aa(lp136
I13
aI55
aI25
aa(lp137
I55
aI25
aI13
aa(lp138
I6
aI6
aI11
aa(lp139
I6
aI11
aI11
aa(lp140
I10
aI10
aI10
aa(lp141
I10
aI10
aI64
aa(lp142
I10
aI64
aI64
aa(lp143
I19
aI1
aI1
aa(lp144
I1
aI1
aI1
aa(lp145
I0
aI0
aI0
aa(lp146
I0
aI0
aI0
aa(lp147
I0
aI0
aI0
aa(lp148
I8
aI8
aI1
aa(lp149
I0
aI1
aI1
aa(lp150
I27
aI10
aI10
aa(lp151
I0
aI19
aI0
aa(lp152
I19
aI0
aI0
aa(lp153
I0
aI0
aI0
aa(lp154
I0
aI0
aI0
aa(lp155
I15
aI15
aI46
aa(lp156
I0
aI0
aI0
aa(lp157
I0
aI0
aI0
aa(lp158
I0
aI0
aI0
aa(lp159
I0
aI0
aI0
aa(lp160
I0
aI0
aI0
aa(lp161
I0
aI0
aI0
aa(lp162
I0
aI0
aI0
aa(lp163
I0
aI0
aI0
aa(lp164
I0
aI8
aI0
aa(lp165
I8
aI0
aI0
aa(lp166
I0
aI0
aI0
aa(lp167
I0
aI0
aI0
aa(lp168
I0
aI0
aI14
aa(lp169
I14
aI14
aI14
aa(lp170
I0
aI0
aI0
aa(lp171
I8
aI11
aI8
aa(lp172
I19
aI19
aI1
aa(lp173
I19
aI1
aI1
aa(lp174
I1
aI1
aI19
aa(lp175
I1
aI19
aI19
aa(lp176
I19
aI19
aI1
aa(lp177
I19
aI1
aI1
aa(lp178
I1
aI1
aI1
aa(lp179
I0
aI1
aI0
aa(lp180
I0
aI0
aI0
aa(lp181
I0
aI0
aI0
aa(lp182
I0
aI0
aI0
aa(lp183
I8
aI0
aI1
aa(lp184
I13
aI11
aI11
aa(lp185
I11
aI11
aI11
aa(lp186
I7
aI8
aI8
aa(lp187
I0
aI0
aI0
aa(lp188
I8
aI8
aI8
aa(lp189
I8
aI8
aI8
aa(lp190
I44
aI6
aI6
aa(lp191
I0
aI0
aI0
aa(lp192
I0
aI0
aI0
aa(lp193
I0
aI0
aI0
aa(lp194
I0
aI0
aI0
aa(lp195
I0
aI0
aI0
aa(lp196
I0
aI0
aI0
aa(lp197
I0
aI0
aI0
aa(lp198
I0
aI0
aI0
aa(lp199
I0
aI0
aI0
aa(lp200
I0
aI0
aI0
aa(lp201
I0
aI0
aI0
aa(lp202
I0
aI0
aI0
aa(lp203
I0
aI0
aI0
aa(lp204
I0
aI0
aI0
aa(lp205
I0
aI0
aI0
aa(lp206
I0
aI0
aI0
aa(lp207
I0
aI0
aI0
aa(lp208
I0
aI0
aI0
aa(lp209
I0
aI0
aI0
aa(lp210
I0
aI0
aI0
aa(lp211
I0
aI0
aI0
aa(lp212
I0
aI0
aI0
aa(lp213
I0
aI0
aI0
aa(lp214
I0
aI0
aI0
aa(lp215
I0
aI0
aI0
aa(lp216
I0
aI0
aI0
aa(lp217
I0
aI0
aI0
aa(lp218
I0
aI0
aI0
aa(lp219
I0
aI0
aI0
aa(lp220
I0
aI0
aI0
aa(lp221
I0
aI0
aI0
aa(lp222
I0
aI0
aI0
aa(lp223
I0
aI0
aI0
aa(lp224
I0
aI0
aI0
aa(lp225
I0
aI0
aI0
aa(lp226
I0
aI0
aI0
aa(lp227
I0
aI0
aI0
aa(lp228
I1
aI1
aI1
aa(lp229
I1
aI1
aI1
aa(lp230
I1
aI1
aI1
aa(lp231
I1
aI1
aI1
aa(lp232
I1
aI1
aI1
aa(lp233
I1
aI1
aI1
aa(lp234
I0
aI0
aI0
aa(lp235
I0
aI0
aI0
aa(lp236
I0
aI0
aI0
aa(lp237
I40
aI41
aI27
aa(lp238
I14
aI1
aI0
aa(lp239
I14
aI14
aI14
aa(lp240
I0
aI0
aI0
aa(lp241
I11
aI11
aI11
aa(lp242
I2
aI2
aI2
aa(lp243
I18
aI1
aI18
aa(lp244
I0
aI0
aI0
aa(lp245
I0
aI0
aI0
aa(lp246
I18
aI18
aI18
aa(lp247
I0
aI0
aI0
aa(lp248
I0
aI0
aI0
aa(lp249
I14
aI1
aI1
aa(lp250
I1
aI1
aI1
aa(lp251
I1
aI1
aI1
aa(lp252
I1
aI1
aI1
aa(lp253
I1
aI1
aI1
aa(lp254
I1
aI1
aI1
aa.