(lp0
(lp1
F0.0
aF0.153846
aF0.384615
aa(lp2
F0.0
aF0.288462
aF0.365385
aa(lp3
F0.288462
aF0.365385
aF0.403846
aa(lp4
F0.0
aF0.846154
aF1.76923
aa(lp5
F0.846154
aF1.76923
aF3.07692
aa(lp6
F1.76923
aF3.07692
aF3.32692
aa(lp7
F3.07692
aF3.32692
aF3.84615
aa(lp8
F3.32692
aF3.84615
aF4.01923
aa(lp9
F3.84615
aF4.01923
aF4.07692
aa(lp10
F0.0
aF0.173077
aF0.288462
aa(lp11
F0.173077
aF0.288462
aF0.980769
aa(lp12
F0.0
aF0.961538
aF1.15385
aa(lp13
F0.0
aF0.115385
aF0.25
aa(lp14
F0.0
aF0.115385
aF0.230769
aa(lp15
F0.115385
aF0.230769
aF0.365385
aa(lp16
F0.230769
aF0.365385
aF0.884615
aa(lp17
F0.365385
aF0.884615
aF1.0
aa(lp18
F0.884615
aF1.0
aF1.40385
aa(lp19
F1.0
aF1.40385
aF2.34615
aa(lp20
F1.40385
aF2.34615
aF2.55769
aa(lp21
F2.34615
aF2.55769
aF2.71154
aa(lp22
F2.55769
aF2.71154
aF2.76923
aa(lp23
F2.71154
aF2.76923
aF2.88462
aa(lp24
F2.76923
aF2.88462
aF3.17308
aa(lp25
F2.88462
aF3.17308
aF3.42308
aa(lp26
F3.17308
aF3.42308
aF4.13462
aa(lp27
F3.42308
aF4.13462
aF4.19231
aa(lp28
F4.13462
aF4.19231
aF4.46154
aa(lp29
F0.0
aF0.173077
aF1.57692
aa(lp30
F0.173077
aF1.57692
aF1.94231
aa(lp31
F1.57692
aF1.94231
aF1.96154
aa(lp32
F1.94231
aF1.96154
aF2.17308
aa(lp33
F1.96154
aF2.17308
aF2.21154
aa(lp34
F2.17308
aF2.21154
aF2.40385
aa(lp35
F2.21154
aF2.40385
aF2.55769
aa(lp36
F2.40385
aF2.55769
aF2.69231
aa(lp37
F2.55769
aF2.69231
aF2.80769
aa(lp38
F2.69231
aF2.80769
aF3.05769
aa(lp39
F2.80769
aF3.05769
aF3.15385
aa(lp40
F3.05769
aF3.15385
aF3.36538
aa(lp41
F3.15385
aF3.36538
aF3.46154
aa(lp42
F3.36538
aF3.46154
aF3.55769
aa(lp43
F3.46154
aF3.55769
aF3.57692
aa(lp44
F3.55769
aF3.57692
aF3.65385
aa(lp45
F3.57692
aF3.65385
aF3.75
aa(lp46
F3.65385
aF3.75
aF3.78846
aa(lp47
F3.75
aF3.78846
aF3.82692
aa(lp48
F3.78846
aF3.82692
aF3.90385
aa(lp49
F0.0
aF1.19231
aF1.34615
aa(lp50
F0.0
aF0.0576923
aF0.769231
aa(lp51
F0.0
aF0.0576923
aF0.115385
aa.