(lp0
(lp1
F0.0
aF0.0384615
aF0.423077
aa(lp2
F0.0
aF0.0384615
aF0.211538
aa(lp3
F0.0384615
aF0.211538
aF0.442308
aa(lp4
F0.211538
aF0.442308
aF0.5
aa(lp5
F0.442308
aF0.5
aF0.538462
aa(lp6
F0.5
aF0.538462
aF0.634615
aa(lp7
F0.538462
aF0.634615
aF0.673077
aa(lp8
F0.634615
aF0.673077
aF1.05769
aa(lp9
F0.0
aF0.365385
aF0.884615
aa(lp10
F0.365385
aF0.884615
aF0.961538
aa(lp11
F0.0
aF1.13462
aF1.30769
aa(lp12
F1.13462
aF1.30769
aF1.53846
aa(lp13
F0.0
aF0.0961538
aF0.134615
aa(lp14
F0.0961538
aF0.134615
aF0.230769
aa(lp15
F0.134615
aF0.230769
aF0.365385
aa(lp16
F0.230769
aF0.365385
aF0.442308
aa(lp17
F0.365385
aF0.442308
aF0.538462
aa(lp18
F0.442308
aF0.538462
aF0.75
aa(lp19
F0.538462
aF0.75
aF0.788462
aa(lp20
F0.75
aF0.788462
aF1.01923
aa(lp21
F0.788462
aF1.01923
aF1.11538
aa(lp22
F1.01923
aF1.11538
aF1.15385
aa(lp23
F1.11538
aF1.15385
aF1.17308
aa(lp24
F1.15385
aF1.17308
aF1.67308
aa(lp25
F1.17308
aF1.67308
aF1.69231
aa(lp26
F1.67308
aF1.69231
aF1.73077
aa(lp27
F1.69231
aF1.73077
aF2.55769
aa(lp28
F1.73077
aF2.55769
aF2.76923
aa(lp29
F2.55769
aF2.76923
aF3.13462
aa(lp30
F2.76923
aF3.13462
aF3.61538
aa(lp31
F3.13462
aF3.61538
aF4.09615
aa(lp32
F3.61538
aF4.09615
aF4.13462
aa(lp33
F4.09615
aF4.13462
aF4.17308
aa(lp34
F4.13462
aF4.17308
aF4.23077
aa(lp35
F4.17308
aF4.23077
aF4.26923
aa(lp36
F4.23077
aF4.26923
aF4.34615
aa(lp37
F4.26923
aF4.34615
aF4.38462
aa(lp38
F4.34615
aF4.38462
aF4.40385
aa(lp39
F4.38462
aF4.40385
aF4.44231
aa(lp40
F4.40385
aF4.44231
aF4.5
aa(lp41
F4.44231
aF4.5
aF4.55769
aa(lp42
F0.0
aF1.34615
aF1.53846
aa(lp43
F1.34615
aF1.53846
aF2.40385
aa(lp44
F0.0
aF1.32692
aF2.57692
aa(lp45
F0.0
aF0.846154
aF1.76923
aa(lp46
F0.846154
aF1.76923
aF3.07692
aa(lp47
F1.76923
aF3.07692
aF3.32692
aa(lp48
F3.07692
aF3.32692
aF3.84615
aa(lp49
F3.32692
aF3.84615
aF4.01923
aa(lp50
F3.84615
aF4.01923
aF4.07692
aa(lp51
F0.0
aF0.480769
aF0.596154
aa(lp52
F0.0
aF0.403846
aF0.615385
aa(lp53
F0.0
aF0.423077
aF2.19231
aa(lp54
F0.0
aF0.0769231
aF0.153846
aa(lp55
F0.0769231
aF0.153846
aF0.211538
aa.