(lp0
(lp1
F0.0
aF0.0384615
aF0.153846
aa(lp2
F0.0384615
aF0.153846
aF1.11538
aa(lp3
F0.153846
aF1.11538
aF1.15385
aa(lp4
F1.11538
aF1.15385
aF1.40385
aa(lp5
F1.15385
aF1.40385
aF2.13462
aa(lp6
F1.40385
aF2.13462
aF2.17308
aa(lp7
F2.13462
aF2.17308
aF2.23077
aa(lp8
F2.17308
aF2.23077
aF2.34615
aa(lp9
F2.23077
aF2.34615
aF2.38462
aa(lp10
F2.34615
aF2.38462
aF2.48077
aa(lp11
F2.38462
aF2.48077
aF2.53846
aa(lp12
F2.48077
aF2.53846
aF2.57692
aa(lp13
F2.53846
aF2.57692
aF2.82692
aa(lp14
F0.0
aF0.0769231
aF0.153846
aa(lp15
F0.0
aF0.557692
aF2.48077
aa(lp16
F0.557692
aF2.48077
aF3.23077
aa(lp17
F2.48077
aF3.23077
aF3.25
aa(lp18
F0.0
aF0.0384615
aF0.0769231
aa(lp19
F0.0384615
aF0.0769231
aF0.942308
aa(lp20
F0.0769231
aF0.942308
aF1.05769
aa(lp21
F0.942308
aF1.05769
aF1.23077
aa(lp22
F1.05769
aF1.23077
aF1.40385
aa(lp23
F1.23077
aF1.40385
aF1.55769
aa(lp24
F1.40385
aF1.55769
aF1.90385
aa(lp25
F1.55769
aF1.90385
aF1.94231
aa(lp26
F0.0
aF0.365385
aF0.423077
aa(lp27
F0.0
aF0.442308
aF2.21154
aa(lp28
F0.0
aF0.0769231
aF2.38462
aa(lp29
F0.0
aF0.153846
aF0.211538
aa(lp30
F0.153846
aF0.211538
aF0.403846
aa(lp31
F0.0
aF1.07692
aF1.13462
aa(lp32
F1.07692
aF1.13462
aF1.34615
aa(lp33
F0.0
aF0.596154
aF0.692308
aa(lp34
F0.0
aF0.288462
aF0.365385
aa(lp35
F0.288462
aF0.365385
aF0.403846
aa(lp36
F0.0
aF0.0576923
aF2.03846
aa(lp37
F0.0576923
aF2.03846
aF2.25
aa(lp38
F0.0
aF0.846154
aF1.32692
aa(lp39
F0.0
aF1.13462
aF3.28846
aa(lp40
F1.13462
aF3.28846
aF4.32692
aa(lp41
F0.0
aF0.115385
aF0.230769
aa(lp42
F0.115385
aF0.230769
aF0.365385
aa(lp43
F0.230769
aF0.365385
aF0.884615
aa(lp44
F0.365385
aF0.884615
aF1.0
aa(lp45
F0.884615
aF1.0
aF1.40385
aa(lp46
F1.0
aF1.40385
aF2.34615
aa(lp47
F1.40385
aF2.34615
aF2.55769
aa(lp48
F2.34615
aF2.55769
aF2.71154
aa(lp49
F2.55769
aF2.71154
aF2.76923
aa(lp50
F2.71154
aF2.76923
aF2.88462
aa(lp51
F2.76923
aF2.88462
aF3.17308
aa(lp52
F2.88462
aF3.17308
aF3.42308
aa(lp53
F3.17308
aF3.42308
aF4.13462
aa(lp54
F3.42308
aF4.13462
aF4.19231
aa(lp55
F4.13462
aF4.19231
aF4.46154
aa.