(lp0
(lp1
F0.0
aF0.365385
aF0.730769
aa(lp2
F0.0
aF0.365384
aF0.384615
aa(lp3
F0.0
aF2.0
aF2.09615
aa(lp4
F0.0
aF0.09615000000000018
aF0.25
aa(lp5
F0.0
aF0.15384999999999982
aF0.26922999999999986
aa(lp6
F0.0
aF0.192308
aF0.538462
aa(lp7
F0.0
aF0.34615399999999996
aF0.51923
aa(lp8
F0.0
aF0.173076
aF0.36538400000000004
aa(lp9
F0.0
aF0.19230800000000003
aF0.6153820000000001
aa(lp10
F0.0
aF0.42307400000000006
aF0.500004
aa(lp11
F0.0
aF0.365385
aF0.423077
aa(lp12
F0.0
aF0.057691999999999966
aF0.21153799999999995
aa(lp13
F0.0
aF0.0192308
aF0.442308
aa(lp14
F0.0
aF0.4230772
aF0.5192312
aa(lp15
F0.0
aF0.09615400000000002
aF0.307692
aa(lp16
F0.0
aF1.59615
aF2.78846
aa(lp17
F0.0
aF0.0384615
aF0.211538
aa(lp18
F0.0
aF0.1730765
aF0.4038465
aa(lp19
F0.0
aF0.23076999999999998
aF0.288462
aa(lp20
F0.0
aF0.05769200000000002
aF0.09615400000000002
aa(lp21
F0.0
aF0.038461999999999996
aF0.13461500000000004
aa(lp22
F0.0
aF0.09615300000000004
aF0.13461500000000004
aa(lp23
F0.0
aF0.038461999999999996
aF0.423075
aa.