(lp0
(lp1
F0.0
aF0.0961538
aF0.134615
aa(lp2
F0.0961538
aF0.134615
aF0.230769
aa(lp3
F0.134615
aF0.230769
aF0.365385
aa(lp4
F0.230769
aF0.365385
aF0.442308
aa(lp5
F0.365385
aF0.442308
aF0.538462
aa(lp6
F0.442308
aF0.538462
aF0.75
aa(lp7
F0.538462
aF0.75
aF0.788462
aa(lp8
F0.75
aF0.788462
aF1.01923
aa(lp9
F0.788462
aF1.01923
aF1.11538
aa(lp10
F1.01923
aF1.11538
aF1.15385
aa(lp11
F1.11538
aF1.15385
aF1.17308
aa(lp12
F1.15385
aF1.17308
aF1.67308
aa(lp13
F1.17308
aF1.67308
aF1.69231
aa(lp14
F1.67308
aF1.69231
aF1.73077
aa(lp15
F1.69231
aF1.73077
aF2.55769
aa(lp16
F1.73077
aF2.55769
aF2.76923
aa(lp17
F2.55769
aF2.76923
aF3.13462
aa(lp18
F2.76923
aF3.13462
aF3.61538
aa(lp19
F3.13462
aF3.61538
aF4.09615
aa(lp20
F3.61538
aF4.09615
aF4.13462
aa(lp21
F4.09615
aF4.13462
aF4.17308
aa(lp22
F4.13462
aF4.17308
aF4.23077
aa(lp23
F4.17308
aF4.23077
aF4.26923
aa(lp24
F4.23077
aF4.26923
aF4.34615
aa(lp25
F4.26923
aF4.34615
aF4.38462
aa(lp26
F4.34615
aF4.38462
aF4.40385
aa(lp27
F4.38462
aF4.40385
aF4.44231
aa(lp28
F4.40385
aF4.44231
aF4.5
aa(lp29
F4.44231
aF4.5
aF4.55769
aa(lp30
F0.0
aF0.0384615
aF2.34615
aa(lp31
F0.0
aF0.115385
aF0.192308
aa(lp32
F0.115385
aF0.192308
aF1.75
aa(lp33
F0.0
aF0.557692
aF2.48077
aa(lp34
F0.557692
aF2.48077
aF3.23077
aa(lp35
F2.48077
aF3.23077
aF3.25
aa(lp36
F0.0
aF0.346154
aF1.01923
aa(lp37
F0.0
aF0.480769
aF1.76923
aa(lp38
F0.0
aF0.192308
aF0.384615
aa(lp39
F0.192308
aF0.384615
aF0.461538
aa(lp40
F0.384615
aF0.461538
aF0.692308
aa(lp41
F0.461538
aF0.692308
aF1.15385
aa(lp42
F0.692308
aF1.15385
aF1.26923
aa(lp43
F0.0
aF0.0769231
aF0.153846
aa(lp44
F0.0769231
aF0.153846
aF0.192308
aa(lp45
F0.153846
aF0.192308
aF0.230769
aa(lp46
F0.192308
aF0.230769
aF0.25
aa(lp47
F0.230769
aF0.25
aF0.634615
aa(lp48
F0.25
aF0.634615
aF0.711538
aa(lp49
F0.634615
aF0.711538
aF0.75
aa(lp50
F0.711538
aF0.75
aF0.923077
aa(lp51
F0.75
aF0.923077
aF1.01923
aa(lp52
F0.923077
aF1.01923
aF1.19231
aa(lp53
F1.01923
aF1.19231
aF1.34615
aa(lp54
F1.19231
aF1.34615
aF1.75
aa(lp55
F1.34615
aF1.75
aF2.09615
aa(lp56
F1.75
aF2.09615
aF2.30769
aa(lp57
F2.09615
aF2.30769
aF2.44231
aa(lp58
F0.0
aF0.0769231
aF0.173077
aa(lp59
F0.0769231
aF0.173077
aF0.346154
aa(lp60
F0.173077
aF0.346154
aF0.692308
aa(lp61
F0.0
aF0.0961538
aF1.01923
aa.