(lp0
(lp1
F0.0
aF0.0384615
aF0.423077
aa(lp2
F0.0
aF0.0384615
aF0.211538
aa(lp3
F0.0
aF0.1730765
aF0.4038465
aa(lp4
F0.0
aF0.23076999999999998
aF0.288462
aa(lp5
F0.0
aF0.05769200000000002
aF0.09615400000000002
aa(lp6
F0.0
aF0.038461999999999996
aF0.13461500000000004
aa(lp7
F0.0
aF0.09615300000000004
aF0.13461500000000004
aa(lp8
F0.0
aF0.038461999999999996
aF0.423075
aa(lp9
F0.0
aF0.365385
aF0.884615
aa(lp10
F0.0
aF0.5192300000000001
aF0.5961529999999999
aa(lp11
F0.0
aF1.13462
aF1.30769
aa(lp12
F0.0
aF0.17307000000000006
aF0.40384
aa(lp13
F0.0
aF0.0961538
aF0.134615
aa(lp14
F0.0
aF0.038461200000000015
aF0.1346152
aa(lp15
F0.0
aF0.09615399999999999
aF0.23077
aa(lp16
F0.0
aF0.134616
aF0.21153899999999998
aa(lp17
F0.0
aF0.07692299999999996
aF0.17307699999999998
aa(lp18
F0.0
aF0.09615400000000002
aF0.307692
aa(lp19
F0.0
aF0.211538
aF0.25
aa(lp20
F0.0
aF0.038461999999999996
aF0.2692300000000001
aa(lp21
F0.0
aF0.23076800000000008
aF0.32691800000000004
aa(lp22
F0.0
aF0.09614999999999996
aF0.13461999999999996
aa(lp23
F0.0
aF0.038470000000000004
aF0.05769999999999986
aa(lp24
F0.0
aF0.01922999999999986
aF0.5192299999999999
aa(lp25
F0.0
aF0.5
aF0.5192300000000001
aa(lp26
F0.0
aF0.01923000000000008
aF0.05769000000000002
aa(lp27
F0.0
aF0.03845999999999994
aF0.86538
aa(lp28
F0.0
aF0.8269200000000001
aF1.03846
aa(lp29
F0.0
aF0.21153999999999984
aF0.5769299999999999
aa(lp30
F0.0
aF0.3653900000000001
aF0.8461500000000002
aa(lp31
F0.0
aF0.4807600000000001
aF0.9615299999999998
aa(lp32
F0.0
aF0.4807699999999997
aF0.5192399999999999
aa(lp33
F0.0
aF0.038470000000000226
aF0.07692999999999994
aa(lp34
F0.0
aF0.03845999999999972
aF0.09614999999999974
aa(lp35
F0.0
aF0.05769000000000002
aF0.09615000000000062
aa(lp36
F0.0
aF0.038460000000000605
aF0.11538000000000004
aa(lp37
F0.0
aF0.07691999999999943
aF0.11538999999999966
aa(lp38
F0.0
aF0.038470000000000226
aF0.05770000000000053
aa(lp39
F0.0
aF0.019230000000000302
aF0.05769000000000002
aa(lp40
F0.0
aF0.03845999999999972
aF0.09614999999999974
aa(lp41
F0.0
aF0.05769000000000002
aF0.11538000000000004
aa(lp42
F0.0
aF1.34615
aF1.53846
aa(lp43
F0.0
aF0.19230999999999998
aF1.0576999999999999
aa(lp44
F0.0
aF1.32692
aF2.57692
aa(lp45
F0.0
aF0.846154
aF1.76923
aa(lp46
F0.0
aF0.9230760000000001
aF2.230766
aa(lp47
F0.0
aF1.3076899999999998
aF1.5576899999999998
aa(lp48
F0.0
aF0.25
aF0.7692300000000003
aa(lp49
F0.0
aF0.5192300000000003
aF0.6923100000000004
aa(lp50
F0.0
aF0.17308000000000012
aF0.23077000000000014
aa(lp51
F0.0
aF0.480769
aF0.596154
aa(lp52
F0.0
aF0.403846
aF0.615385
aa(lp53
F0.0
aF0.423077
aF2.19231
aa(lp54
F0.0
aF0.0769231
aF0.153846
aa(lp55
F0.0
aF0.07692290000000002
aF0.1346149
aa.