(lp0
(lp1
F0.0
aF0.115385
aF0.25
aa(lp2
F0.0
aF2.78846
aF3.42308
aa(lp3
F0.0
aF1.5
aF3.0
aa(lp4
F0.0
aF0.0384615
aF0.461538
aa(lp5
F0.0
aF0.326923
aF0.384615
aa(lp6
F0.0
aF1.42308
aF1.63462
aa(lp7
F0.0
aF0.769231
aF0.980769
aa(lp8
F0.769231
aF0.980769
aF1.09615
aa(lp9
F0.0
aF1.07692
aF1.13462
aa(lp10
F1.07692
aF1.13462
aF1.34615
aa(lp11
F0.0
aF0.134615
aF0.173077
aa(lp12
F0.134615
aF0.173077
aF0.403846
aa(lp13
F0.0
aF0.346154
aF1.25
aa(lp14
F0.346154
aF1.25
aF1.30769
aa(lp15
F1.25
aF1.30769
aF1.75
aa(lp16
F1.30769
aF1.75
aF1.78846
aa(lp17
F0.0
aF2.07692
aF2.11538
aa(lp18
F2.07692
aF2.11538
aF3.15385
aa(lp19
F2.11538
aF3.15385
aF3.19231
aa(lp20
F3.15385
aF3.19231
aF3.44231
aa(lp21
F0.0
aF0.846154
aF1.76923
aa(lp22
F0.846154
aF1.76923
aF3.07692
aa(lp23
F1.76923
aF3.07692
aF3.32692
aa(lp24
F3.07692
aF3.32692
aF3.84615
aa(lp25
F3.32692
aF3.84615
aF4.01923
aa(lp26
F3.84615
aF4.01923
aF4.07692
aa(lp27
F0.0
aF2.53846
aF2.69231
aa(lp28
F2.53846
aF2.69231
aF3.0
aa.