(lp0
F1.11538
aF1.1153885000000001
aF1.2500040000000001
aF1.01924
aF1.01923
aF0.8269200000000001
aF0.21153000000000022
aF0.21153999999999984
aF0.25
aF0.19230999999999998
aF0.19229999999999992
aF0.34614999999999974
aF1.25
aF0.211538
aF3.23077
aF2.692308
aF0.8269199999999999
aF0.942308
aF1.0192285
aF1.1538469
aF0.461542
aF0.5
aF0.6730800000000001
aF0.5384599999999999
aF3.0
aF0.480769
aF2.42308
aF2.86538
aF0.403846
aF0.4615389999999999
aF1.34615
aF0.30769999999999986
aF2.40385
aF0.403846
aF0.192307
aF2.25
aF5.2499977
aF2.21154
aF4.32692
aF3.4038399999999998
aF0.365385
aF0.7692300000000001
aF0.769231
aF1.038465
aF1.461535
aF1.55769
aF1.3076899999999998
aF0.4230799999999997
aF0.32692999999999994
aF0.4615400000000003
aF0.6538500000000003
aF1.25
aF1.0192299999999999
aF1.0384600000000002
aF0.5
a.