(lp0
F1.40385
aF0.442308
aF0.4615385
aF0.326924
aF0.19230700000000006
aF0.17307700000000004
aF0.519228
aF0.5000049999999999
aF0.961538
aF1.461535
aF1.53846
aF0.42307000000000006
aF0.230769
aF0.2692312
aF0.307693
aF0.307693
aF0.384615
aF0.346154
aF0.4807680000000001
aF0.36538000000000004
aF0.36538800000000005
aF0.15384999999999982
aF0.5576999999999999
aF0.5384599999999999
aF0.55769
aF0.8846100000000001
aF1.0769199999999999
aF1.40385
aF1.05769
aF1.3269199999999999
aF1.0
aF0.5576999999999996
aF0.13461999999999996
aF0.13461000000000034
aF0.17307000000000006
aF0.15385000000000026
aF0.13461999999999996
aF0.09616000000000025
aF0.11538000000000004
aF0.15383999999999975
aF0.13461000000000034
aF2.40385
aF1.34616
aF3.05769
aF3.07692
aF2.480766
aF2.0769200000000003
aF0.9423100000000004
aF0.7500000000000004
aF0.4230800000000001
aF0.615385
aF4.23077
aF2.21154
aF0.211538
aF0.1730769
a.