(lp0
(lp1
F0.0
aF0.0961538
aF0.134615
aa(lp2
F0.0
aF0.038461200000000015
aF0.1346152
aa(lp3
F0.0
aF0.09615399999999999
aF0.23077
aa(lp4
F0.0
aF0.134616
aF0.21153899999999998
aa(lp5
F0.0
aF0.07692299999999996
aF0.17307699999999998
aa(lp6
F0.0
aF0.09615400000000002
aF0.307692
aa(lp7
F0.0
aF0.211538
aF0.25
aa(lp8
F0.0
aF0.038461999999999996
aF0.2692300000000001
aa(lp9
F0.0
aF0.23076800000000008
aF0.32691800000000004
aa(lp10
F0.0
aF0.09614999999999996
aF0.13461999999999996
aa(lp11
F0.0
aF0.038470000000000004
aF0.05769999999999986
aa(lp12
F0.0
aF0.01922999999999986
aF0.5192299999999999
aa(lp13
F0.0
aF0.5
aF0.5192300000000001
aa(lp14
F0.0
aF0.01923000000000008
aF0.05769000000000002
aa(lp15
F0.0
aF0.03845999999999994
aF0.86538
aa(lp16
F0.0
aF0.8269200000000001
aF1.03846
aa(lp17
F0.0
aF0.21153999999999984
aF0.5769299999999999
aa(lp18
F0.0
aF0.3653900000000001
aF0.8461500000000002
aa(lp19
F0.0
aF0.4807600000000001
aF0.9615299999999998
aa(lp20
F0.0
aF0.4807699999999997
aF0.5192399999999999
aa(lp21
F0.0
aF0.038470000000000226
aF0.07692999999999994
aa(lp22
F0.0
aF0.03845999999999972
aF0.09614999999999974
aa(lp23
F0.0
aF0.05769000000000002
aF0.09615000000000062
aa(lp24
F0.0
aF0.038460000000000605
aF0.11538000000000004
aa(lp25
F0.0
aF0.07691999999999943
aF0.11538999999999966
aa(lp26
F0.0
aF0.038470000000000226
aF0.05770000000000053
aa(lp27
F0.0
aF0.019230000000000302
aF0.05769000000000002
aa(lp28
F0.0
aF0.03845999999999972
aF0.09614999999999974
aa(lp29
F0.0
aF0.05769000000000002
aF0.11538000000000004
aa(lp30
F0.0
aF0.0384615
aF2.34615
aa(lp31
F0.0
aF0.115385
aF0.192308
aa(lp32
F0.0
aF0.076923
aF1.634615
aa(lp33
F0.0
aF0.557692
aF2.48077
aa(lp34
F0.0
aF1.9230780000000003
aF2.6730780000000003
aa(lp35
F0.0
aF0.75
aF0.7692299999999999
aa(lp36
F0.0
aF0.346154
aF1.01923
aa(lp37
F0.0
aF0.480769
aF1.76923
aa(lp38
F0.0
aF0.192308
aF0.384615
aa(lp39
F0.0
aF0.19230699999999998
aF0.26922999999999997
aa(lp40
F0.0
aF0.07692300000000002
aF0.30769300000000005
aa(lp41
F0.0
aF0.23077000000000003
aF0.692312
aa(lp42
F0.0
aF0.461542
aF0.576922
aa(lp43
F0.0
aF0.0769231
aF0.153846
aa(lp44
F0.0
aF0.07692290000000002
aF0.11538490000000001
aa(lp45
F0.0
aF0.038461999999999996
aF0.07692299999999999
aa(lp46
F0.0
aF0.038460999999999995
aF0.05769199999999999
aa(lp47
F0.0
aF0.019230999999999998
aF0.40384600000000004
aa(lp48
F0.0
aF0.38461500000000004
aF0.461538
aa(lp49
F0.0
aF0.07692299999999996
aF0.11538499999999996
aa(lp50
F0.0
aF0.038461999999999996
aF0.21153900000000003
aa(lp51
F0.0
aF0.17307700000000004
aF0.2692300000000001
aa(lp52
F0.0
aF0.09615300000000004
aF0.26923299999999994
aa(lp53
F0.0
aF0.1730799999999999
aF0.3269199999999999
aa(lp54
F0.0
aF0.15383999999999998
aF0.55769
aa(lp55
F0.0
aF0.40385000000000004
aF0.7500000000000002
aa(lp56
F0.0
aF0.3461500000000002
aF0.55769
aa(lp57
F0.0
aF0.21153999999999984
aF0.3461599999999998
aa(lp58
F0.0
aF0.0769231
aF0.173077
aa(lp59
F0.0
aF0.09615390000000001
aF0.26923090000000005
aa(lp60
F0.0
aF0.173077
aF0.519231
aa(lp61
F0.0
aF0.0961538
aF1.01923
aa.