(lp0
I0
aI0
aI0
aI11
aI11
aI11
aI11
aI11
aI11
aI8
aI8
aI0
aI1
aI13
aI20
aI11
aI20
aI15
aI11
aI22
aI10
aI23
aI10
aI11
aI20
aI11
aI11
aI10
aI0
aI0
aI0
aI0
aI0
aI0
aI0
aI0
aI0
aI0
aI0
aI0
aI0
aI0
aI0
aI0
aI0
aI0
aI0
aI0
aI1
aI7
aI0
a.