(lp0
F4.57692
aF4.23077
aF1.53846
aF0.42307000000000006
aF1.96154
aF0.673077
aF1.30769
aF3.30769
aF2.36538
aF2.82692
aF0.519231
aF3.65385
aF1.1538400000000002
aF0.788462
aF2.21154
aF3.57692
aF3.230774
aF2.3269200000000003
aF0.230769
aF0.2692312
aF0.307693
aF0.307693
aF0.384615
aF0.346154
aF0.4807680000000001
aF0.36538000000000004
aF0.36538800000000005
aF0.15384999999999982
aF0.5576999999999999
aF0.5384599999999999
aF0.55769
aF0.8846100000000001
aF1.0769199999999999
aF1.40385
aF1.05769
aF1.3269199999999999
aF1.0
aF0.5576999999999996
aF0.13461999999999996
aF0.13461000000000034
aF0.17307000000000006
aF0.15385000000000026
aF0.13461999999999996
aF0.09616000000000025
aF0.11538000000000004
aF0.15383999999999975
aF0.13461000000000034
aF2.59615
aF0.15384999999999982
aF1.44231
aF1.6730769
aF1.250002
aF0.80769
aF0.75
aF0.7884599999999999
aF0.5961500000000002
aF0.5192299999999999
aF0.36538000000000004
aF0.3461599999999998
aF0.4230800000000001
aF0.48077000000000014
aF0.5192299999999999
aF0.55769
aF0.46153999999999984
aF1.0384600000000002
aF1.73077
aF2.38462
aF0.961538
aF1.461535
aF0.711538
aF0.75
aF1.153845
aF0.615385
aF2.26923
aF1.0576999999999999
aF0.7884600000000002
aF2.01923
aF0.346154
aF0.6153849
aF0.730769
aF4.0
aF0.634615
aF3.15385
aF1.11539
aF1.32693
aF1.3076900000000005
aF2.53846
aF2.653851
aF1.1730700000000003
aF3.05769
aF0.538462
aF0.7307692
aF0.980772
aF3.59615
aF0.173077
aF0.2115387
aF1.11538
aF0.576923
aF1.211535
aF2.40385
aF1.34616
aF1.13462
aF3.25
aF0.5
aF0.49999969999999994
aF0.769231
aF0.192308
aF1.25
aF3.48077
aF1.40385
aF0.192308
aF0.28846150000000004
aF0.884615
aF1.0000040000000001
aF0.7115389999999999
aF1.76923
aF3.019233
aF2.32693
aF1.05769
aF0.9230720000000001
aF0.673081
aF0.7115400000000001
aF1.69231
aF3.88462
aF0.711538
aF0.711538
aF0.7884580000000001
aF0.692312
aF0.6730740000000001
aF3.07692
aF2.480766
aF2.0769200000000003
aF0.9423100000000004
aF0.7500000000000004
aF0.4230800000000001
aF2.03846
aF0.8269199999999999
aF1.09615
aF0.44230900000000006
aF0.615385
aF3.09615
aF1.30769
aF1.403846
aF0.5384599999999999
aF1.0192299999999999
aF0.461538
aF0.5
aF0.7692350000000001
aF0.8076920000000001
aF2.2692319999999997
aF2.84615
aF3.0
aF1.4230799999999997
aF0.192308
aF1.73077
aF1.80769
aF2.55769
aF2.7692300000000003
aF2.9038500000000003
aF1.17308
aF2.211543
aF1.8461529999999997
aF1.7500000000000002
aF1.88462
aF1.82692
aF1.46154
aF1.88462
aF0.4807600000000001
aF1.01923
aF1.94231
aF1.7884630000000001
aF0.59616
aF0.26922999999999986
aF0.44230999999999976
aF0.3846099999999999
aF0.48077000000000014
aF0.4038400000000002
aF0.5
aF0.46153999999999984
aF0.55769
aF0.4038499999999998
aF0.4038400000000002
aF0.21153999999999984
aF0.19230999999999998
aF0.19230999999999998
aF0.21154000000000028
aF0.17307000000000006
aF0.15384999999999982
aF0.21153999999999984
aF2.25
aF0.36538000000000004
aF0.5192299999999999
aF1.88462
aF1.80769
aF1.211541
aF0.42307000000000006
aF0.32692999999999994
aF1.25
aF0.403846
aF0.634616
aF1.75
aF1.6730749999999999
aF2.5
aF2.134612
aF4.25
aF3.78846
aF4.98077
aF2.96154
aF1.69231
aF0.846154
aF2.42308
aF0.365385
aF3.538465
aF0.980769
aF1.1923030000000001
aF1.46154
aF3.48077
aF0.961538
aF0.4807739999999999
aF1.55769
aF3.57692
aF0.192308
aF0.1538459
aF0.09615399999999999
aF0.442307
aF0.480769
aF0.5
aF0.288462
aF0.3076920000000001
aF0.44231
aF0.4230729999999999
aF0.7307699999999999
aF0.9038400000000002
aF0.9615400000000001
aF0.69231
aF0.4807699999999997
aF1.09615
aF2.211543
aF1.4615399999999998
aF1.78847
aF0.9615300000000002
aF0.88462
aF0.6730700000000001
aF0.3461599999999998
aF1.13462
aF2.67308
aF2.0192300000000003
aF1.73077
aF0.211538
aF0.173077
aF0.173077
aF1.19231
aF3.076922
a.