(lp0
(lp1
F0.0
aF0.0576923
aF0.519231
aa(lp2
F0.0
aF0.442308
aF0.480769
aa(lp3
F0.0
aF0.0576923
aF0.269231
aa(lp4
F0.0
aF0.2115387
aF0.24999970000000002
aa(lp5
F0.0
aF0.03846100000000002
aF0.13461499999999998
aa(lp6
F0.0
aF0.09615399999999996
aF0.903848
aa(lp7
F0.0
aF0.0769231
aF0.153846
aa(lp8
F0.0
aF0.07692290000000002
aF0.1346149
aa(lp9
F0.0
aF1.11538
aF1.15385
aa(lp10
F0.0
aF0.0384615
aF0.211538
aa(lp11
F0.0
aF0.1730765
aF0.4038465
aa(lp12
F0.0
aF0.23076999999999998
aF0.288462
aa(lp13
F0.0
aF0.05769200000000002
aF0.09615400000000002
aa(lp14
F0.0
aF0.038461999999999996
aF0.13461500000000004
aa(lp15
F0.0
aF0.09615300000000004
aF0.13461500000000004
aa(lp16
F0.0
aF0.038461999999999996
aF0.423075
aa.