(lp0
(lp1
F0.0
aF1.32692
aF1.69231
aa(lp2
F1.32692
aF1.69231
aF2.26923
aa(lp3
F1.69231
aF2.26923
aF2.38462
aa(lp4
F0.0
aF0.0769231
aF0.153846
aa(lp5
F0.0769231
aF0.153846
aF0.211538
aa(lp6
F0.0
aF0.403846
aF1.75
aa(lp7
F0.403846
aF1.75
aF3.57692
aa(lp8
F1.75
aF3.57692
aF3.63462
aa(lp9
F0.0
aF0.480769
aF1.76923
aa(lp10
F0.0
aF1.13462
aF1.30769
aa(lp11
F1.13462
aF1.30769
aF1.53846
aa(lp12
F0.0
aF0.0576923
aF2.03846
aa(lp13
F0.0576923
aF2.03846
aF2.25
aa(lp14
F0.0
aF0.0384615
aF0.461538
aa(lp15
F0.0
aF0.846154
aF1.32692
aa(lp16
F0.0
aF0.153846
aF0.769231
aa(lp17
F0.153846
aF0.769231
aF0.884615
aa(lp18
F0.769231
aF0.884615
aF1.15385
aa(lp19
F0.0
aF0.115385
aF0.25
aa.