(lp0
(lp1
F0.0
aF0.0576923
aF0.519231
aa(lp2
F0.0
aF0.442308
aF0.480769
aa(lp3
F0.0
aF0.0576923
aF0.269231
aa(lp4
F0.0576923
aF0.269231
aF0.307692
aa(lp5
F0.269231
aF0.307692
aF0.403846
aa(lp6
F0.307692
aF0.403846
aF1.21154
aa(lp7
F0.0
aF0.0769231
aF0.153846
aa(lp8
F0.0769231
aF0.153846
aF0.211538
aa(lp9
F0.0
aF1.11538
aF1.15385
aa(lp10
F0.0
aF0.0384615
aF0.211538
aa(lp11
F0.0384615
aF0.211538
aF0.442308
aa(lp12
F0.211538
aF0.442308
aF0.5
aa(lp13
F0.442308
aF0.5
aF0.538462
aa(lp14
F0.5
aF0.538462
aF0.634615
aa(lp15
F0.538462
aF0.634615
aF0.673077
aa(lp16
F0.634615
aF0.673077
aF1.05769
aa.