(lp0
(lp1
F0.0
aF1.32692
aF1.69231
aa(lp2
F0.0
aF0.3653899999999999
aF0.9423099999999998
aa(lp3
F0.0
aF0.5769199999999999
aF0.69231
aa(lp4
F0.0
aF0.0769231
aF0.153846
aa(lp5
F0.0
aF0.07692290000000002
aF0.1346149
aa(lp6
F0.0
aF0.403846
aF1.75
aa(lp7
F0.0
aF1.346154
aF3.1730739999999997
aa(lp8
F0.0
aF1.8269199999999999
aF1.88462
aa(lp9
F0.0
aF0.480769
aF1.76923
aa(lp10
F0.0
aF1.13462
aF1.30769
aa(lp11
F0.0
aF0.17307000000000006
aF0.40384
aa(lp12
F0.0
aF0.0576923
aF2.03846
aa(lp13
F0.0
aF1.9807677000000001
aF2.1923077
aa(lp14
F0.0
aF0.0384615
aF0.461538
aa(lp15
F0.0
aF0.846154
aF1.32692
aa(lp16
F0.0
aF0.153846
aF0.769231
aa(lp17
F0.0
aF0.615385
aF0.730769
aa(lp18
F0.0
aF0.11538400000000004
aF0.38461900000000004
aa(lp19
F0.0
aF0.115385
aF0.25
aa.