(lp0
(lp1
I7
aI6
aI6
aa(lp2
I11
aI11
aI11
aa(lp3
I0
aI0
aI0
aa(lp4
I14
aI14
aI14
aa(lp5
I6
aI6
aI7
aa(lp6
I0
aI0
aI0
aa(lp7
I0
aI0
aI0
aa(lp8
I0
aI0
aI0
aa(lp9
I8
aI8
aI8
aa(lp10
I8
aI8
aI8
aa(lp11
I0
aI0
aI0
aa(lp12
I1
aI0
aI0
aa(lp13
I15
aI15
aI46
aa(lp14
I19
aI1
aI1
aa(lp15
I1
aI1
aI1
aa(lp16
I1
aI0
aI0
aa(lp17
I0
aI0
aI0
aa(lp18
I0
aI0
aI0
aa(lp19
I0
aI0
aI0
aa(lp20
I0
aI0
aI0
aa(lp21
I0
aI0
aI0
aa(lp22
I0
aI0
aI0
aa(lp23
I2
aI52
aI2
aa(lp24
I11
aI11
aI11
aa(lp25
I11
aI11
aI11
aa(lp26
I11
aI11
aI11
aa(lp27
I11
aI11
aI11
aa(lp28
I11
aI11
aI11
aa(lp29
I11
aI11
aI11
aa(lp30
I11
aI11
aI11
aa(lp31
I11
aI11
aI11
aa(lp32
I11
aI11
aI11
aa(lp33
I11
aI11
aI11
aa(lp34
I11
aI11
aI11
aa(lp35
I11
aI11
aI11
aa(lp36
I11
aI11
aI11
aa(lp37
I0
aI0
aI0
aa(lp38
I7
aI8
aI8
aa(lp39
I8
aI8
aI8
aa(lp40
I1
aI1
aI1
aa(lp41
I1
aI1
aI1
aa(lp42
I8
aI0
aI1
aa(lp43
I0
aI0
aI1
aa(lp44
I0
aI1
aI1
aa(lp45
I0
aI0
aI0
aa(lp46
I0
aI0
aI0
aa(lp47
I0
aI0
aI0
aa(lp48
I0
aI0
aI0
aa(lp49
I0
aI0
aI0
aa(lp50
I0
aI0
aI0
aa(lp51
I1
aI1
aI1
aa(lp52
I1
aI1
aI1
aa(lp53
I1
aI1
aI1
aa(lp54
I1
aI1
aI1
aa(lp55
I8
aI1
aI1
aa(lp56
I1
aI1
aI1
aa(lp57
I16
aI7
aI7
aa(lp58
I8
aI8
aI8
aa(lp59
I8
aI8
aI8
aa(lp60
I14
aI15
aI14
aa(lp61
I1
aI1
aI11
aa(lp62
I1
aI11
aI1
aa(lp63
I1
aI1
aI1
aa(lp64
I0
aI0
aI0
aa(lp65
I0
aI0
aI1
aa(lp66
I0
aI1
aI1
aa(lp67
I1
aI1
aI0
aa(lp68
I1
aI0
aI1
aa(lp69
I0
aI1
aI1
aa(lp70
I1
aI1
aI1
aa(lp71
I1
aI1
aI1
aa(lp72
I1
aI1
aI1
aa(lp73
I1
aI1
aI0
aa(lp74
I1
aI0
aI0
aa(lp75
I0
aI0
aI0
aa(lp76
I0
aI0
aI0
aa(lp77
I0
aI0
aI1
aa(lp78
I0
aI1
aI0
aa(lp79
I1
aI0
aI0
aa(lp80
I8
aI8
aI8
aa(lp81
I18
aI1
aI18
aa(lp82
I17
aI13
aI13
aa(lp83
I0
aI0
aI1
aa(lp84
I0
aI0
aI0
aa(lp85
I0
aI0
aI0
aa(lp86
I0
aI0
aI0
aa(lp87
I0
aI0
aI0
aa(lp88
I0
aI0
aI0
aa(lp89
I13
aI25
aI25
aa(lp90
I25
aI25
aI25
aa(lp91
I25
aI25
aI13
aa(lp92
I25
aI13
aI25
aa(lp93
I1
aI1
aI1
aa(lp94
I1
aI1
aI1
aa(lp95
I0
aI8
aI0
aa(lp96
I8
aI0
aI0
aa(lp97
I2
aI2
aI2
aa(lp98
I0
aI0
aI0
aa(lp99
I0
aI0
aI0
aa(lp100
I0
aI0
aI0
aa(lp101
I0
aI0
aI0
aa(lp102
I0
aI0
aI0
aa(lp103
I0
aI0
aI0
aa(lp104
I0
aI0
aI0
aa(lp105
I0
aI0
aI0
aa(lp106
I0
aI0
aI0
aa(lp107
I32
aI22
aI13
aa(lp108
I0
aI0
aI0
aa(lp109
I44
aI6
aI6
aa(lp110
I1
aI11
aI1
aa(lp111
I2
aI2
aI2
aa(lp112
I58
aI11
aI11
aa(lp113
I11
aI11
aI11
aa(lp114
I11
aI11
aI11
aa(lp115
I11
aI11
aI11
aa(lp116
I11
aI11
aI11
aa(lp117
I11
aI11
aI11
aa(lp118
I10
aI0
aI0
aa(lp119
I7
aI14
aI7
aa(lp120
I0
aI1
aI0
aa(lp121
I1
aI0
aI0
aa(lp122
I0
aI0
aI0
aa(lp123
I1
aI1
aI1
aa(lp124
I1
aI1
aI1
aa(lp125
I18
aI18
aI18
aa(lp126
I0
aI0
aI0
aa(lp127
I0
aI0
aI0
aa(lp128
I0
aI0
aI0
aa(lp129
I27
aI10
aI10
aa(lp130
I10
aI10
aI1
aa(lp131
I0
aI0
aI0
aa(lp132
I0
aI0
aI0
aa(lp133
I0
aI0
aI0
aa(lp134
I0
aI0
aI0
aa(lp135
I0
aI0
aI0
aa(lp136
I0
aI0
aI0
aa(lp137
I0
aI0
aI0
aa(lp138
I14
aI1
aI0
aa(lp139
I11
aI1
aI1
aa(lp140
I0
aI0
aI0
aa(lp141
I0
aI0
aI0
aa(lp142
I1
aI1
aI1
aa(lp143
I0
aI1
aI1
aa(lp144
I1
aI1
aI13
aa(lp145
I11
aI1
aI1
aa(lp146
I1
aI1
aI1
aa(lp147
I20
aI10
aI21
aa(lp148
I10
aI21
aI13
aa(lp149
I21
aI13
aI20
aa(lp150
I13
aI20
aI11
aa(lp151
I20
aI11
aI20
aa(lp152
I11
aI20
aI15
aa(lp153
I20
aI15
aI11
aa(lp154
I15
aI11
aI22
aa(lp155
I11
aI22
aI10
aa(lp156
I22
aI10
aI23
aa(lp157
I10
aI23
aI10
aa(lp158
I23
aI10
aI11
aa(lp159
I10
aI11
aI20
aa(lp160
I11
aI20
aI11
aa(lp161
I20
aI11
aI11
aa(lp162
I1
aI1
aI1
aa(lp163
I40
aI41
aI27
aa(lp164
I14
aI14
aI14
aa(lp165
I0
aI0
aI0
aa(lp166
I6
aI6
aI11
aa(lp167
I6
aI11
aI11
aa(lp168
I0
aI0
aI0
aa(lp169
I0
aI0
aI14
aa(lp170
I7
aI7
aI7
aa(lp171
I8
aI11
aI8
aa(lp172
I0
aI0
aI0
aa(lp173
I14
aI1
aI1
aa(lp174
I1
aI1
aI1
aa(lp175
I1
aI1
aI1
aa(lp176
I1
aI1
aI1
aa(lp177
I13
aI11
aI11
aa(lp178
I11
aI11
aI11
aa(lp179
I1
aI0
aI1
aa(lp180
I0
aI1
aI0
aa(lp181
I1
aI0
aI1
aa(lp182
I0
aI1
aI1
aa(lp183
I1
aI1
aI0
aa(lp184
I13
aI55
aI25
aa(lp185
I55
aI25
aI13
aa(lp186
I1
aI1
aI0
aa(lp187
I1
aI0
aI1
aa(lp188
I13
aI1
aI1
aa(lp189
I55
aI20
aI20
aa(lp190
I0
aI0
aI0
aa(lp191
I0
aI0
aI0
aa(lp192
I8
aI0
aI0
aa(lp193
I1
aI1
aI1
aa(lp194
I1
aI1
aI1
aa(lp195
I1
aI1
aI1
aa(lp196
I0
aI0
aI0
aa(lp197
I0
aI0
aI0
aa(lp198
I0
aI0
aI0
aa(lp199
I0
aI0
aI0
aa(lp200
I0
aI0
aI0
aa(lp201
I0
aI0
aI0
aa(lp202
I0
aI0
aI0
aa(lp203
I0
aI0
aI0
aa(lp204
I0
aI0
aI0
aa(lp205
I0
aI0
aI0
aa(lp206
I0
aI0
aI0
aa(lp207
I10
aI10
aI10
aa(lp208
I10
aI10
aI64
aa(lp209
I10
aI64
aI64
aa(lp210
I1
aI1
aI1
aa(lp211
I1
aI1
aI1
aa(lp212
I0
aI0
aI0
aa(lp213
I0
aI0
aI0
aa(lp214
I0
aI0
aI0
aa(lp215
I0
aI0
aI0
aa(lp216
I0
aI0
aI0
aa(lp217
I0
aI0
aI0
aa(lp218
I0
aI0
aI0
aa(lp219
I0
aI0
aI0
aa(lp220
I0
aI0
aI0
aa(lp221
I0
aI0
aI0
aa(lp222
I0
aI0
aI0
aa(lp223
I0
aI0
aI0
aa(lp224
I0
aI0
aI0
aa(lp225
I0
aI0
aI0
aa(lp226
I0
aI0
aI0
aa(lp227
I0
aI0
aI0
aa(lp228
I0
aI0
aI0
aa(lp229
I0
aI0
aI0
aa(lp230
I0
aI0
aI0
aa(lp231
I0
aI0
aI0
aa(lp232
I0
aI0
aI0
aa(lp233
I0
aI0
aI0
aa(lp234
I0
aI0
aI0
aa(lp235
I0
aI0
aI0
aa(lp236
I0
aI0
aI0
aa(lp237
I0
aI0
aI0
aa(lp238
I0
aI0
aI0
aa(lp239
I1
aI8
aI1
aa(lp240
I8
aI1
aI8
aa.