(lp0
F0.230769
aF0.2692312
aF0.307693
aF0.307693
aF0.384615
aF0.346154
aF0.4807680000000001
aF0.36538000000000004
aF0.36538800000000005
aF0.15384999999999982
aF0.5576999999999999
aF0.5384599999999999
aF0.55769
aF0.8846100000000001
aF1.0769199999999999
aF1.40385
aF1.05769
aF1.3269199999999999
aF1.0
aF0.5576999999999996
aF0.13461999999999996
aF0.13461000000000034
aF0.17307000000000006
aF0.15385000000000026
aF0.13461999999999996
aF0.09616000000000025
aF0.11538000000000004
aF0.15383999999999975
aF0.13461000000000034
aF2.36538
aF1.75
aF1.6730749999999999
aF3.23077
aF2.692308
aF0.8269199999999999
aF1.30769
aF1.82692
aF0.461538
aF0.5
aF0.7692350000000001
aF0.8076920000000001
aF2.2692319999999997
aF0.192308
aF0.1538459
aF0.09615399999999999
aF0.442307
aF0.480769
aF0.5
aF0.288462
aF0.3076920000000001
aF0.44231
aF0.4230729999999999
aF0.7307699999999999
aF0.9038400000000002
aF0.9615400000000001
aF0.69231
aF0.4807699999999997
aF0.346154
aF0.6153849
aF0.730769
aF1.96154
a.