(lp0
F2.26923
aF1.0576999999999999
aF0.7884600000000002
aF0.211538
aF0.1730769
aF3.57692
aF3.230774
aF2.3269200000000003
aF1.82692
aF1.53846
aF0.42307000000000006
aF2.25
aF5.2499977
aF0.615385
aF2.21154
aF0.884615
aF1.0000040000000001
aF0.7115389999999999
aF1.01923
a.