(lp0
(lp1
F0.0
aF0.153846
aF0.384615
aa(lp2
F0.0
aF0.288462
aF0.365385
aa(lp3
F0.0
aF0.07692300000000002
aF0.11538399999999999
aa(lp4
F0.0
aF0.846154
aF1.76923
aa(lp5
F0.0
aF0.9230760000000001
aF2.230766
aa(lp6
F0.0
aF1.3076899999999998
aF1.5576899999999998
aa(lp7
F0.0
aF0.25
aF0.7692300000000003
aa(lp8
F0.0
aF0.5192300000000003
aF0.6923100000000004
aa(lp9
F0.0
aF0.17308000000000012
aF0.23077000000000014
aa(lp10
F0.0
aF0.173077
aF0.288462
aa(lp11
F0.0
aF0.11538499999999999
aF0.807692
aa(lp12
F0.0
aF0.961538
aF1.15385
aa(lp13
F0.0
aF0.115385
aF0.25
aa(lp14
F0.0
aF0.115385
aF0.230769
aa(lp15
F0.0
aF0.115384
aF0.25
aa(lp16
F0.0
aF0.134616
aF0.653846
aa(lp17
F0.0
aF0.5192300000000001
aF0.6346149999999999
aa(lp18
F0.0
aF0.11538499999999996
aF0.519235
aa(lp19
F0.0
aF0.40385000000000004
aF1.3461500000000002
aa(lp20
F0.0
aF0.9423000000000001
aF1.15384
aa(lp21
F0.0
aF0.21153999999999984
aF0.36538999999999966
aa(lp22
F0.0
aF0.15384999999999982
aF0.21153999999999984
aa(lp23
F0.0
aF0.05769000000000002
aF0.17308000000000012
aa(lp24
F0.0
aF0.1153900000000001
aF0.40385000000000026
aa(lp25
F0.0
aF0.28846000000000016
aF0.5384600000000002
aa(lp26
F0.0
aF0.25
aF0.9615399999999998
aa(lp27
F0.0
aF0.7115399999999998
aF0.7692299999999999
aa(lp28
F0.0
aF0.05769000000000002
aF0.3269200000000003
aa(lp29
F0.0
aF0.173077
aF1.57692
aa(lp30
F0.0
aF1.4038430000000002
aF1.769233
aa(lp31
F0.0
aF0.3653899999999999
aF0.38461999999999996
aa(lp32
F0.0
aF0.01923000000000008
aF0.23077000000000014
aa(lp33
F0.0
aF0.21154000000000006
aF0.24999999999999978
aa(lp34
F0.0
aF0.03845999999999972
aF0.2307699999999997
aa(lp35
F0.0
aF0.19230999999999998
aF0.3461500000000002
aa(lp36
F0.0
aF0.1538400000000002
aF0.28846000000000016
aa(lp37
F0.0
aF0.13461999999999996
aF0.25
aa(lp38
F0.0
aF0.11538000000000004
aF0.36538000000000004
aa(lp39
F0.0
aF0.25
aF0.3461599999999998
aa(lp40
F0.0
aF0.0961599999999998
aF0.30769
aa(lp41
F0.0
aF0.21153000000000022
aF0.30769
aa(lp42
F0.0
aF0.0961599999999998
aF0.19230999999999998
aa(lp43
F0.0
aF0.09615000000000018
aF0.11538000000000004
aa(lp44
F0.0
aF0.01922999999999986
aF0.0961599999999998
aa(lp45
F0.0
aF0.07692999999999994
aF0.17308000000000012
aa(lp46
F0.0
aF0.09615000000000018
aF0.13461000000000034
aa(lp47
F0.0
aF0.03846000000000016
aF0.07691999999999988
aa(lp48
F0.0
aF0.03845999999999972
aF0.11538999999999966
aa(lp49
F0.0
aF1.19231
aF1.34615
aa(lp50
F0.0
aF0.0576923
aF0.769231
aa(lp51
F0.0
aF0.0576923
aF0.115385
aa.