(lp0
(lp1
I10
aI0
aI0
aa(lp2
I8
aI8
aI8
aa(lp3
I2
aI52
aI2
aa(lp4
I55
aI20
aI20
aa(lp5
I10
aI10
aI1
aa(lp6
I0
aI0
aI0
aa(lp7
I8
aI8
aI8
aa(lp8
I8
aI8
aI8
aa(lp9
I11
aI1
aI1
aa(lp10
I1
aI1
aI1
aa(lp11
I19
aI1
aI1
aa(lp12
I1
aI1
aI1
aa(lp13
I0
aI0
aI0
aa(lp14
I0
aI0
aI0
aa(lp15
I0
aI0
aI0
aa(lp16
I0
aI0
aI0
aa(lp17
I14
aI1
aI1
aa(lp18
I1
aI1
aI1
aa(lp19
I1
aI1
aI1
aa(lp20
I1
aI1
aI1
aa(lp21
I58
aI11
aI11
aa(lp22
I11
aI11
aI11
aa(lp23
I11
aI11
aI11
aa(lp24
I11
aI11
aI11
aa(lp25
I11
aI11
aI11
aa(lp26
I11
aI11
aI11
aa(lp27
I8
aI1
aI1
aa(lp28
I1
aI1
aI1
aa.