(lp0
I1
aI0
aI0
aI0
aI1
aI1
aI1
aI0
aI37
aI1
aI8
aI8
aI8
aI0
aI0
aI0
aI11
aI2
aI7
aI14
aI14
aI13
aI60
aI13
aI11
aI0
aI0
aI0
aI0
aI0
aI1
aI0
aI0
aI0
aI0
aI0
aI0
aI0
aI0
aI0
aI0
aI0
aI0
aI0
aI0
aI0
aI0
aI0
aI0
aI0
aI0
aI1
aI0
aI1
aI0
aI0
aI0
aI13
aI8
aI8
aI0
aI1
aI1
aI8
aI6
aI8
aI8
aI1
aI1
aI0
aI1
aI1
aI1
aI1
aI1
aI0
aI0
aI0
aI0
aI1
aI0
aI0
aI0
aI11
aI11
aI1
aI1
aI1
aI11
aI0
aI0
aI0
aI1
aI1
aI1
aI1
aI0
aI0
aI0
aI0
aI0
aI0
aI0
aI0
aI0
aI0
aI0
aI0
aI0
aI11
aI11
aI0
aI1
aI18
aI0
aI0
aI0
aI0
aI0
aI0
aI0
aI0
aI0
aI0
aI0
aI0
aI0
aI1
aI14
aI6
aI0
aI0
aI0
aI0
aI14
aI0
aI1
aI1
aI1
aI0
aI11
aI11
aI11
aI11
aI11
aI11
aI11
aI11
aI11
aI11
aI11
aI11
aI11
aI0
aI0
aI0
aI0
aI1
aI1
aI0
aI27
aI1
aI1
aI1
aI1
aI0
aI0
aI0
aI0
aI0
aI0
aI64
aI64
aI10
aI25
aI13
aI25
aI25
aI0
aI1
aI1
aI1
aI0
aI13
aI13
aI0
aI0
aI0
aI0
aI1
aI1
aI0
aI1
aI0
aI0
aI0
aI0
aI0
aI0
aI0
aI0
aI0
aI0
aI0
aI0
aI0
aI0
aI0
aI0
aI1
aI1
aI0
aI1
aI1
aI0
aI10
aI0
aI0
aI0
aI32
aI20
aI13
aI20
aI11
aI20
aI15
aI11
aI22
aI10
aI23
aI10
aI11
aI20
aI11
aI11
aI10
aI8
aI1
aI1
aI0
aI0
aI0
aI0
aI0
aI0
a.