(lp0
F1.01923
aF3.48077
aF3.25
aF0.615385
aF0.519231
aF1.88462
aF1.09615
aF0.44230900000000006
aF1.34615
aF0.30769999999999986
aF0.403846
aF0.634616
aF1.30769
aF1.403846
aF0.5384599999999999
aF1.0192299999999999
aF3.15385
aF1.11539
aF1.32693
aF1.3076900000000005
aF3.07692
aF2.480766
aF2.0769200000000003
aF0.9423100000000004
aF0.7500000000000004
aF0.4230800000000001
aF3.0
aF1.4230799999999997
a.