(lp0
(lp1
F0.0
aF0.596154
aF0.692308
aa(lp2
F0.0
aF1.63462
aF1.73077
aa(lp3
F0.0
aF0.09614999999999996
aF0.25
aa(lp4
F0.0
aF0.961538
aF1.15385
aa(lp5
F0.0
aF0.557692
aF2.48077
aa(lp6
F0.0
aF1.9230780000000003
aF2.6730780000000003
aa(lp7
F0.0
aF0.75
aF0.7692299999999999
aa(lp8
F0.0
aF1.38462
aF1.55769
aa(lp9
F0.0
aF0.0961538
aF0.134615
aa(lp10
F0.0
aF0.038461200000000015
aF0.1346152
aa(lp11
F0.0
aF0.09615399999999999
aF0.23077
aa(lp12
F0.0
aF0.134616
aF0.21153899999999998
aa(lp13
F0.0
aF0.07692299999999996
aF0.17307699999999998
aa(lp14
F0.0
aF0.09615400000000002
aF0.307692
aa(lp15
F0.0
aF0.211538
aF0.25
aa(lp16
F0.0
aF0.038461999999999996
aF0.2692300000000001
aa(lp17
F0.0
aF0.23076800000000008
aF0.32691800000000004
aa(lp18
F0.0
aF0.09614999999999996
aF0.13461999999999996
aa(lp19
F0.0
aF0.038470000000000004
aF0.05769999999999986
aa(lp20
F0.0
aF0.01922999999999986
aF0.5192299999999999
aa(lp21
F0.0
aF0.5
aF0.5192300000000001
aa(lp22
F0.0
aF0.01923000000000008
aF0.05769000000000002
aa(lp23
F0.0
aF0.03845999999999994
aF0.86538
aa(lp24
F0.0
aF0.8269200000000001
aF1.03846
aa(lp25
F0.0
aF0.21153999999999984
aF0.5769299999999999
aa(lp26
F0.0
aF0.3653900000000001
aF0.8461500000000002
aa(lp27
F0.0
aF0.4807600000000001
aF0.9615299999999998
aa(lp28
F0.0
aF0.4807699999999997
aF0.5192399999999999
aa(lp29
F0.0
aF0.038470000000000226
aF0.07692999999999994
aa(lp30
F0.0
aF0.03845999999999972
aF0.09614999999999974
aa(lp31
F0.0
aF0.05769000000000002
aF0.09615000000000062
aa(lp32
F0.0
aF0.038460000000000605
aF0.11538000000000004
aa(lp33
F0.0
aF0.07691999999999943
aF0.11538999999999966
aa(lp34
F0.0
aF0.038470000000000226
aF0.05770000000000053
aa(lp35
F0.0
aF0.019230000000000302
aF0.05769000000000002
aa(lp36
F0.0
aF0.03845999999999972
aF0.09614999999999974
aa(lp37
F0.0
aF0.05769000000000002
aF0.11538000000000004
aa(lp38
F0.0
aF0.365385
aF0.423077
aa(lp39
F0.0
aF0.057691999999999966
aF0.21153799999999995
aa(lp40
F0.0
aF2.0
aF4.05769
aa(lp41
F0.0
aF0.0769231
aF0.153846
aa(lp42
F0.0
aF0.07692290000000002
aF0.1346149
aa(lp43
F0.0
aF0.826923
aF0.942308
aa.