(lp0
F2.40385
aF1.88462
aF0.4807600000000001
aF1.25
aF3.23077
aF2.692308
aF0.8269199999999999
aF4.57692
aF0.230769
aF0.2692312
aF0.307693
aF0.307693
aF0.384615
aF0.346154
aF0.4807680000000001
aF0.36538000000000004
aF0.36538800000000005
aF0.15384999999999982
aF0.5576999999999999
aF0.5384599999999999
aF0.55769
aF0.8846100000000001
aF1.0769199999999999
aF1.40385
aF1.05769
aF1.3269199999999999
aF1.0
aF0.5576999999999996
aF0.13461999999999996
aF0.13461000000000034
aF0.17307000000000006
aF0.15385000000000026
aF0.13461999999999996
aF0.09616000000000025
aF0.11538000000000004
aF0.15383999999999975
aF0.13461000000000034
aF0.576923
aF1.211535
aF4.25
aF0.211538
aF0.1730769
aF1.69231
a.