(lp0
(lp1
F0.0
aF1.38462
aF1.55769
aa(lp2
F0.0
aF0.403846
aF0.615385
aa(lp3
F0.0
aF1.13462
aF1.30769
aa(lp4
F1.13462
aF1.30769
aF1.53846
aa(lp5
F0.0
aF0.0961538
aF1.01923
aa(lp6
F0.0
aF0.403846
aF0.519231
aa(lp7
F0.0
aF0.346154
aF1.01923
aa(lp8
F0.0
aF3.21154
aF3.26923
aa(lp9
F0.0
aF0.0384615
aF2.34615
aa(lp10
F0.0
aF0.0576923
aF2.71154
aa(lp11
F0.0
aF0.326923
aF0.384615
aa(lp12
F0.0
aF2.69231
aF3.32692
aa(lp13
F2.69231
aF3.32692
aF3.65385
aa(lp14
F0.0
aF0.153846
aF0.384615
aa(lp15
F0.0
aF0.423077
aF2.19231
aa(lp16
F0.0
aF0.403846
aF1.75
aa(lp17
F0.403846
aF1.75
aF3.57692
aa(lp18
F1.75
aF3.57692
aF3.63462
aa(lp19
F0.0
aF0.0961538
aF0.134615
aa(lp20
F0.0961538
aF0.134615
aF0.230769
aa(lp21
F0.134615
aF0.230769
aF0.365385
aa(lp22
F0.230769
aF0.365385
aF0.442308
aa(lp23
F0.365385
aF0.442308
aF0.538462
aa(lp24
F0.442308
aF0.538462
aF0.75
aa(lp25
F0.538462
aF0.75
aF0.788462
aa(lp26
F0.75
aF0.788462
aF1.01923
aa(lp27
F0.788462
aF1.01923
aF1.11538
aa(lp28
F1.01923
aF1.11538
aF1.15385
aa(lp29
F1.11538
aF1.15385
aF1.17308
aa(lp30
F1.15385
aF1.17308
aF1.67308
aa(lp31
F1.17308
aF1.67308
aF1.69231
aa(lp32
F1.67308
aF1.69231
aF1.73077
aa(lp33
F1.69231
aF1.73077
aF2.55769
aa(lp34
F1.73077
aF2.55769
aF2.76923
aa(lp35
F2.55769
aF2.76923
aF3.13462
aa(lp36
F2.76923
aF3.13462
aF3.61538
aa(lp37
F3.13462
aF3.61538
aF4.09615
aa(lp38
F3.61538
aF4.09615
aF4.13462
aa(lp39
F4.09615
aF4.13462
aF4.17308
aa(lp40
F4.13462
aF4.17308
aF4.23077
aa(lp41
F4.17308
aF4.23077
aF4.26923
aa(lp42
F4.23077
aF4.26923
aF4.34615
aa(lp43
F4.26923
aF4.34615
aF4.38462
aa(lp44
F4.34615
aF4.38462
aF4.40385
aa(lp45
F4.38462
aF4.40385
aF4.44231
aa(lp46
F4.40385
aF4.44231
aF4.5
aa(lp47
F4.44231
aF4.5
aF4.55769
aa(lp48
F0.0
aF2.5
aF2.55769
aa(lp49
F2.5
aF2.55769
aF2.59615
aa(lp50
F0.0
aF0.0769231
aF0.711538
aa(lp51
F0.0769231
aF0.711538
aF1.44231
aa(lp52
F0.711538
aF1.44231
aF1.75
aa(lp53
F1.44231
aF1.75
aF1.96154
aa(lp54
F1.75
aF1.96154
aF2.25
aa(lp55
F1.96154
aF2.25
aF2.5
aa(lp56
F2.25
aF2.5
aF2.75
aa(lp57
F2.5
aF2.75
aF2.84615
aa(lp58
F2.75
aF2.84615
aF3.01923
aa(lp59
F2.84615
aF3.01923
aF3.11538
aa(lp60
F3.01923
aF3.11538
aF3.19231
aa(lp61
F3.11538
aF3.19231
aF3.44231
aa(lp62
F3.19231
aF3.44231
aF3.59615
aa(lp63
F3.44231
aF3.59615
aF3.71154
aa(lp64
F3.59615
aF3.71154
aF4.0
aa(lp65
F3.71154
aF4.0
aF4.05769
aa(lp66
F0.0
aF0.211538
aF1.40385
aa(lp67
F0.0
aF0.115385
aF2.25
aa(lp68
F0.0
aF0.365385
aF0.884615
aa(lp69
F0.365385
aF0.884615
aF0.961538
aa(lp70
F0.0
aF0.0961538
aF0.192308
aa(lp71
F0.0
aF0.365385
aF0.730769
aa(lp72
F0.365385
aF0.730769
aF0.75
aa(lp73
F0.0
aF0.0384615
aF0.461538
aa(lp74
F0.0
aF1.32692
aF1.69231
aa(lp75
F1.32692
aF1.69231
aF2.26923
aa(lp76
F1.69231
aF2.26923
aF2.38462
aa(lp77
F0.0
aF1.86538
aF1.90385
aa(lp78
F0.0
aF0.0769231
aF0.173077
aa(lp79
F0.0769231
aF0.173077
aF0.346154
aa(lp80
F0.173077
aF0.346154
aF0.692308
aa(lp81
F0.0
aF3.78846
aF3.80769
aa(lp82
F0.0
aF0.0192308
aF0.0384615
aa(lp83
F0.0
aF2.07692
aF2.11538
aa(lp84
F2.07692
aF2.11538
aF3.15385
aa(lp85
F2.11538
aF3.15385
aF3.19231
aa(lp86
F3.15385
aF3.19231
aF3.44231
aa(lp87
F0.0
aF0.230769
aF1.92308
aa(lp88
F0.230769
aF1.92308
aF2.53846
aa(lp89
F1.92308
aF2.53846
aF2.88462
aa(lp90
F0.0
aF1.32692
aF2.57692
aa(lp91
F0.0
aF0.0192308
aF0.442308
aa(lp92
F0.0192308
aF0.442308
aF0.538462
aa(lp93
F0.442308
aF0.538462
aF0.75
aa(lp94
F0.0
aF0.230769
aF2.40385
aa(lp95
F0.0
aF0.0576923
aF0.153846
aa(lp96
F0.0576923
aF0.153846
aF0.173077
aa(lp97
F0.0
aF0.0576923
aF0.769231
aa(lp98
F0.0
aF0.365385
aF0.423077
aa(lp99
F0.365385
aF0.423077
aF0.576923
aa(lp100
F0.0
aF1.34615
aF1.53846
aa(lp101
F1.34615
aF1.53846
aF2.40385
aa(lp102
F0.0
aF0.846154
aF0.865385
aa(lp103
F0.0
aF1.5
aF3.0
aa(lp104
F0.0
aF0.0576923
aF0.384615
aa(lp105
F0.0576923
aF0.384615
aF0.5
aa(lp106
F0.0
aF0.0384615
aF0.557692
aa(lp107
F0.0
aF0.115385
aF0.173077
aa(lp108
F0.0
aF0.961538
aF1.15385
aa(lp109
F0.0
aF0.173077
aF1.46154
aa(lp110
F0.0
aF0.0384615
aF0.423077
aa(lp111
F0.0
aF0.0384615
aF0.115385
aa(lp112
F0.0384615
aF0.115385
aF0.192308
aa(lp113
F0.0
aF0.153846
aF0.769231
aa(lp114
F0.153846
aF0.769231
aF0.884615
aa(lp115
F0.769231
aF0.884615
aF1.15385
aa(lp116
F0.0
aF0.173077
aF1.55769
aa(lp117
F0.173077
aF1.55769
aF1.76923
aa(lp118
F1.55769
aF1.76923
aF3.19231
aa(lp119
F0.0
aF0.442308
aF0.730769
aa(lp120
F0.442308
aF0.730769
aF1.05769
aa(lp121
F0.730769
aF1.05769
aF1.36538
aa(lp122
F1.05769
aF1.36538
aF1.40385
aa(lp123
F0.0
aF0.826923
aF0.942308
aa(lp124
F0.0
aF0.980769
aF1.01923
aa(lp125
F0.0
aF0.192308
aF0.538462
aa(lp126
F0.192308
aF0.538462
aF0.711538
aa(lp127
F0.538462
aF0.711538
aF0.903846
aa(lp128
F0.711538
aF0.903846
aF1.32692
aa(lp129
F0.903846
aF1.32692
aF1.40385
aa(lp130
F0.0
aF0.846154
aF1.76923
aa(lp131
F0.846154
aF1.76923
aF3.07692
aa(lp132
F1.76923
aF3.07692
aF3.32692
aa(lp133
F3.07692
aF3.32692
aF3.84615
aa(lp134
F3.32692
aF3.84615
aF4.01923
aa(lp135
F3.84615
aF4.01923
aF4.07692
aa(lp136
F0.0
aF1.5
aF1.96154
aa(lp137
F1.5
aF1.96154
aF2.03846
aa(lp138
F0.0
aF0.769231
aF0.980769
aa(lp139
F0.769231
aF0.980769
aF1.09615
aa(lp140
F0.0
aF0.480769
aF0.596154
aa(lp141
F0.0
aF1.59615
aF2.78846
aa(lp142
F0.0
aF0.346154
aF1.25
aa(lp143
F0.346154
aF1.25
aF1.30769
aa(lp144
F1.25
aF1.30769
aF1.75
aa(lp145
F1.30769
aF1.75
aF1.78846
aa(lp146
F0.0
aF0.192308
aF0.384615
aa(lp147
F0.192308
aF0.384615
aF0.461538
aa(lp148
F0.384615
aF0.461538
aF0.692308
aa(lp149
F0.461538
aF0.692308
aF1.15385
aa(lp150
F0.692308
aF1.15385
aF1.26923
aa(lp151
F0.0
aF2.32692
aF2.48077
aa(lp152
F0.0
aF2.53846
aF2.69231
aa(lp153
F2.53846
aF2.69231
aF3.0
aa(lp154
F0.0
aF0.0961538
aF0.134615
aa(lp155
F0.0
aF0.192308
aF0.538462
aa(lp156
F0.0
aF1.46154
aF1.53846
aa(lp157
F1.46154
aF1.53846
aF1.80769
aa(lp158
F1.53846
aF1.80769
aF4.01923
aa(lp159
F1.80769
aF4.01923
aF4.30769
aa(lp160
F0.0
aF0.423077
aF0.923077
aa(lp161
F0.423077
aF0.923077
aF1.17308
aa(lp162
F0.923077
aF1.17308
aF2.63462
aa(lp163
F1.17308
aF2.63462
aF2.76923
aa(lp164
F0.0
aF1.42308
aF1.63462
aa(lp165
F0.0
aF0.480769
aF1.76923
aa(lp166
F0.0
aF0.0576923
aF0.173077
aa(lp167
F0.0
aF1.63462
aF1.73077
aa(lp168
F1.63462
aF1.73077
aF1.88462
aa(lp169
F0.0
aF0.115385
aF0.25
aa(lp170
F0.0
aF0.173077
aF1.57692
aa(lp171
F0.173077
aF1.57692
aF1.94231
aa(lp172
F1.57692
aF1.94231
aF1.96154
aa(lp173
F1.94231
aF1.96154
aF2.17308
aa(lp174
F1.96154
aF2.17308
aF2.21154
aa(lp175
F2.17308
aF2.21154
aF2.40385
aa(lp176
F2.21154
aF2.40385
aF2.55769
aa(lp177
F2.40385
aF2.55769
aF2.69231
aa(lp178
F2.55769
aF2.69231
aF2.80769
aa(lp179
F2.69231
aF2.80769
aF3.05769
aa(lp180
F2.80769
aF3.05769
aF3.15385
aa(lp181
F3.05769
aF3.15385
aF3.36538
aa(lp182
F3.15385
aF3.36538
aF3.46154
aa(lp183
F3.36538
aF3.46154
aF3.55769
aa(lp184
F3.46154
aF3.55769
aF3.57692
aa(lp185
F3.55769
aF3.57692
aF3.65385
aa(lp186
F3.57692
aF3.65385
aF3.75
aa(lp187
F3.65385
aF3.75
aF3.78846
aa(lp188
F3.75
aF3.78846
aF3.82692
aa(lp189
F3.78846
aF3.82692
aF3.90385
aa(lp190
F0.0
aF2.0
aF2.09615
aa(lp191
F2.0
aF2.09615
aF2.25
aa(lp192
F2.09615
aF2.25
aF2.36538
aa(lp193
F0.0
aF0.5
aF1.78846
aa(lp194
F0.0
aF0.730769
aF1.63462
aa(lp195
F0.730769
aF1.63462
aF1.80769
aa(lp196
F1.63462
aF1.80769
aF1.94231
aa(lp197
F1.80769
aF1.94231
aF2.05769
aa(lp198
F1.94231
aF2.05769
aF2.13462
aa(lp199
F0.0
aF0.134615
aF0.173077
aa(lp200
F0.134615
aF0.173077
aF0.403846
aa(lp201
F0.0
aF0.115385
aF0.192308
aa(lp202
F0.115385
aF0.192308
aF1.75
aa(lp203
F0.0
aF0.461538
aF2.03846
aa(lp204
F0.461538
aF2.03846
aF2.5
aa(lp205
F0.0
aF2.0
aF4.05769
aa(lp206
F0.0
aF0.788462
aF1.01923
aa(lp207
F0.0
aF2.13462
aF3.86538
aa(lp208
F0.0
aF0.5
aF2.21154
aa(lp209
F0.0
aF0.711538
aF1.15385
aa(lp210
F0.0
aF0.115385
aF0.25
aa(lp211
F0.0
aF0.307692
aF1.11538
aa(lp212
F0.0
aF0.115385
aF0.230769
aa(lp213
F0.115385
aF0.230769
aF0.365385
aa(lp214
F0.0
aF0.173077
aF0.288462
aa(lp215
F0.173077
aF0.288462
aF0.980769
aa(lp216
F0.0
aF1.19231
aF1.34615
aa(lp217
F0.0
aF2.78846
aF3.42308
aa(lp218
F0.0
aF0.653846
aF0.75
aa(lp219
F0.653846
aF0.75
aF0.961538
aa(lp220
F0.0
aF0.211538
aF1.40385
aa(lp221
F0.0
aF0.0769231
aF2.59615
aa(lp222
F0.0
aF0.0769231
aF0.153846
aa(lp223
F0.0769231
aF0.153846
aF0.192308
aa(lp224
F0.153846
aF0.192308
aF0.230769
aa(lp225
F0.192308
aF0.230769
aF0.25
aa(lp226
F0.230769
aF0.25
aF0.634615
aa(lp227
F0.25
aF0.634615
aF0.711538
aa(lp228
F0.634615
aF0.711538
aF0.75
aa(lp229
F0.711538
aF0.75
aF0.923077
aa(lp230
F0.75
aF0.923077
aF1.01923
aa(lp231
F0.923077
aF1.01923
aF1.19231
aa(lp232
F1.01923
aF1.19231
aF1.34615
aa(lp233
F1.19231
aF1.34615
aF1.75
aa(lp234
F1.34615
aF1.75
aF2.09615
aa(lp235
F1.75
aF2.09615
aF2.30769
aa(lp236
F2.09615
aF2.30769
aF2.44231
aa(lp237
F0.0
aF0.173077
aF1.05769
aa(lp238
F0.173077
aF1.05769
aF1.09615
aa(lp239
F1.05769
aF1.09615
aF2.38462
aa(lp240
F1.09615
aF2.38462
aF2.51923
aa(lp241
F2.38462
aF2.51923
aF2.88462
aa(lp242
F2.51923
aF2.88462
aF3.34615
aa(lp243
F2.88462
aF3.34615
aF3.40385
aa(lp244
F3.34615
aF3.40385
aF3.55769
aa(lp245
F0.0
aF0.0576923
aF0.115385
aa(lp246
F0.0
aF1.57692
aF2.53846
aa(lp247
F1.57692
aF2.53846
aF2.67308
aa(lp248
F0.0
aF1.21154
aF1.36538
aa(lp249
F0.0
aF0.153846
aF0.173077
aa(lp250
F0.153846
aF0.173077
aF0.211538
aa(lp251
F0.173077
aF0.211538
aF0.326923
aa(lp252
F0.0
aF0.461538
aF0.846154
aa(lp253
F0.461538
aF0.846154
aF1.19231
aa.