(lp0
(lp1
I0
aI0
aI1
aa(lp2
I0
aI0
aI0
aa(lp3
I0
aI0
aI0
aa(lp4
I58
aI11
aI11
aa(lp5
I11
aI11
aI11
aa(lp6
I11
aI11
aI11
aa(lp7
I11
aI11
aI11
aa(lp8
I11
aI11
aI11
aa(lp9
I11
aI11
aI11
aa(lp10
I1
aI8
aI1
aa(lp11
I8
aI1
aI8
aa(lp12
I0
aI0
aI0
aa(lp13
I11
aI1
aI1
aa(lp14
I20
aI10
aI21
aa(lp15
I10
aI21
aI13
aa(lp16
I21
aI13
aI20
aa(lp17
I13
aI20
aI11
aa(lp18
I20
aI11
aI20
aa(lp19
I11
aI20
aI15
aa(lp20
I20
aI15
aI11
aa(lp21
I15
aI11
aI22
aa(lp22
I11
aI22
aI10
aa(lp23
I22
aI10
aI23
aa(lp24
I10
aI23
aI10
aa(lp25
I23
aI10
aI11
aa(lp26
I10
aI11
aI20
aa(lp27
I11
aI20
aI11
aa(lp28
I20
aI11
aI11
aa(lp29
I0
aI0
aI0
aa(lp30
I0
aI0
aI0
aa(lp31
I0
aI0
aI0
aa(lp32
I0
aI0
aI0
aa(lp33
I0
aI0
aI0
aa(lp34
I0
aI0
aI0
aa(lp35
I0
aI0
aI0
aa(lp36
I0
aI0
aI0
aa(lp37
I0
aI0
aI0
aa(lp38
I0
aI0
aI0
aa(lp39
I0
aI0
aI0
aa(lp40
I0
aI0
aI0
aa(lp41
I0
aI0
aI0
aa(lp42
I0
aI0
aI0
aa(lp43
I0
aI0
aI0
aa(lp44
I0
aI0
aI0
aa(lp45
I0
aI0
aI0
aa(lp46
I0
aI0
aI0
aa(lp47
I0
aI0
aI0
aa(lp48
I0
aI0
aI0
aa(lp49
I1
aI1
aI1
aa(lp50
I16
aI7
aI7
aa(lp51
I0
aI0
aI0
aa.