(lp0
(lp1
I1
aI1
aI13
aa(lp2
I15
aI15
aI46
aa(lp3
I0
aI0
aI0
aa(lp4
I0
aI0
aI0
aa(lp5
I8
aI8
aI8
aa(lp6
I40
aI41
aI27
aa(lp7
I1
aI1
aI1
aa(lp8
I0
aI0
aI0
aa(lp9
I0
aI1
aI0
aa(lp10
I14
aI1
aI0
aa(lp11
I10
aI10
aI1
aa(lp12
I0
aI0
aI0
aa(lp13
I0
aI0
aI0
aa(lp14
I0
aI0
aI1
aa(lp15
I2
aI2
aI2
aa(lp16
I0
aI0
aI0
aa(lp17
I0
aI0
aI0
aa(lp18
I0
aI0
aI0
aa(lp19
I0
aI0
aI0
aa(lp20
I0
aI0
aI0
aa(lp21
I0
aI0
aI0
aa(lp22
I0
aI0
aI0
aa(lp23
I0
aI0
aI0
aa(lp24
I0
aI0
aI0
aa(lp25
I0
aI0
aI0
aa(lp26
I0
aI0
aI0
aa(lp27
I0
aI0
aI0
aa(lp28
I0
aI0
aI0
aa(lp29
I0
aI0
aI0
aa(lp30
I0
aI0
aI0
aa(lp31
I0
aI0
aI0
aa(lp32
I0
aI0
aI0
aa(lp33
I0
aI0
aI0
aa(lp34
I0
aI0
aI0
aa(lp35
I0
aI0
aI0
aa(lp36
I0
aI0
aI0
aa(lp37
I0
aI0
aI0
aa(lp38
I0
aI0
aI0
aa(lp39
I0
aI0
aI0
aa(lp40
I0
aI0
aI0
aa(lp41
I0
aI0
aI0
aa(lp42
I0
aI0
aI0
aa(lp43
I0
aI0
aI0
aa(lp44
I0
aI0
aI0
aa(lp45
I0
aI0
aI0
aa(lp46
I0
aI0
aI0
aa(lp47
I0
aI0
aI0
aa(lp48
I0
aI0
aI0
aa(lp49
I0
aI0
aI0
aa(lp50
I0
aI0
aI0
aa(lp51
I0
aI0
aI1
aa(lp52
I0
aI1
aI1
aa(lp53
I1
aI1
aI0
aa(lp54
I1
aI0
aI1
aa(lp55
I0
aI1
aI1
aa(lp56
I1
aI1
aI1
aa(lp57
I1
aI1
aI1
aa(lp58
I1
aI1
aI1
aa(lp59
I1
aI1
aI0
aa(lp60
I1
aI0
aI0
aa(lp61
I0
aI0
aI0
aa(lp62
I0
aI0
aI0
aa(lp63
I0
aI0
aI1
aa(lp64
I0
aI1
aI0
aa(lp65
I1
aI0
aI0
aa(lp66
I1
aI1
aI1
aa(lp67
I11
aI11
aI11
aa(lp68
I0
aI0
aI0
aa(lp69
I0
aI0
aI0
aa(lp70
I7
aI6
aI6
aa(lp71
I1
aI1
aI1
aa(lp72
I1
aI1
aI1
aa(lp73
I55
aI20
aI20
aa(lp74
I0
aI0
aI0
aa(lp75
I0
aI0
aI0
aa(lp76
I0
aI0
aI0
aa(lp77
I13
aI1
aI1
aa(lp78
I30
aI1
aI1
aa(lp79
I1
aI1
aI1
aa(lp80
I1
aI1
aI1
aa(lp81
I44
aI6
aI6
aa(lp82
I18
aI18
aI18
aa(lp83
I14
aI1
aI1
aa(lp84
I1
aI1
aI1
aa(lp85
I1
aI1
aI1
aa(lp86
I1
aI1
aI1
aa(lp87
I0
aI1
aI0
aa(lp88
I1
aI0
aI0
aa(lp89
I0
aI0
aI0
aa(lp90
I2
aI2
aI2
aa(lp91
I60
aI13
aI55
aa(lp92
I13
aI55
aI13
aa(lp93
I55
aI13
aI60
aa(lp94
I14
aI15
aI14
aa(lp95
I1
aI1
aI1
aa(lp96
I1
aI1
aI1
aa(lp97
I16
aI7
aI7
aa(lp98
I0
aI0
aI0
aa(lp99
I0
aI0
aI0
aa(lp100
I0
aI8
aI0
aa(lp101
I8
aI0
aI0
aa(lp102
I14
aI14
aI14
aa(lp103
I2
aI52
aI2
aa(lp104
I13
aI11
aI11
aa(lp105
I11
aI11
aI11
aa(lp106
I0
aI0
aI0
aa(lp107
I0
aI0
aI0
aa(lp108
I0
aI0
aI0
aa(lp109
I8
aI0
aI1
aa(lp110
I27
aI10
aI10
aa(lp111
I0
aI0
aI0
aa(lp112
I0
aI0
aI14
aa(lp113
I0
aI0
aI0
aa(lp114
I0
aI0
aI0
aa(lp115
I0
aI0
aI0
aa(lp116
I1
aI1
aI1
aa(lp117
I1
aI1
aI1
aa(lp118
I1
aI1
aI1
aa(lp119
I13
aI25
aI25
aa(lp120
I25
aI25
aI25
aa(lp121
I25
aI25
aI13
aa(lp122
I25
aI13
aI25
aa(lp123
I1
aI0
aI0
aa(lp124
I0
aI1
aI1
aa(lp125
I14
aI1
aI0
aa(lp126
I1
aI0
aI0
aa(lp127
I0
aI0
aI0
aa(lp128
I0
aI0
aI0
aa(lp129
I0
aI0
aI0
aa(lp130
I58
aI11
aI11
aa(lp131
I11
aI11
aI11
aa(lp132
I11
aI11
aI11
aa(lp133
I11
aI11
aI11
aa(lp134
I11
aI11
aI11
aa(lp135
I11
aI11
aI11
aa(lp136
I6
aI6
aI11
aa(lp137
I6
aI11
aI11
aa(lp138
I8
aI8
aI8
aa(lp139
I8
aI8
aI8
aa(lp140
I1
aI1
aI1
aa(lp141
I8
aI8
aI1
aa(lp142
I0
aI0
aI0
aa(lp143
I0
aI0
aI0
aa(lp144
I0
aI0
aI0
aa(lp145
I0
aI0
aI0
aa(lp146
I0
aI0
aI0
aa(lp147
I0
aI0
aI0
aa(lp148
I0
aI0
aI0
aa(lp149
I0
aI0
aI0
aa(lp150
I0
aI0
aI0
aa(lp151
I0
aI0
aI0
aa(lp152
I8
aI1
aI1
aa(lp153
I1
aI1
aI1
aa(lp154
I0
aI0
aI0
aa(lp155
I7
aI14
aI7
aa(lp156
I1
aI1
aI1
aa(lp157
I1
aI1
aI1
aa(lp158
I1
aI1
aI1
aa(lp159
I1
aI1
aI1
aa(lp160
I1
aI0
aI0
aa(lp161
I0
aI0
aI0
aa(lp162
I0
aI0
aI0
aa(lp163
I0
aI0
aI0
aa(lp164
I0
aI0
aI0
aa(lp165
I42
aI15
aI15
aa(lp166
I7
aI7
aI7
aa(lp167
I1
aI1
aI1
aa(lp168
I1
aI1
aI1
aa(lp169
I10
aI0
aI0
aa(lp170
I0
aI0
aI0
aa(lp171
I0
aI0
aI0
aa(lp172
I0
aI0
aI0
aa(lp173
I0
aI0
aI0
aa(lp174
I0
aI0
aI0
aa(lp175
I0
aI0
aI0
aa(lp176
I0
aI0
aI0
aa(lp177
I0
aI0
aI0
aa(lp178
I0
aI0
aI0
aa(lp179
I0
aI0
aI0
aa(lp180
I0
aI0
aI0
aa(lp181
I0
aI0
aI0
aa(lp182
I0
aI0
aI0
aa(lp183
I0
aI0
aI0
aa(lp184
I0
aI0
aI0
aa(lp185
I0
aI0
aI0
aa(lp186
I0
aI0
aI0
aa(lp187
I0
aI0
aI0
aa(lp188
I0
aI0
aI0
aa(lp189
I0
aI0
aI0
aa(lp190
I0
aI0
aI0
aa(lp191
I0
aI0
aI0
aa(lp192
I0
aI0
aI0
aa(lp193
I0
aI0
aI0
aa(lp194
I1
aI0
aI1
aa(lp195
I0
aI1
aI0
aa(lp196
I1
aI0
aI1
aa(lp197
I0
aI1
aI1
aa(lp198
I1
aI1
aI0
aa(lp199
I19
aI1
aI1
aa(lp200
I1
aI1
aI1
aa(lp201
I0
aI0
aI0
aa(lp202
I0
aI0
aI0
aa(lp203
I1
aI1
aI1
aa(lp204
I1
aI1
aI1
aa(lp205
I8
aI0
aI0
aa(lp206
I32
aI22
aI13
aa(lp207
I0
aI0
aI0
aa(lp208
I6
aI6
aI7
aa(lp209
I17
aI13
aI13
aa(lp210
I11
aI1
aI1
aa(lp211
I8
aI11
aI8
aa(lp212
I0
aI0
aI0
aa(lp213
I0
aI0
aI0
aa(lp214
I1
aI8
aI1
aa(lp215
I8
aI1
aI8
aa(lp216
I1
aI1
aI1
aa(lp217
I8
aI8
aI8
aa(lp218
I8
aI8
aI8
aa(lp219
I8
aI8
aI8
aa(lp220
I0
aI0
aI0
aa(lp221
I7
aI8
aI8
aa(lp222
I0
aI0
aI0
aa(lp223
I0
aI0
aI0
aa(lp224
I0
aI0
aI0
aa(lp225
I0
aI0
aI0
aa(lp226
I0
aI0
aI0
aa(lp227
I0
aI0
aI0
aa(lp228
I0
aI0
aI0
aa(lp229
I0
aI0
aI0
aa(lp230
I0
aI0
aI0
aa(lp231
I0
aI0
aI0
aa(lp232
I0
aI0
aI0
aa(lp233
I0
aI0
aI0
aa(lp234
I0
aI0
aI0
aa(lp235
I0
aI0
aI0
aa(lp236
I0
aI0
aI0
aa(lp237
I0
aI0
aI0
aa(lp238
I0
aI0
aI0
aa(lp239
I0
aI0
aI0
aa(lp240
I0
aI0
aI0
aa(lp241
I0
aI0
aI0
aa(lp242
I0
aI0
aI0
aa(lp243
I0
aI0
aI0
aa(lp244
I0
aI0
aI0
aa(lp245
I0
aI0
aI0
aa(lp246
I1
aI1
aI0
aa(lp247
I1
aI0
aI1
aa(lp248
I18
aI1
aI18
aa(lp249
I10
aI10
aI10
aa(lp250
I10
aI10
aI64
aa(lp251
I10
aI64
aI64
aa(lp252
I13
aI55
aI25
aa(lp253
I55
aI25
aI13
aa.