(lp0
(lp1
I17
aI13
aI13
aa(lp2
I1
aI1
aI1
aa(lp3
I1
aI1
aI1
aa(lp4
I13
aI1
aI1
aa(lp5
I0
aI0
aI0
aa(lp6
I0
aI0
aI0
aa(lp7
I0
aI0
aI14
aa(lp8
I0
aI8
aI0
aa(lp9
I8
aI0
aI0
aa(lp10
I14
aI15
aI14
aa(lp11
I0
aI0
aI0
aa(lp12
I0
aI0
aI0
aa(lp13
I0
aI0
aI0
aa(lp14
I0
aI0
aI0
aa(lp15
I0
aI0
aI0
aa(lp16
I0
aI0
aI0
aa(lp17
I0
aI0
aI0
aa(lp18
I0
aI0
aI0
aa(lp19
I8
aI8
aI8
aa(lp20
I8
aI8
aI8
aa(lp21
I6
aI6
aI7
aa(lp22
I0
aI0
aI0
aa(lp23
I0
aI0
aI0
aa(lp24
I11
aI11
aI11
aa(lp25
I27
aI10
aI10
aa(lp26
I7
aI7
aI7
aa(lp27
I0
aI0
aI0
aa(lp28
I13
aI25
aI25
aa(lp29
I25
aI25
aI25
aa(lp30
I25
aI25
aI13
aa(lp31
I25
aI13
aI25
aa(lp32
I0
aI0
aI0
aa(lp33
I0
aI0
aI0
aa(lp34
I16
aI7
aI7
aa(lp35
I7
aI6
aI6
aa(lp36
I11
aI1
aI1
aa(lp37
I8
aI0
aI1
aa(lp38
I0
aI0
aI0
aa(lp39
I0
aI0
aI0
aa(lp40
I0
aI0
aI0
aa(lp41
I0
aI0
aI0
aa(lp42
I0
aI0
aI0
aa(lp43
I0
aI0
aI0
aa(lp44
I0
aI0
aI0
aa(lp45
I0
aI0
aI0
aa(lp46
I1
aI1
aI1
aa(lp47
I6
aI6
aI11
aa(lp48
I6
aI11
aI11
aa(lp49
I0
aI0
aI0
aa(lp50
I0
aI0
aI0
aa(lp51
I0
aI0
aI0
aa(lp52
I0
aI0
aI0
aa(lp53
I0
aI0
aI0
aa(lp54
I0
aI0
aI0
aa(lp55
I0
aI0
aI0
aa(lp56
I0
aI0
aI0
aa(lp57
I0
aI0
aI0
aa(lp58
I0
aI0
aI0
aa(lp59
I0
aI0
aI0
aa(lp60
I0
aI0
aI0
aa(lp61
I0
aI0
aI0
aa(lp62
I0
aI0
aI0
aa(lp63
I0
aI0
aI0
aa(lp64
I0
aI0
aI0
aa(lp65
I0
aI0
aI0
aa(lp66
I40
aI41
aI27
aa(lp67
I15
aI15
aI46
aa(lp68
I7
aI8
aI8
aa(lp69
I8
aI8
aI8
aa(lp70
I0
aI0
aI0
aa(lp71
I0
aI0
aI0
aa(lp72
I0
aI0
aI0
aa(lp73
I0
aI0
aI0
aa(lp74
I1
aI1
aI1
aa(lp75
I1
aI1
aI1
aa(lp76
I1
aI11
aI1
aa(lp77
I14
aI14
aI14
aa(lp78
I44
aI6
aI6
aa(lp79
I1
aI1
aI1
aa(lp80
I1
aI1
aI1
aa(lp81
I8
aI8
aI8
aa(lp82
I42
aI15
aI15
aa(lp83
I1
aI1
aI1
aa(lp84
I1
aI1
aI1
aa(lp85
I1
aI1
aI1
aa(lp86
I0
aI0
aI0
aa(lp87
I0
aI0
aI0
aa(lp88
I0
aI0
aI0
aa(lp89
I0
aI0
aI0
aa(lp90
I0
aI0
aI0
aa(lp91
I0
aI0
aI0
aa(lp92
I0
aI0
aI0
aa(lp93
I0
aI0
aI0
aa(lp94
I0
aI0
aI0
aa(lp95
I0
aI0
aI0
aa(lp96
I0
aI0
aI0
aa(lp97
I0
aI0
aI0
aa(lp98
I0
aI0
aI0
aa(lp99
I0
aI0
aI0
aa(lp100
I0
aI0
aI0
aa(lp101
I0
aI0
aI0
aa(lp102
I0
aI0
aI0
aa(lp103
I0
aI0
aI0
aa(lp104
I0
aI0
aI0
aa(lp105
I0
aI0
aI0
aa(lp106
I0
aI0
aI0
aa(lp107
I0
aI0
aI0
aa(lp108
I0
aI0
aI0
aa(lp109
I0
aI0
aI0
aa(lp110
I0
aI0
aI0
aa(lp111
I0
aI0
aI0
aa(lp112
I1
aI1
aI1
aa(lp113
I0
aI0
aI0
aa(lp114
I0
aI0
aI1
aa(lp115
I0
aI1
aI1
aa(lp116
I0
aI0
aI0
aa(lp117
I1
aI1
aI1
aa(lp118
I1
aI1
aI1
aa(lp119
I1
aI1
aI1
aa(lp120
I1
aI1
aI1
aa(lp121
I0
aI0
aI0
aa(lp122
I0
aI0
aI0
aa(lp123
I0
aI0
aI0
aa(lp124
I8
aI11
aI8
aa(lp125
I2
aI2
aI2
aa(lp126
I0
aI1
aI1
aa(lp127
I7
aI14
aI7
aa(lp128
I1
aI0
aI0
aa(lp129
I0
aI0
aI0
aa(lp130
I0
aI0
aI0
aa(lp131
I0
aI0
aI0
aa(lp132
I10
aI10
aI10
aa(lp133
I10
aI10
aI64
aa(lp134
I10
aI64
aI64
aa(lp135
I11
aI11
aI11
aa(lp136
I11
aI11
aI11
aa(lp137
I11
aI11
aI11
aa(lp138
I11
aI11
aI11
aa(lp139
I11
aI11
aI11
aa(lp140
I11
aI11
aI11
aa(lp141
I11
aI11
aI11
aa(lp142
I11
aI11
aI11
aa(lp143
I11
aI11
aI11
aa(lp144
I11
aI11
aI11
aa(lp145
I11
aI11
aI11
aa(lp146
I11
aI11
aI11
aa(lp147
I11
aI11
aI11
aa(lp148
I0
aI0
aI0
aa(lp149
I0
aI0
aI0
aa(lp150
I0
aI0
aI0
aa(lp151
I0
aI0
aI0
aa(lp152
I0
aI0
aI0
aa(lp153
I0
aI0
aI0
aa(lp154
I0
aI0
aI0
aa(lp155
I0
aI0
aI0
aa(lp156
I0
aI0
aI1
aa(lp157
I19
aI19
aI1
aa(lp158
I19
aI1
aI1
aa(lp159
I1
aI1
aI19
aa(lp160
I1
aI19
aI19
aa(lp161
I19
aI19
aI1
aa(lp162
I19
aI1
aI1
aa(lp163
I1
aI1
aI1
aa(lp164
I1
aI1
aI0
aa(lp165
I1
aI0
aI1
aa(lp166
I0
aI0
aI0
aa(lp167
I14
aI1
aI0
aa(lp168
I1
aI0
aI0
aa(lp169
I0
aI0
aI0
aa(lp170
I0
aI0
aI0
aa(lp171
I0
aI0
aI0
aa(lp172
I0
aI0
aI0
aa(lp173
I0
aI0
aI1
aa(lp174
I0
aI1
aI1
aa(lp175
I1
aI1
aI0
aa(lp176
I1
aI0
aI1
aa(lp177
I0
aI1
aI1
aa(lp178
I1
aI1
aI1
aa(lp179
I1
aI1
aI1
aa(lp180
I1
aI1
aI1
aa(lp181
I1
aI1
aI0
aa(lp182
I1
aI0
aI0
aa(lp183
I0
aI0
aI0
aa(lp184
I0
aI0
aI0
aa(lp185
I0
aI0
aI1
aa(lp186
I0
aI1
aI0
aa(lp187
I1
aI0
aI0
aa(lp188
I2
aI2
aI2
aa(lp189
I1
aI0
aI1
aa(lp190
I0
aI1
aI0
aa(lp191
I1
aI0
aI1
aa(lp192
I0
aI1
aI1
aa(lp193
I1
aI1
aI0
aa(lp194
I0
aI0
aI0
aa(lp195
I0
aI0
aI0
aa(lp196
I0
aI0
aI0
aa(lp197
I13
aI11
aI11
aa(lp198
I11
aI11
aI11
aa(lp199
I0
aI0
aI0
aa(lp200
I0
aI0
aI0
aa(lp201
I1
aI1
aI1
aa(lp202
I0
aI1
aI0
aa(lp203
I32
aI22
aI13
aa(lp204
I0
aI0
aI0
aa(lp205
I0
aI0
aI0
aa(lp206
I1
aI1
aI1
aa(lp207
I0
aI0
aI0
aa(lp208
I14
aI14
aI14
aa(lp209
I0
aI0
aI0
aa(lp210
I0
aI0
aI0
aa(lp211
I1
aI1
aI1
aa(lp212
I1
aI1
aI1
aa(lp213
I0
aI0
aI0
aa(lp214
I18
aI1
aI18
aa(lp215
I1
aI8
aI1
aa(lp216
I8
aI1
aI8
aa(lp217
I18
aI18
aI18
aa(lp218
I60
aI13
aI55
aa(lp219
I13
aI55
aI13
aa(lp220
I55
aI13
aI60
aa(lp221
I0
aI0
aI0
aa(lp222
I0
aI0
aI0
aa(lp223
I13
aI55
aI25
aa(lp224
I55
aI25
aI13
aa(lp225
I0
aI1
aI0
aa(lp226
I1
aI0
aI0
aa(lp227
I0
aI0
aI0
aa(lp228
I14
aI1
aI0
aa(lp229
I0
aI0
aI0
aa(lp230
I20
aI10
aI21
aa(lp231
I10
aI21
aI13
aa(lp232
I21
aI13
aI20
aa(lp233
I13
aI20
aI11
aa(lp234
I20
aI11
aI20
aa(lp235
I11
aI20
aI15
aa(lp236
I20
aI15
aI11
aa(lp237
I15
aI11
aI22
aa(lp238
I11
aI22
aI10
aa(lp239
I22
aI10
aI23
aa(lp240
I10
aI23
aI10
aa(lp241
I23
aI10
aI11
aa(lp242
I10
aI11
aI20
aa(lp243
I11
aI20
aI11
aa(lp244
I20
aI11
aI11
aa(lp245
I8
aI8
aI1
aa(lp246
I30
aI1
aI1
aa(lp247
I1
aI1
aI1
aa(lp248
I1
aI1
aI1
aa(lp249
I0
aI0
aI0
aa(lp250
I0
aI0
aI0
aa(lp251
I0
aI0
aI0
aa(lp252
I0
aI0
aI0
aa(lp253
I0
aI0
aI0
aa.