(lp0
(lp1
I1
aI11
aI1
aa(lp2
I0
aI1
aI0
aa(lp3
I1
aI0
aI0
aa(lp4
I0
aI0
aI0
aa(lp5
I1
aI1
aI1
aa(lp6
I1
aI1
aI1
aa(lp7
I1
aI1
aI1
aa(lp8
I0
aI0
aI0
aa(lp9
I42
aI15
aI15
aa(lp10
I0
aI0
aI1
aa(lp11
I0
aI1
aI1
aa(lp12
I8
aI8
aI8
aa(lp13
I8
aI8
aI8
aa(lp14
I0
aI0
aI0
aa(lp15
I0
aI0
aI0
aa(lp16
I0
aI0
aI0
aa(lp17
I11
aI11
aI11
aa(lp18
I2
aI52
aI2
aa(lp19
I7
aI7
aI7
aa(lp20
I14
aI14
aI14
aa(lp21
I14
aI15
aI14
aa(lp22
I60
aI13
aI55
aa(lp23
I13
aI55
aI13
aa(lp24
I55
aI13
aI60
aa(lp25
I8
aI11
aI8
aa(lp26
I14
aI1
aI0
aa(lp27
I1
aI0
aI0
aa(lp28
I0
aI0
aI0
aa(lp29
I0
aI0
aI0
aa(lp30
I0
aI0
aI0
aa(lp31
I8
aI8
aI1
aa(lp32
I0
aI0
aI0
aa(lp33
I0
aI0
aI0
aa(lp34
I0
aI0
aI0
aa(lp35
I0
aI0
aI0
aa(lp36
I0
aI0
aI0
aa(lp37
I0
aI0
aI0
aa(lp38
I0
aI0
aI0
aa(lp39
I0
aI0
aI0
aa(lp40
I0
aI0
aI0
aa(lp41
I0
aI0
aI0
aa(lp42
I0
aI0
aI0
aa(lp43
I0
aI0
aI0
aa(lp44
I0
aI0
aI0
aa(lp45
I0
aI0
aI0
aa(lp46
I0
aI0
aI0
aa(lp47
I0
aI0
aI0
aa(lp48
I0
aI0
aI0
aa(lp49
I0
aI0
aI0
aa(lp50
I0
aI0
aI0
aa(lp51
I0
aI0
aI0
aa(lp52
I1
aI1
aI0
aa(lp53
I1
aI0
aI1
aa(lp54
I1
aI1
aI1
aa(lp55
I0
aI0
aI0
aa(lp56
I0
aI0
aI0
aa(lp57
I0
aI0
aI0
aa(lp58
I7
aI6
aI6
aa(lp59
I8
aI8
aI8
aa(lp60
I8
aI8
aI8
aa(lp61
I0
aI0
aI0
aa(lp62
I8
aI1
aI1
aa(lp63
I1
aI1
aI1
aa(lp64
I8
aI8
aI8
aa(lp65
I44
aI6
aI6
aa(lp66
I1
aI8
aI1
aa(lp67
I8
aI1
aI8
aa(lp68
I0
aI0
aI0
aa(lp69
I0
aI0
aI1
aa(lp70
I0
aI1
aI1
aa(lp71
I1
aI1
aI0
aa(lp72
I1
aI0
aI1
aa(lp73
I0
aI1
aI1
aa(lp74
I1
aI1
aI1
aa(lp75
I1
aI1
aI1
aa(lp76
I1
aI1
aI1
aa(lp77
I1
aI1
aI0
aa(lp78
I1
aI0
aI0
aa(lp79
I0
aI0
aI0
aa(lp80
I0
aI0
aI0
aa(lp81
I0
aI0
aI1
aa(lp82
I0
aI1
aI0
aa(lp83
I1
aI0
aI0
aa(lp84
I6
aI6
aI11
aa(lp85
I6
aI11
aI11
aa(lp86
I30
aI1
aI1
aa(lp87
I1
aI1
aI1
aa(lp88
I1
aI1
aI1
aa(lp89
I8
aI8
aI8
aa(lp90
I0
aI0
aI0
aa(lp91
I0
aI0
aI0
aa(lp92
I0
aI0
aI0
aa(lp93
I14
aI1
aI1
aa(lp94
I1
aI1
aI1
aa(lp95
I1
aI1
aI1
aa(lp96
I1
aI1
aI1
aa(lp97
I0
aI0
aI0
aa(lp98
I0
aI0
aI0
aa(lp99
I0
aI0
aI0
aa(lp100
I0
aI0
aI0
aa(lp101
I0
aI0
aI0
aa(lp102
I0
aI0
aI0
aa(lp103
I0
aI0
aI0
aa(lp104
I0
aI0
aI0
aa(lp105
I0
aI0
aI0
aa(lp106
I0
aI0
aI0
aa(lp107
I0
aI0
aI0
aa(lp108
I0
aI0
aI0
aa(lp109
I0
aI0
aI0
aa(lp110
I13
aI11
aI11
aa(lp111
I11
aI11
aI11
aa(lp112
I0
aI0
aI0
aa(lp113
I13
aI1
aI1
aa(lp114
I18
aI18
aI18
aa(lp115
I0
aI0
aI0
aa(lp116
I0
aI0
aI0
aa(lp117
I0
aI0
aI0
aa(lp118
I0
aI0
aI0
aa(lp119
I0
aI0
aI0
aa(lp120
I0
aI0
aI0
aa(lp121
I0
aI0
aI0
aa(lp122
I0
aI0
aI0
aa(lp123
I0
aI0
aI0
aa(lp124
I0
aI0
aI0
aa(lp125
I0
aI0
aI0
aa(lp126
I0
aI0
aI0
aa(lp127
I0
aI0
aI0
aa(lp128
I1
aI1
aI1
aa(lp129
I14
aI14
aI14
aa(lp130
I6
aI6
aI7
aa(lp131
I10
aI0
aI0
aa(lp132
I0
aI0
aI0
aa(lp133
I0
aI1
aI0
aa(lp134
I0
aI1
aI1
aa(lp135
I0
aI0
aI0
aa(lp136
I0
aI0
aI14
aa(lp137
I1
aI1
aI1
aa(lp138
I1
aI1
aI1
aa(lp139
I1
aI1
aI1
aa(lp140
I8
aI0
aI1
aa(lp141
I11
aI11
aI11
aa(lp142
I11
aI11
aI11
aa(lp143
I11
aI11
aI11
aa(lp144
I11
aI11
aI11
aa(lp145
I11
aI11
aI11
aa(lp146
I11
aI11
aI11
aa(lp147
I11
aI11
aI11
aa(lp148
I11
aI11
aI11
aa(lp149
I11
aI11
aI11
aa(lp150
I11
aI11
aI11
aa(lp151
I11
aI11
aI11
aa(lp152
I11
aI11
aI11
aa(lp153
I11
aI11
aI11
aa(lp154
I0
aI0
aI0
aa(lp155
I0
aI0
aI0
aa(lp156
I0
aI0
aI0
aa(lp157
I0
aI0
aI0
aa(lp158
I1
aI1
aI1
aa(lp159
I18
aI1
aI18
aa(lp160
I8
aI0
aI0
aa(lp161
I40
aI41
aI27
aa(lp162
I1
aI1
aI1
aa(lp163
I1
aI1
aI1
aa(lp164
I1
aI1
aI1
aa(lp165
I1
aI1
aI1
aa(lp166
I0
aI0
aI0
aa(lp167
I0
aI0
aI0
aa(lp168
I0
aI0
aI0
aa(lp169
I1
aI0
aI0
aa(lp170
I0
aI0
aI0
aa(lp171
I0
aI0
aI0
aa(lp172
I10
aI10
aI10
aa(lp173
I10
aI10
aI64
aa(lp174
I10
aI64
aI64
aa(lp175
I13
aI25
aI25
aa(lp176
I25
aI25
aI25
aa(lp177
I25
aI25
aI13
aa(lp178
I25
aI13
aI25
aa(lp179
I0
aI0
aI0
aa(lp180
I1
aI1
aI13
aa(lp181
I19
aI1
aI1
aa(lp182
I1
aI1
aI1
aa(lp183
I0
aI0
aI1
aa(lp184
I13
aI55
aI25
aa(lp185
I55
aI25
aI13
aa(lp186
I0
aI19
aI0
aa(lp187
I19
aI0
aI0
aa(lp188
I0
aI0
aI0
aa(lp189
I1
aI0
aI1
aa(lp190
I0
aI1
aI0
aa(lp191
I1
aI0
aI1
aa(lp192
I0
aI1
aI1
aa(lp193
I1
aI1
aI0
aa(lp194
I0
aI0
aI0
aa(lp195
I0
aI0
aI0
aa(lp196
I0
aI0
aI0
aa(lp197
I0
aI0
aI0
aa(lp198
I0
aI0
aI0
aa(lp199
I0
aI0
aI0
aa(lp200
I0
aI0
aI0
aa(lp201
I0
aI0
aI0
aa(lp202
I0
aI0
aI0
aa(lp203
I0
aI0
aI0
aa(lp204
I0
aI0
aI0
aa(lp205
I0
aI0
aI0
aa(lp206
I0
aI0
aI0
aa(lp207
I0
aI0
aI0
aa(lp208
I0
aI0
aI0
aa(lp209
I0
aI0
aI0
aa(lp210
I1
aI1
aI1
aa(lp211
I1
aI1
aI1
aa(lp212
I14
aI1
aI0
aa(lp213
I1
aI1
aI1
aa(lp214
I1
aI1
aI1
aa(lp215
I0
aI0
aI0
aa(lp216
I1
aI1
aI1
aa(lp217
I0
aI0
aI0
aa(lp218
I0
aI0
aI0
aa(lp219
I0
aI0
aI0
aa(lp220
I32
aI22
aI13
aa(lp221
I55
aI20
aI20
aa(lp222
I20
aI10
aI21
aa(lp223
I10
aI21
aI13
aa(lp224
I21
aI13
aI20
aa(lp225
I13
aI20
aI11
aa(lp226
I20
aI11
aI20
aa(lp227
I11
aI20
aI15
aa(lp228
I20
aI15
aI11
aa(lp229
I15
aI11
aI22
aa(lp230
I11
aI22
aI10
aa(lp231
I22
aI10
aI23
aa(lp232
I10
aI23
aI10
aa(lp233
I23
aI10
aI11
aa(lp234
I10
aI11
aI20
aa(lp235
I11
aI20
aI11
aa(lp236
I20
aI11
aI11
aa(lp237
I8
aI8
aI8
aa(lp238
I11
aI1
aI1
aa(lp239
I1
aI1
aI1
aa(lp240
I0
aI0
aI0
aa(lp241
I0
aI0
aI0
aa(lp242
I0
aI0
aI0
aa(lp243
I0
aI0
aI0
aa(lp244
I0
aI0
aI0
aa(lp245
I0
aI0
aI0
aa.