(lp0
(lp1
I0
aI0
aI0
aa(lp2
I0
aI0
aI0
aa(lp3
I0
aI0
aI0
aa(lp4
I1
aI1
aI11
aa(lp5
I1
aI11
aI1
aa(lp6
I0
aI0
aI0
aa(lp7
I0
aI0
aI0
aa(lp8
I0
aI0
aI0
aa(lp9
I42
aI15
aI15
aa(lp10
I0
aI0
aI0
aa(lp11
I0
aI0
aI0
aa(lp12
I0
aI0
aI1
aa(lp13
I0
aI1
aI1
aa(lp14
I55
aI20
aI20
aa(lp15
I0
aI0
aI0
aa(lp16
I0
aI0
aI0
aa(lp17
I0
aI0
aI0
aa(lp18
I0
aI0
aI0
aa(lp19
I10
aI0
aI0
aa.