(lp0
(lp1
F0.0
aF0.0961538
aF0.192308
aa(lp2
F0.0
aF0.115385
aF2.25
aa(lp3
F0.0
aF1.42308
aF1.63462
aa(lp4
F0.0
aF0.442308
aF2.21154
aa(lp5
F0.0
aF0.5
aF2.21154
aa(lp6
F0.0
aF0.365385
aF0.423077
aa(lp7
F0.0
aF0.115385
aF0.230769
aa(lp8
F0.0
aF0.115384
aF0.25
aa(lp9
F0.0
aF0.653846
aF0.75
aa(lp10
F0.0
aF0.09615399999999996
aF0.30769199999999997
aa(lp11
F0.0
aF2.13462
aF3.86538
aa(lp12
F0.0
aF0.826923
aF0.942308
aa(lp13
F0.0
aF0.403846
aF0.615385
aa(lp14
F0.0
aF0.134615
aF0.173077
aa(lp15
F0.0
aF0.038461999999999996
aF0.269231
aa(lp16
F0.0
aF0.423077
aF0.923077
aa(lp17
F0.0
aF0.5
aF0.750003
aa(lp18
F0.0
aF0.25000299999999986
aF1.7115429999999998
aa(lp19
F0.0
aF1.46154
aF1.59615
aa(lp20
F0.0
aF1.32692
aF1.69231
aa(lp21
F0.0
aF0.3653899999999999
aF0.9423099999999998
aa(lp22
F0.0
aF0.5769199999999999
aF0.69231
aa(lp23
F0.0
aF1.5
aF3.0
aa(lp24
F0.0
aF0.0384615
aF0.153846
aa(lp25
F0.0
aF0.1153845
aF1.0769185000000001
aa(lp26
F0.0
aF0.961534
aF1.0000040000000001
aa(lp27
F0.0
aF0.038470000000000004
aF0.28847
aa(lp28
F0.0
aF0.25
aF0.9807699999999999
aa(lp29
F0.0
aF0.7307699999999999
aF0.7692300000000001
aa(lp30
F0.0
aF0.03846000000000016
aF0.09615000000000018
aa(lp31
F0.0
aF0.05769000000000002
aF0.17307000000000006
aa(lp32
F0.0
aF0.11538000000000004
aF0.15384999999999982
aa(lp33
F0.0
aF0.03846999999999978
aF0.13461999999999996
aa(lp34
F0.0
aF0.09615000000000018
aF0.1538400000000002
aa(lp35
F0.0
aF0.05769000000000002
aF0.09614999999999974
aa(lp36
F0.0
aF0.03845999999999972
aF0.2884599999999997
aa(lp37
F0.0
aF0.0384615
aF0.557692
aa(lp38
F0.0
aF0.0769231
aF2.59615
aa(lp39
F0.0
aF0.0769231
aF0.153846
aa(lp40
F0.0
aF0.0576923
aF0.153846
aa(lp41
F0.0
aF0.09615370000000001
aF0.1153847
aa(lp42
F0.0
aF0.173077
aF1.46154
aa(lp43
F0.0
aF0.0576923
aF2.03846
aa(lp44
F0.0
aF1.9807677000000001
aF2.1923077
aa(lp45
F0.0
aF0.0961538
aF0.134615
aa(lp46
F0.0
aF0.288462
aF0.365385
aa(lp47
F0.0
aF0.07692300000000002
aF0.11538399999999999
aa(lp48
F0.0
aF0.0769231
aF2.38462
aa(lp49
F0.0
aF2.69231
aF3.32692
aa(lp50
F0.0
aF0.6346099999999999
aF0.9615399999999998
aa(lp51
F0.0
aF1.46154
aF1.53846
aa(lp52
F0.0
aF0.07691999999999988
aF0.34614999999999996
aa(lp53
F0.0
aF0.2692300000000001
aF2.4807700000000006
aa(lp54
F0.0
aF2.2115400000000003
aF2.5
aa(lp55
F0.0
aF2.53846
aF2.69231
aa(lp56
F0.0
aF0.15384999999999982
aF0.46153999999999984
aa(lp57
F0.0
aF0.0576923
aF0.769231
aa(lp58
F0.0
aF0.769231
aF0.980769
aa(lp59
F0.0
aF0.211538
aF0.32691899999999996
aa(lp60
F0.0
aF0.230769
aF2.40385
aa(lp61
F0.0
aF0.0769231
aF0.153846
aa(lp62
F0.0
aF0.07692290000000002
aF0.1346149
aa(lp63
F0.0
aF0.442308
aF0.480769
aa(lp64
F0.0
aF0.0769231
aF0.711538
aa(lp65
F0.0
aF0.6346149
aF1.3653869
aa(lp66
F0.0
aF0.730772
aF1.038462
aa(lp67
F0.0
aF0.30769
aF0.5192300000000001
aa(lp68
F0.0
aF0.21154000000000006
aF0.5
aa(lp69
F0.0
aF0.28845999999999994
aF0.5384599999999999
aa(lp70
F0.0
aF0.25
aF0.5
aa(lp71
F0.0
aF0.25
aF0.3461500000000002
aa(lp72
F0.0
aF0.09615000000000018
aF0.26922999999999986
aa(lp73
F0.0
aF0.17307999999999968
aF0.26922999999999986
aa(lp74
F0.0
aF0.09615000000000018
aF0.17308000000000012
aa(lp75
F0.0
aF0.07692999999999994
aF0.32692999999999994
aa(lp76
F0.0
aF0.25
aF0.4038400000000002
aa(lp77
F0.0
aF0.1538400000000002
aF0.26922999999999986
aa(lp78
F0.0
aF0.11538999999999966
aF0.4038499999999998
aa(lp79
F0.0
aF0.28846000000000016
aF0.3461500000000002
aa(lp80
F0.0
aF2.78846
aF3.42308
aa(lp81
F0.0
aF1.21154
aF1.36538
aa(lp82
F0.0
aF0.711538
aF1.15385
aa(lp83
F0.0
aF0.153846
aF0.384615
aa(lp84
F0.0
aF2.5
aF2.55769
aa(lp85
F0.0
aF0.05769000000000002
aF0.09615000000000018
aa(lp86
F0.0
aF0.153846
aF0.769231
aa(lp87
F0.0
aF0.615385
aF0.730769
aa(lp88
F0.0
aF0.11538400000000004
aF0.38461900000000004
aa(lp89
F0.0
aF0.442308
aF0.730769
aa(lp90
F0.0
aF0.288461
aF0.6153820000000001
aa(lp91
F0.0
aF0.326921
aF0.634611
aa(lp92
F0.0
aF0.30769
aF0.34616
aa(lp93
F0.0
aF0.461538
aF2.03846
aa(lp94
F0.0
aF1.5769220000000002
aF2.038462
aa(lp95
F0.0
aF1.34615
aF1.53846
aa(lp96
F0.0
aF0.19230999999999998
aF1.0576999999999999
aa(lp97
F0.0
aF0.423077
aF2.19231
aa(lp98
F0.0
aF0.0576923
aF0.115385
aa(lp99
F0.0
aF0.0384615
aF0.0769231
aa(lp100
F0.0
aF0.03846159999999999
aF0.9038465
aa(lp101
F0.0
aF0.8653849
aF0.9807669
aa(lp102
F0.0
aF0.11538199999999998
aF0.2884619999999999
aa(lp103
F0.0
aF0.1730799999999999
aF0.34616
aa(lp104
F0.0
aF0.17308000000000012
aF0.3269200000000001
aa(lp105
F0.0
aF0.15383999999999998
aF0.5
aa(lp106
F0.0
aF0.34616
aF0.38461999999999996
aa(lp107
F0.0
aF0.788462
aF1.01923
aa(lp108
F0.0
aF2.32692
aF2.48077
aa(lp109
F0.0
aF3.78846
aF3.80769
aa(lp110
F0.0
aF1.11538
aF1.15385
aa(lp111
F0.0
aF1.32692
aF2.57692
aa(lp112
F0.0
aF0.846154
aF1.76923
aa(lp113
F0.0
aF0.9230760000000001
aF2.230766
aa(lp114
F0.0
aF1.3076899999999998
aF1.5576899999999998
aa(lp115
F0.0
aF0.25
aF0.7692300000000003
aa(lp116
F0.0
aF0.5192300000000003
aF0.6923100000000004
aa(lp117
F0.0
aF0.17308000000000012
aF0.23077000000000014
aa(lp118
F0.0
aF0.115385
aF0.25
aa(lp119
F0.0
aF0.192308
aF0.538462
aa(lp120
F0.0
aF0.230769
aF1.92308
aa(lp121
F0.0
aF1.692311
aF2.307691
aa(lp122
F0.0
aF0.6153800000000003
aF0.9615400000000001
aa(lp123
F0.0
aF0.211538
aF1.40385
aa(lp124
F0.0
aF0.0576923
aF0.519231
aa(lp125
F0.0
aF0.0192308
aF0.0384615
aa(lp126
F0.0
aF0.403846
aF1.75
aa(lp127
F0.0
aF1.346154
aF3.1730739999999997
aa(lp128
F0.0
aF1.8269199999999999
aF1.88462
aa(lp129
F0.0
aF0.0384615
aF0.423077
aa(lp130
F0.0
aF0.326923
aF0.384615
aa(lp131
F0.0
aF0.961538
aF1.15385
aa(lp132
F0.0
aF3.21154
aF3.26923
aa(lp133
F0.0
aF0.596154
aF0.692308
aa(lp134
F0.0
aF0.0576923
aF0.269231
aa(lp135
F0.0
aF0.2115387
aF0.24999970000000002
aa(lp136
F0.0
aF0.03846100000000002
aF0.13461499999999998
aa(lp137
F0.0
aF0.09615399999999996
aF0.903848
aa(lp138
F0.0
aF0.0576923
aF2.71154
aa(lp139
F0.0
aF0.115385
aF0.25
aa(lp140
F0.0
aF1.13462
aF1.30769
aa(lp141
F0.0
aF0.17307000000000006
aF0.40384
aa(lp142
F0.0
aF0.480769
aF0.596154
aa(lp143
F0.0
aF0.980769
aF1.01923
aa(lp144
F0.0
aF1.38462
aF1.55769
aa(lp145
F0.0
aF1.07692
aF1.13462
aa(lp146
F0.0
aF0.05769999999999986
aF0.26922999999999986
aa(lp147
F0.0
aF0.115385
aF0.230769
aa(lp148
F0.0
aF0.115384
aF0.25
aa(lp149
F0.0
aF0.134616
aF0.653846
aa(lp150
F0.0
aF0.5192300000000001
aF0.6346149999999999
aa(lp151
F0.0
aF0.11538499999999996
aF0.519235
aa(lp152
F0.0
aF0.40385000000000004
aF1.3461500000000002
aa(lp153
F0.0
aF0.9423000000000001
aF1.15384
aa(lp154
F0.0
aF0.21153999999999984
aF0.36538999999999966
aa(lp155
F0.0
aF0.15384999999999982
aF0.21153999999999984
aa(lp156
F0.0
aF0.05769000000000002
aF0.17308000000000012
aa(lp157
F0.0
aF0.1153900000000001
aF0.40385000000000026
aa(lp158
F0.0
aF0.28846000000000016
aF0.5384600000000002
aa(lp159
F0.0
aF0.25
aF0.9615399999999998
aa(lp160
F0.0
aF0.7115399999999998
aF0.7692299999999999
aa(lp161
F0.0
aF0.05769000000000002
aF0.3269200000000003
aa(lp162
F0.0
aF1.19231
aF1.34615
aa(lp163
F0.0
aF0.403846
aF0.519231
aa(lp164
F0.0
aF0.846154
aF0.865385
aa(lp165
F0.0
aF0.115385
aF0.173077
aa(lp166
F0.0
aF1.5
aF1.96154
aa(lp167
F0.0
aF0.46154000000000006
aF0.5384600000000002
aa(lp168
F0.0
aF0.0384615
aF0.115385
aa(lp169
F0.0
aF0.0769235
aF0.1538465
aa(lp170
F0.0
aF0.0576923
aF0.173077
aa(lp171
F0.0
aF0.307692
aF1.11538
aa(lp172
F0.0
aF0.211538
aF1.40385
aa(lp173
F0.0
aF2.07692
aF2.11538
aa(lp174
F0.0
aF0.03846000000000016
aF1.07693
aa(lp175
F0.0
aF1.0384699999999998
aF1.07693
aa(lp176
F0.0
aF0.03846000000000016
aF0.28846000000000016
aa(lp177
F0.0
aF0.0576923
aF0.384615
aa(lp178
F0.0
aF0.3269227
aF0.44230769999999997
aa(lp179
F0.0
aF0.730769
aF1.63462
aa(lp180
F0.0
aF0.903851
aF1.076921
aa(lp181
F0.0
aF0.17307000000000006
aF0.30769
aa(lp182
F0.0
aF0.13461999999999996
aF0.25
aa(lp183
F0.0
aF0.11538000000000004
aF0.19230999999999998
aa(lp184
F0.0
aF0.461538
aF0.846154
aa(lp185
F0.0
aF0.38461599999999996
aF0.730772
aa(lp186
F0.0
aF1.57692
aF2.53846
aa(lp187
F0.0
aF0.9615400000000001
aF1.09616
aa(lp188
F0.0
aF1.86538
aF1.90385
aa(lp189
F0.0
aF0.0384615
aF0.461538
aa(lp190
F0.0
aF1.13462
aF3.28846
aa(lp191
F0.0
aF2.15384
aF3.1923000000000004
aa(lp192
F0.0
aF2.0
aF4.05769
aa(lp193
F0.0
aF0.173077
aF1.55769
aa(lp194
F0.0
aF1.384613
aF1.5961530000000002
aa(lp195
F0.0
aF0.21154000000000006
aF1.63462
aa(lp196
F0.0
aF0.5
aF1.78846
aa(lp197
F0.0
aF0.173077
aF1.05769
aa(lp198
F0.0
aF0.884613
aF0.9230729999999999
aa(lp199
F0.0
aF0.03845999999999994
aF1.32693
aa(lp200
F0.0
aF1.28847
aF1.42308
aa(lp201
F0.0
aF0.1346099999999999
aF0.5
aa(lp202
F0.0
aF0.3653900000000001
aF0.8269200000000003
aa(lp203
F0.0
aF0.4615300000000002
aF0.5192299999999999
aa(lp204
F0.0
aF0.05769999999999964
aF0.21153999999999984
aa(lp205
F0.0
aF0.153846
aF0.211538
aa(lp206
F0.0
aF0.05769199999999999
aF0.24999999999999997
aa(lp207
F0.0
aF0.153846
aF0.173077
aa(lp208
F0.0
aF0.019230999999999998
aF0.05769199999999999
aa(lp209
F0.0
aF0.038460999999999995
aF0.153846
aa(lp210
F0.0
aF1.63462
aF1.73077
aa(lp211
F0.0
aF0.09614999999999996
aF0.25
aa(lp212
F0.0
aF0.346154
aF1.25
aa(lp213
F0.0
aF0.9038459999999999
aF0.961536
aa(lp214
F0.0
aF0.05769000000000002
aF0.5
aa(lp215
F0.0
aF0.44231
aF0.4807699999999999
aa(lp216
F0.0
aF0.846154
aF1.32692
aa(lp217
F0.0
aF0.173077
aF1.57692
aa(lp218
F0.0
aF1.4038430000000002
aF1.769233
aa(lp219
F0.0
aF0.3653899999999999
aF0.38461999999999996
aa(lp220
F0.0
aF0.01923000000000008
aF0.23077000000000014
aa(lp221
F0.0
aF0.21154000000000006
aF0.24999999999999978
aa(lp222
F0.0
aF0.03845999999999972
aF0.2307699999999997
aa(lp223
F0.0
aF0.19230999999999998
aF0.3461500000000002
aa(lp224
F0.0
aF0.1538400000000002
aF0.28846000000000016
aa(lp225
F0.0
aF0.13461999999999996
aF0.25
aa(lp226
F0.0
aF0.11538000000000004
aF0.36538000000000004
aa(lp227
F0.0
aF0.25
aF0.3461599999999998
aa(lp228
F0.0
aF0.0961599999999998
aF0.30769
aa(lp229
F0.0
aF0.21153000000000022
aF0.30769
aa(lp230
F0.0
aF0.0961599999999998
aF0.19230999999999998
aa(lp231
F0.0
aF0.09615000000000018
aF0.11538000000000004
aa(lp232
F0.0
aF0.01922999999999986
aF0.0961599999999998
aa(lp233
F0.0
aF0.07692999999999994
aF0.17308000000000012
aa(lp234
F0.0
aF0.09615000000000018
aF0.13461000000000034
aa(lp235
F0.0
aF0.03846000000000016
aF0.07691999999999988
aa(lp236
F0.0
aF0.03845999999999972
aF0.11538999999999966
aa(lp237
F0.0
aF0.365385
aF0.884615
aa(lp238
F0.0
aF0.5192300000000001
aF0.5961529999999999
aa(lp239
F0.0
aF0.173077
aF0.288462
aa(lp240
F0.0
aF0.11538499999999999
aF0.807692
aa.