(lp0
(lp1
F0.0
aF0.192308
aF0.538462
aa(lp2
F0.0
aF0.288462
aF0.365385
aa(lp3
F0.288462
aF0.365385
aF0.403846
aa(lp4
F0.0
aF0.326923
aF0.384615
aa(lp5
F0.0
aF0.0769231
aF2.59615
aa(lp6
F0.0
aF0.0576923
aF0.769231
aa(lp7
F0.0
aF0.423077
aF0.923077
aa(lp8
F0.423077
aF0.923077
aF1.17308
aa(lp9
F0.923077
aF1.17308
aF2.63462
aa(lp10
F1.17308
aF2.63462
aF2.76923
aa(lp11
F0.0
aF1.63462
aF1.73077
aa(lp12
F1.63462
aF1.73077
aF1.88462
aa(lp13
F0.0
aF0.0384615
aF0.0769231
aa(lp14
F0.0384615
aF0.0769231
aF0.942308
aa(lp15
F0.0769231
aF0.942308
aF1.05769
aa(lp16
F0.942308
aF1.05769
aF1.23077
aa(lp17
F1.05769
aF1.23077
aF1.40385
aa(lp18
F1.23077
aF1.40385
aF1.55769
aa(lp19
F1.40385
aF1.55769
aF1.90385
aa(lp20
F1.55769
aF1.90385
aF1.94231
aa(lp21
F0.0
aF0.711538
aF1.15385
aa(lp22
F0.0
aF0.153846
aF0.211538
aa(lp23
F0.153846
aF0.211538
aF0.403846
aa(lp24
F0.0
aF0.115385
aF0.25
aa.