(lp0
F0.0001625
aF0.05174375
aF0.000375
aF0.0004375
aF6.25e-06
aF2.8125e-05
aF8.125e-05
aF0.000153125
aF0.0
aF0.003234375
aF0.00815625
aF0.07013125
aF0.030465625
aF0.000915625
aF0.00198125
aF7.1875e-05
aF0.001259375
aF0.0
aF0.0
aF0.0
aF0.000878125
aF0.000475
aF0.0
aF6.25e-06
aF6.25e-06
aF0.003515625
aF0.017765625
aF4.375e-05
aF0.0
aF0.0
aF0.0
aF0.0
aF4.060000000008586e-05
aF1.5649999999914142e-05
aF0.0
aF3.149999999914144e-06
aF0.0
aF6.200000000171713e-06
aF3.149999999914144e-06
aF2.5e-05
aF0.0
aF0.0
aF0.0
aF0.10635312000000004
aF5.9375e-05
aF0.0
aF0.0
aF0.0
aF1.5625e-05
aF0.0
aF0.0
aF3.125e-06
aF0.0
aF0.0
aF2.1875e-05
aF0.019028125
aF0.000378125
aF6.25e-06
aF6.25e-06
aF2.1875e-05
aF1.25e-05
aF3.125e-06
aF0.0
aF1.5625e-05
aF0.00085
aF0.0
aF0.0
aF1.25e-05
aF0.000128125
aF0.00045625
aF0.0
aF0.0
aF0.000346875
aF1.25e-05
aF9.375e-06
aF1.5625e-05
aF1.25e-05
aF0.0001
aF7.1875e-05
aF2.5e-05
aF1.25e-05
aF0.000178125
aF7.1875e-05
aF2.1875e-05
aF1.5625e-05
aF0.0
aF3.125e-06
aF0.000253125
aF8.75e-05
aF0.000540625
aF0.000378125
aF0.000153125
aF0.0
aF0.00036875
aF0.0001
aF0.00448125
aF0.0
aF0.14144375
aF0.0001625
aF7.1875e-05
aF9.375e-06
aF8.75e-05
aF8.125e-05
aF0.0
aF0.0
aF1.25e-05
aF0.000428125
aF0.0255
aF1.5625e-05
aF6.25e-06
aF0.0
aF6.5625e-05
aF3.125e-06
aF1.5625e-05
aF3.75e-05
aF0.00013125
aF3.125e-05
aF5.625e-05
aF0.0001
aF3.125e-05
aF6.25e-06
aF8.4375e-05
aF5.625e-05
aF0.00030625
aF6.875e-05
aF1.25e-05
aF5e-05
aF0.000878125
aF0.0001375
aF0.001046875
aF0.000628125
aF0.061075
aF1.5625e-05
aF0.0002875
aF5e-05
aF0.000140625
aF0.000609375
aF0.00485
aF0.00926875
aF0.0002125
aF7.5e-05
aF0.0001875
aF0.000653125
aF3.125e-06
aF0.000809375
aF0.00025625
aF0.0
aF0.0
aF0.0
aF0.0
aF0.0073625
aF8.125e-05
aF0.00053125
aF0.001203125
aF0.000178125
aF5.625e-05
aF0.00010625
aF0.00028125
aF0.0012125
aF0.000103125
aF0.0
aF0.0
aF3.125e-06
aF2.5e-05
aF1.25e-05
aF2.1875e-05
aF0.00015
aF6.25e-06
aF0.000771875
aF6.25e-06
aF0.00055
aF0.00110625
aF0.0
aF9.375e-06
aF0.0
aF3.125e-06
aF6.25e-06
aF9.375e-06
aF3.125e-06
aF9.375e-06
aF0.0
aF2.8125e-05
aF0.000240625
aF3.125e-06
aF1.5625e-05
aF3.125e-06
aF0.000128125
aF4.0625e-05
aF6.875e-05
aF3.75e-05
aF0.000153125
aF0.000940625
aF1.875e-05
aF0.026959375
aF0.0001375
aF0.0024875
aF0.000740625
aF0.006140625
aF0.133403125
aF0.15370625999999998
aF3.1200000000353613e-06
aF0.0
aF0.019815620000000034
aF1.25e-05
aF4.0625e-05
aF3.125e-05
aF1.5625e-05
aF1.5625e-05
aF2.5e-05
aF0.00029375
aF0.000140625
aF0.000971875
aF0.10634999499999999
aF0.17033751999999994
aF9.375e-06
aF0.002571875
aF0.0
aF0.0001625
aF9.375e-05
aF5.9375e-05
aF0.0
aF0.0
aF0.0
aF6.25e-06
aF0.0
aF6.25e-06
aF6.25e-06
aF9.375e-06
aF3.125e-06
aF1.25e-05
aF3.125e-06
aF0.0
aF6.25e-06
aF3.125e-06
aF0.00013125
aF1.5625e-05
aF1.875e-05
aF0.0004
aF0.001975
aF0.0005625
aF7.1875e-05
aF0.001403125
aF0.38263438
aF0.0
aF0.0
aF0.0
aF0.00041875
aF0.00053125
aF3.125e-06
aF0.036025
aF2.5e-05
aF4.6875e-05
aF0.0
aF0.007459379999999964
aF0.01363125
aF0.0826125
aF0.0018031299999999647
aF0.0008625
aF0.001184375
aF0.002728125
aF0.000228125
aF4.0625e-05
aF0.0011125
aF0.0
aF2.5e-05
aF6.25e-05
aF0.00011875
aF9.375e-06
aF0.00020625
aF0.0005125
aF0.000675
aF6.25e-06
aF0.00014375
aF8.4375e-05
aF0.0007125
aF0.000403125
aF0.00043125
aF1.25e-05
aF0.0008375
aF5.3125e-05
aF6.25e-06
aF9.375e-06
aF5.3125e-05
aF0.0001125
aF0.019390625
aF0.003721875
aF0.000115625
aF1.5625e-05
aF3.4375e-05
aF0.000253125
aF0.0
aF0.0
aF0.0
aF3.125e-06
aF3.125e-06
aF3.125e-06
aF0.0
aF0.0
aF0.0
aF0.0
aF3.125e-06
aF1.25e-05
aF2.5e-05
aF3.125e-06
aF9.375e-06
aF9.375e-06
aF1.25e-05
aF1.25e-05
aF0.00015625
aF2.8125e-05
aF5e-05
aF1.5625e-05
aF0.0002375
aF5.3125e-05
aF0.000209375
aF0.00155625
aF0.005209375
aF0.05521875
aF9.0625e-05
aF6.25e-06
aF6.25e-06
aF3.125e-06
aF2.8125e-05
aF9.375e-06
aF8.125e-05
aF5.625e-05
aF2.8125e-05
aF3.125e-05
aF2.8125e-05
aF0.0
aF0.0
aF5.9375e-05
aF2.5e-05
aF0.00023125
aF0.001571875
aF0.00211875
aF0.0
aF0.0
aF0.0
aF0.0
aF0.0
aF0.0
aF0.0
aF0.0
aF0.0
aF3.4375e-05
aF0.0011375
aF0.000121875
aF0.000121875
aF0.00085625
aF8.4375e-05
aF0.000721875
aF1.875e-05
aF6.875e-05
aF0.000646875
aF1.5625e-05
aF9.375e-06
aF4.0625e-05
aF3.125e-06
aF2.5e-05
aF7.1875e-05
aF0.00014375
aF0.00015625
aF7.8125e-05
aF0.0001
aF5.3125e-05
aF0.000603125
aF9.375e-05
aF0.004771875
aF0.000725
aF0.0021
aF0.05255625
aF0.0
aF0.0
aF0.000190625
aF6.25e-06
aF6.25e-06
aF0.00029375
aF9.0625e-05
aF0.00051875
aF8.125e-05
aF0.000259375
aF1.5625e-05
aF0.0
aF6.25e-06
aF0.000146875
aF0.000253125
aF0.0002625
aF0.000159375
aF0.00010625
aF3.4375e-05
aF5.3125e-05
aF0.00030625
aF6.25e-06
aF3.125e-06
aF0.0
aF0.0
aF3.125e-06
aF1.25e-05
aF9.375e-06
aF3.125e-06
aF1.25e-05
aF3.125e-06
aF3.125e-06
aF6.25e-06
aF6.25e-06
aF3.125e-06
aF3.125e-06
aF2.1875e-05
aF2.8125e-05
aF6.25e-06
aF3.125e-06
aF3.125e-06
aF3.125e-06
aF3.125e-06
aF0.00018125
aF0.000221875
aF3.125e-06
aF0.0
aF0.0
aF0.0
aF6.875e-05
aF0.00089375
aF0.00456875
aF0.002853125
aF0.000315625
aF0.00093125
aF0.000628125
aF0.001134375
aF0.000109375
aF0.00189375
aF0.0001875
aF0.0023
aF0.0
aF0.0
aF0.0
aF0.0
aF0.0001
aF0.0
aF9.375e-06
aF2.1875e-05
aF2.1875e-05
aF9.375e-05
aF0.00059375
aF0.00063125
aF4.6875e-05
aF0.001171875
aF1.5625e-05
aF1.25e-05
aF4.6875e-05
aF0.0010125
aF0.0001125
aF0.000128125
aF0.00011875
aF2.1875e-05
aF2.5e-05
aF3.125e-05
aF0.001053125
aF0.000275
aF0.01340625
aF0.001484375
aF0.003515625
aF0.0809875
aF0.03157813000000001
aF1.25e-05
aF3.75e-05
aF0.000409375
aF0.000715625
aF0.000334375
aF0.000184375
aF0.0001
aF0.002309375
aF0.000828125
aF0.0005
aF3.125e-06
aF9.375e-06
aF5.311999999998989e-05
aF0.0206625
aF0.0
aF0.000365625
aF0.000259375
aF0.001353125
aF9.375e-06
aF9.375e-06
aF3.125e-06
aF3.125e-06
aF3.125e-06
aF3.125e-06
aF3.125e-06
aF2.8125e-05
aF0.00015625
aF4.375e-05
aF9.0625e-05
aF0.0
aF3.125e-06
aF1.25e-05
aF3.125e-06
aF6.25e-06
aF2.8125e-05
aF2.1875e-05
aF3.125e-06
aF2.5e-05
aF3.75e-05
aF0.0001375
aF6.875e-05
aF0.000665625
aF6.25e-06
aF1.875e-05
aF0.000315625
aF3.4375e-05
aF0.000671875
aF0.175140625
aF1.25e-05
aF1.25e-05
aF9.375e-06
aF1.25e-05
aF4.0625e-05
aF0.0001
aF0.00026875
aF3.4375e-05
aF0.0
aF5.9375e-05
aF0.0001
aF4.6875e-05
aF0.00015625
aF0.00175
aF0.0
aF0.0
aF0.0
aF0.0
aF0.0
aF0.0
aF0.000396875
aF6.25e-06
aF0.000796875
aF0.002046875
aF3.125e-06
aF0.0
aF1.25e-05
aF9.375e-06
aF1.25e-05
aF9.375e-06
aF0.000425
aF0.000159375
aF4.375e-05
aF0.000109375
aF0.00145
aF0.000575
aF0.000628125
aF0.017340625
aF6.259999999929278e-06
aF2.812000000003536e-05
aF5.937999999996464e-05
aF2.812000000003536e-05
aF9.375e-06
aF3.125e-06
aF9.375e-06
aF0.003184375
aF0.0
aF0.0
aF0.000271875
aF1.5625e-05
aF0.0001375
aF3.125e-06
aF3.125e-06
aF2.5e-05
aF0.00021875
aF7.8125e-05
aF0.000340625
aF0.00024375
aF0.00195625
aF2.1875e-05
aF3.125e-06
aF9.375e-06
aF6.25e-06
aF6.25e-06
aF1.875e-05
aF1.25e-05
aF0.0
aF0.0
aF9.375e-06
aF3.75e-05
aF0.000153125
aF6.25e-06
aF4.0625e-05
aF5.9375e-05
aF5.625e-05
aF0.0
aF0.0
aF0.0
aF0.0
aF0.0
aF0.0
aF0.0
aF0.0
aF0.000590625
aF0.021528125
aF0.0
aF7.5e-05
aF2.5e-05
aF0.0001875
aF6.25e-06
aF1.5625e-05
aF6.25e-06
aF9.375e-06
aF0.000446875
aF0.0003
aF2.1875e-05
aF0.0
aF0.00731875
aF0.000184375
aF6.5625e-05
aF2.5e-05
aF0.000340625
aF5.3125e-05
aF0.00030625
aF0.0006
aF0.0286
aF0.0
aF0.0
aF0.0001
aF0.0015718799999999645
aF0.0005125
aF0.004625
aF0.00786874000000007
aF0.0
aF0.00019687999999996463
aF0.0
aF0.0
aF1.25e-05
aF0.0
aF0.0
aF0.000496875
aF0.28235624000000004
aF0.27638438
aF0.019696879999999965
aF0.0
aF0.0
aF0.000134375
aF0.003978125
aF0.0
aF0.0
aF0.0
aF0.0
aF6.25e-06
aF0.0
aF0.0003125
aF0.0
aF0.0
aF0.0
aF0.0
aF0.0
aF0.0
aF0.0
aF0.0
aF0.0
aF1.5625e-05
aF2.1875e-05
aF1.5625e-05
aF1.25e-05
aF5.3125e-05
aF0.000184375
aF0.000253125
aF0.00113125
aF0.0001
aF1.5625e-05
aF9.375e-06
aF0.0
aF3.125e-05
aF2.8125e-05
aF3.75e-05
aF0.000221875
aF0.002028125
aF0.0693125
aF0.0
aF0.0
aF0.00884375
aF0.0
aF0.0
aF0.0
aF0.0
aF0.0005625
aF3.125e-06
aF3.75e-05
aF0.00013125
aF9.6875e-05
aF5.625e-05
aF5.625e-05
aF0.00065
aF0.383543755
aF3.125e-05
aF0.000125
aF0.000265625
aF0.0001125
aF2.8125e-05
aF0.000640625
aF2.8125e-05
aF0.00428126000000002
aF0.0003156199999999899
aF0.00260625
aF0.0115
aF0.001171875
aF2.5e-05
aF1.5625e-05
aF0.0
aF0.0
aF0.0
aF3.125e-06
aF0.0
aF3.125e-06
aF3.4375e-05
aF6.25e-06
aF3.125e-06
aF2.5e-05
aF6.875e-05
aF0.00025625
aF0.00064375
aF0.00033125
aF0.005790625
aF1.25e-05
aF2.1875e-05
aF0.000196875
aF0.00041875
aF1.875e-05
aF0.00013125
aF0.000340625
aF0.000153125
aF0.000340625
aF0.000303125
aF0.008603125
aF0.014603125
aF6.25e-06
aF6.25e-06
aF2.1875e-05
aF0.0
aF3.125e-06
aF3.125e-06
aF7.1875e-05
aF3.4375e-05
aF0.00039375
aF0.0005
aF3.75e-05
aF0.0001125
aF3.125e-06
aF0.000275
aF3.125e-06
aF1.5625e-05
aF3.125e-06
aF0.00026875
aF0.000334375
aF0.0006
aF0.0
aF0.0
aF0.0
aF0.000403125
aF9.375e-06
aF0.00263125
aF0.000665625
aF0.000696875
aF0.00084375
aF0.001325
aF3.125e-06
aF1.875e-05
aF3.125e-06
aF6.25e-06
aF2.5e-05
aF9.375e-06
aF0.00045625
aF2.5e-05
aF0.005296875
aF6.5625e-05
aF9.375e-06
aF9.375e-06
aF6.25e-06
aF6.25e-06
aF0.0
aF9.375e-06
aF0.000296875
aF0.00015625
aF0.0
aF0.0
aF0.0008625
aF0.000584375
aF0.0
aF0.002496875
aF0.0
aF0.0
aF0.0
aF0.0
aF0.0
aF0.0
aF0.0
aF0.0
aF0.0
aF0.0
aF0.0
aF0.0
aF2.1875e-05
aF0.15510625
aF1.875e-05
aF0.0
aF0.001090625
aF0.016365625
aF0.004621875
aF0.000521875
aF0.0036125
aF0.006871875
aF9.061999999998989e-05
aF1.875e-05
aF2.8125e-05
aF7.8125e-05
aF4.6875e-05
aF0.003259375
aF0.000828125
aF0.00538125
aF0.001790625
aF3.4375e-05
aF0.000625
aF0.00176875
aF0.002425
aF0.000703125
aF0.0
aF0.0
aF0.0
aF0.0
aF0.0
aF0.0
aF0.0
aF0.0
aF0.0
aF9.375e-06
aF6.25e-06
aF1.5625e-05
aF0.0
aF0.0
aF0.000134375
aF0.00046875
aF0.000484375
aF4.375e-05
aF6.875e-05
aF0.0
aF0.0
aF3.75e-05
aF9.375e-06
aF8.75e-05
aF0.0001875
aF0.001465625
aF0.0
aF0.0002625
aF7.5e-05
aF0.0
aF0.0
aF0.0
aF0.001046875
aF0.0
aF3.125e-06
aF0.0
aF6.25e-06
aF3.125e-06
aF0.0
aF0.0
aF1.25e-05
aF0.0
aF0.0
aF0.0
aF3.125e-06
aF0.0
aF0.0
aF3.125e-06
aF1.25e-05
aF3.125e-06
aF0.0
aF9.375e-06
aF3.125e-06
aF0.0
aF3.125e-06
aF0.000278125
aF2.8125e-05
aF6.25e-05
aF2.1875e-05
aF0.000328125
aF6.25e-06
aF8.75e-05
aF0.0
aF3.125e-06
aF0.0
aF9.375e-06
aF3.125e-06
aF0.0
aF0.0
aF9.375e-06
aF7.1875e-05
aF2.1875e-05
aF3.4375e-05
aF0.00104375
aF0.0
aF0.0
aF0.0
aF0.0
aF0.0
aF0.0
aF1.875e-05
aF0.000175
aF0.0002375
aF1.5625e-05
aF5.625e-05
aF3.4375e-05
aF0.000328125
aF5e-05
aF0.0
aF0.0
aF2.8125e-05
aF6.5625e-05
aF0.00013125
aF0.000403125
aF0.000290625
aF4.375e-05
aF3.125e-06
aF3.75e-05
aF0.000340625
aF9.0625e-05
aF0.00275625
aF0.28471562
aF5e-05
aF0.00028125
aF0.0001375
aF0.00063125
aF0.007646875
aF0.0
aF0.0
aF0.0
aF0.0
aF0.0
aF9.375e-06
aF2.1875e-05
aF0.0
aF0.00288125
aF9.375e-06
aF5e-05
aF0.015575
aF3.4375e-05
aF0.0
aF0.0
aF0.0
aF3.125e-05
aF5e-05
aF1.25e-05
aF0.000134375
aF3.125e-06
aF6.25e-06
aF3.75e-05
aF1.5625e-05
aF8.75e-05
aF0.0004375
aF0.02226561999999999
aF0.12490625
aF0.00025
aF4.375e-05
aF3.1199999999898866e-06
aF0.0
aF6.260000000020227e-06
aF6.239999999979773e-06
aF1.5630000000010115e-05
aF6.25e-05
aF0.000825
aF0.088225
aF0.22539375
aF0.021965620000000036
aF0.036834379999999965
aF0.11188437999999996
aF0.0007062400000000707
aF0.00015
aF0.00020312999999996464
aF3.129999999964639e-06
aF2.5e-05
aF0.0002593700000000354
aF0.00135625
aF0.0107625
aF0.000525
aF0.000315625
aF0.0054
aF0.0
aF0.0
aF0.0
aF0.026340625
aF6.25e-05
aF9.375e-06
aF4.0625e-05
aF0.000365625
aF0.00066875
aF0.0
aF0.0
aF0.0
aF0.0
aF0.0
aF0.0
aF0.0
aF0.0
aF0.0
aF0.0
aF0.0
aF0.0
aF0.0
aF0.0
aF0.0
aF3.125e-06
aF1.25e-05
aF9.375e-06
aF3.125e-06
aF0.0
aF5.3125e-05
aF0.06428437999999996
aF7.1875e-05
aF3.125e-06
aF2.5e-05
aF3.75e-05
aF0.002253125
aF0.0
aF1.5625e-05
aF0.0
aF0.0
aF0.00019375
aF0.000425
aF0.000296875
aF6.25e-06
aF4.0625e-05
aF0.00010625
aF1.875e-05
aF4.375e-05
aF0.00015625
aF0.000425
aF0.0
aF3.125e-06
aF1.5625e-05
aF9.375e-06
aF0.0
aF3.125e-06
aF9.375e-06
aF0.0
aF3.125e-06
aF3.125e-06
aF0.0012875
aF1.25e-05
aF3.125e-06
aF3.125e-06
aF1.5625e-05
aF0.00014375
aF0.00090625
aF4.6875e-05
aF0.000184375
aF0.000315625
aF0.0
aF9.6875e-05
aF0.000540625
aF8.125e-05
aF0.000228125
aF0.00045625
aF3.125e-06
aF1.25e-05
aF9.375e-06
aF3.125e-06
aF1.25e-05
aF0.0
aF3.125e-06
aF0.0
aF9.375e-06
aF0.00016875
aF0.0
aF0.0005375
aF9.375e-06
aF0.00049375
aF0.0
aF9.375e-06
aF3.125e-05
aF0.001109375
aF0.00109375
aF0.000878125
aF0.005653125
aF2.1875e-05
aF3.4375e-05
aF0.000234375
aF0.0
aF0.0
aF0.0
aF0.0
aF0.0
aF0.0
aF0.0
aF0.0
aF0.00064375
aF0.0
aF7.5e-05
aF0.00035
aF0.004884375
aF0.001415625
aF0.0
aF0.0
aF0.0
aF0.0
aF0.0
aF0.0
aF0.0
aF8.75e-05
aF0.051203125
aF0.0
aF0.0
aF0.0
aF0.0
aF0.0
aF0.0
aF0.0
aF3.125e-05
aF9.375e-06
aF5.3125e-05
aF2.8125e-05
aF2.5e-05
aF0.000459375
aF0.0
aF2.5e-05
aF4.375e-05
aF0.000296875
aF0.071634375
aF0.00090625
aF0.0216
aF6.875e-05
aF9.375e-06
aF3.125e-06
aF1.25e-05
aF2.5e-05
aF0.000115625
aF8.4375e-05
aF5.625e-05
aF0.000128125
aF0.00111875
aF3.125e-05
aF0.00040625
aF6.5625e-05
aF0.000409375
aF0.0
aF0.0
aF0.0
aF0.0
aF0.0
aF0.0
aF0.0
aF0.00016875
aF0.0
aF0.0
aF6.25e-06
aF0.0
aF6.25e-06
aF2.8125e-05
aF9.375e-06
aF1.5625e-05
aF3.75e-05
aF1.5625e-05
aF0.00010625
aF5e-05
aF0.000121875
aF4.0625e-05
aF0.000246875
aF7.1875e-05
aF6.25e-06
aF0.000275
aF0.000265625
aF0.00031875
aF7.1875e-05
aF0.0002625
aF5.3125e-05
aF0.00046875
aF0.001875
aF0.001209375
aF0.001071875
aF0.001296875
aF0.0002
aF0.0006375
aF0.00461875
aF0.00065625
aF0.015071875
aF0.000809375
aF2.8125e-05
aF0.000525
aF0.0
aF0.00036875
aF6.25e-06
aF0.0
aF5.625e-05
aF0.000390625
aF0.00034375
aF0.0002
aF4.375e-05
aF0.000225
aF0.000309375
aF0.0002875
aF3.125e-06
aF2.5e-05
aF3.125e-06
aF3.125e-06
aF9.375e-06
aF1.25e-05
aF4.6875e-05
aF9.375e-06
aF9.375e-06
aF0.000259375
aF0.000903125
aF0.0
aF0.0
aF0.0
aF1.875e-05
aF3.4375e-05
aF0.000565625
aF0.0
aF6.25e-06
aF0.000146875
aF0.0
aF3.125e-06
aF6.25e-06
aF0.0
aF6.25e-06
aF0.0
aF3.125e-06
aF3.125e-06
aF0.0
aF3.75e-05
aF0.0
aF1.875e-05
aF0.000125
aF0.000478125
aF0.001328125
aF1.5630000000010115e-05
aF0.0
aF0.0
aF0.0
aF0.0
aF0.005265625
aF0.0
aF0.002296875
aF0.000146875
aF9.375e-06
aF3.125e-06
aF9.375e-06
aF0.0
aF3.125e-06
aF1.25e-05
aF0.000103125
aF6.25e-06
aF0.0
aF0.00014375
aF0.01304375
aF0.07203125
aF0.003625
aF0.0
aF0.002209375
aF3.125e-06
aF0.0
aF3.125e-06
aF0.000125
aF0.00195625
aF0.0020125
aF0.00143125
aF0.0006875
aF0.00030625
aF0.001575
aF0.000178125
aF6.25e-06
aF5.9375e-05
aF0.00014375
aF5.9375e-05
aF0.000234375
aF0.00066875
aF0.00038125
aF4.0625e-05
aF0.0005375
aF0.0
aF1.5625e-05
aF6.25e-06
aF1.5625e-05
aF6.25e-06
aF1.5625e-05
aF0.0
aF0.0
aF1.25e-05
aF5.3125e-05
aF0.0
aF0.0
aF1.875e-05
aF3.4375e-05
aF0.00025625
aF5.3125e-05
aF0.000896875
aF0.000109375
aF0.00039375
aF0.00016875
aF6.5625e-05
aF3.75e-05
aF0.000134375
aF0.00010625
aF0.0
aF0.000125
aF0.0001375
aF0.000134375
aF0.000528125
aF0.000115625
aF0.00024375
aF0.000128125
aF0.000259375
aF0.004071875
aF0.04845625
aF0.07939062
aF0.0013562600000000201
aF0.0013375
aF0.02123123999999998
aF1.25e-05
aF0.0
aF3.4375e-05
aF1.875e-05
aF2.8125e-05
aF3.125e-05
aF0.0005625
aF0.0013875
aF0.0
aF0.0
aF0.0
aF3.125e-06
aF6.25e-06
aF0.0
aF0.0
aF3.125e-06
aF9.375e-06
aF3.125e-06
aF1.5625e-05
aF1.25e-05
aF6.25e-06
aF6.25e-06
aF0.0008375
aF3.125e-06
aF3.125e-06
aF1.5625e-05
aF0.000175
aF8.75e-05
aF0.000978125
aF0.0
aF0.0
aF2.1875e-05
aF0.000684375
aF0.0001312000000001717
aF5.939999999973224e-05
aF0.0004688000000001921
aF0.001028099999999904
aF0.0
aF0.0
aF0.000478125
aF0.005984375
aF0.006190625
aF0.106209375
aF0.001171875
aF6.25e-06
aF0.000275
aF0.002034375
aF3.125e-05
aF6.25e-06
aF6.25e-06
aF9.375e-06
aF2.1875e-05
aF5e-05
aF0.0
aF3.125e-06
aF3.125e-06
aF6.25e-06
aF1.5625e-05
aF0.0
aF0.0
aF3.125e-06
aF3.125e-06
aF6.25e-06
aF6.25e-06
aF5.3125e-05
aF0.0
aF0.0
aF0.0
aF6.25e-06
aF6.25e-06
aF6.25e-06
aF5e-05
aF0.000121875
aF0.0
aF0.019409375
aF0.0
aF0.0
aF3.125e-06
aF0.0
aF3.125e-06
aF0.0
aF2.1875e-05
aF0.000146875
aF0.0003
aF6.25e-05
aF0.0003375
aF0.0001875
aF0.000553125
aF0.000325
aF0.00203125
aF0.000690625
aF0.0
aF3.125e-06
aF0.0
aF0.0
aF1.25e-05
aF6.25e-06
aF6.25e-06
aF1.25e-05
aF3.125e-06
aF1.5625e-05
aF2.5e-05
aF0.00011875
aF7.5e-05
aF0.3210125
aF0.00139375
aF6.25e-06
aF3.4375e-05
aF1.25e-05
aF0.000259375
aF9.375e-06
aF3.125e-05
aF5.3125e-05
aF0.0002625
aF3.125e-06
aF3.125e-06
aF3.125e-06
aF3.125e-06
aF3.125e-06
aF9.375e-06
aF3.125e-06
aF6.25e-06
aF3.125e-06
aF0.000225
aF0.00013125
aF8.75e-05
aF1.25e-05
aF0.0
aF1.5625e-05
aF6.25e-06
aF3.125e-06
aF0.0
aF1.25e-05
aF6.25e-06
aF6.25e-06
aF0.0
aF3.125e-06
aF3.4375e-05
aF3.4375e-05
aF3.125e-06
aF9.375e-06
aF3.125e-06
aF0.00013125
aF0.000878125
aF0.001234375
aF5.3125e-05
aF9.0625e-05
aF9.375e-06
aF2.1875e-05
aF3.75e-05
aF1.875e-05
aF0.0
aF0.0
aF2.1875e-05
aF0.00033125
aF2.1875e-05
aF6.25e-06
aF1.5625e-05
aF0.0
aF1.25e-05
aF3.125e-06
aF3.125e-06
aF2.8125e-05
aF3.125e-06
aF3.125e-05
aF3.4375e-05
aF3.4375e-05
aF3.125e-06
aF0.0
aF0.000259375
aF3.125e-06
aF0.001109375
aF1.25e-05
aF8.75e-05
aF8.125e-05
aF0.00111875
aF0.000778125
aF0.0
aF1.5625e-05
aF0.0
aF1.25e-05
aF3.125e-06
aF1.875e-05
aF1.25e-05
aF0.000134375
aF3.125e-06
aF3.125e-06
aF0.0
aF3.125e-06
aF0.0
aF3.125e-06
aF0.0
aF0.0
aF0.0
aF3.125e-06
aF9.375e-06
aF3.125e-06
aF0.0
aF3.125e-06
aF0.0
aF3.125e-06
aF4.375e-05
aF6.25e-06
aF9.0625e-05
aF4.0625e-05
aF6.25e-06
aF2.1875e-05
aF4.6875e-05
aF1.5625e-05
aF0.0
aF9.375e-06
aF2.1875e-05
aF2.1875e-05
aF8.4375e-05
aF1.5625e-05
aF0.000103125
aF9.375e-06
aF3.125e-06
aF0.000146875
aF0.000446875
aF0.000184375
aF2.1875e-05
aF1.875e-05
aF6.25e-06
aF0.171428125
aF0.0
aF0.0
aF3.125e-06
aF3.125e-06
aF1.875e-05
aF9.375e-06
aF6.25e-06
aF2.5e-05
aF7.1875e-05
aF5.625e-05
aF0.0
aF3.125e-06
aF6.25e-06
aF7.1875e-05
aF1.5625e-05
aF1.5625e-05
aF9.375e-06
aF0.000521875
aF0.0
aF3.125e-06
aF3.75e-05
aF0.00120625
aF0.0049
aF0.0
aF3.125e-05
aF0.0
aF0.0
aF1.875e-05
aF9.375e-06
aF0.0
aF9.375e-06
aF9.375e-06
aF6.25e-06
aF6.25e-06
aF3.125e-06
aF0.0
aF0.0
aF0.0
aF3.125e-06
aF0.0
aF2.1875e-05
aF0.000940625
aF0.0
aF2.8125e-05
aF8.75e-05
aF9.375e-06
aF5e-05
aF2.1875e-05
aF0.000428125
aF0.000203125
aF0.004003125
aF0.00176875
aF5.3125e-05
aF0.000475
aF0.003428125
aF0.00035625
aF0.0001375
aF0.000615625
aF3.75e-05
aF0.00170625
aF0.000690625
aF0.0
aF0.0
aF9.6875e-05
aF0.000159375
aF0.0
aF0.0
aF1.25e-05
aF0.0
aF9.375e-05
aF0.00380625
aF1.875e-05
aF0.000621875
aF6.25e-06
aF4.0625e-05
aF0.000171875
aF0.001828125
aF0.000771875
aF0.0
aF0.0
aF0.000278125
aF0.000259375
aF0.00018125
aF1.25e-05
aF0.000771875
aF0.000365625
aF0.0
aF0.0
aF0.0
aF0.0
aF3.125e-06
aF6.25e-06
aF3.125e-06
aF6.25e-06
aF0.0
aF0.0
aF6.25e-06
aF0.0
aF3.125e-06
aF0.0
aF1.25e-05
aF0.0
aF5e-05
aF0.000265625
aF0.000221875
aF4.0625e-05
aF0.001021875
aF0.006321875
aF0.00185
aF0.003003125
aF0.000109375
aF0.0001125
aF5.625e-05
aF0.000159375
aF0.000715625
aF0.0091125
aF0.0004
aF0.00095625
aF0.000871875
aF0.000675
aF0.00011875
aF0.0
aF0.0
aF0.0
aF0.000334375
aF0.00025
aF0.0
aF0.0
aF0.0
aF0.02021875
aF0.000109375
aF0.0
aF2.1875e-05
aF0.0
aF0.0
aF3.4375e-05
aF3.75e-05
aF0.000778125
aF0.001059375
aF0.0
aF9.375e-06
aF0.0002125
aF4.0625e-05
aF0.0002875
aF0.0
aF9.375e-06
aF6.25e-06
aF6.25e-06
aF3.125e-06
aF1.5625e-05
aF2.1875e-05
aF0.0
aF6.25e-06
aF9.375e-06
aF0.0
aF9.375e-06
aF2.1875e-05
aF5e-05
aF0.000140625
aF6.5625e-05
aF0.001146875
aF7.5e-05
aF1.5625e-05
aF3.125e-06
aF2.8125e-05
aF2.1875e-05
aF0.000521875
aF2.1875e-05
aF0.00058125
aF0.0034
aF0.00465
aF0.0
aF0.0
aF0.0
aF0.0
aF0.0
aF0.0
aF0.0
aF0.000115625
aF0.000284375
aF0.000128125
aF9.375e-06
aF6.25e-06
aF6.25e-06
aF6.25e-06
aF6.25e-06
aF9.375e-06
aF2.5e-05
aF8.75e-05
aF6.875e-05
aF3.75e-05
aF2.5e-05
aF8.4375e-05
aF0.000853125
aF0.000621875
aF0.0
aF0.000271875
aF0.000328125
aF6.25e-06
aF0.00060625
aF0.000984375
aF0.106828125
aF0.11024061999999998
aF0.01460938000000001
aF0.00041561999999998987
aF0.25133438
aF0.0003656200000000354
aF0.025868759999999928
aF0.0
aF1.874000000007072e-05
aF0.0003062599999999293
aF0.000175
aF0.0018468700000000354
aF0.001253125
aF0.00023125
aF0.0
aF0.0
aF0.002875
aF0.000246875
aF6.25e-06
aF0.0
aF0.0
aF0.0
aF3.4375e-05
aF9.375e-06
aF2.1875e-05
aF1.25e-05
aF4.0625e-05
aF0.000115625
aF4.0625e-05
aF2.1875e-05
aF9.375e-06
aF6.25e-06
aF1.25e-05
aF0.059265629999999965
aF0.3094031499999999
aF0.0
aF3.125e-06
aF3.125e-06
aF0.0
aF3.125e-06
aF0.0
aF6.25e-06
aF6.25e-06
aF3.125e-06
aF3.125e-06
aF0.002203125
aF9.375e-06
aF5.9375e-05
aF0.00048125
aF0.000203125
aF0.0
aF0.00385
aF0.006178125
aF9.375e-06
aF6.25e-05
aF0.0010625
aF0.0006375
aF5.625e-05
aF0.000265625
aF0.00036875
aF0.000746875
aF0.035021875
aF0.45875625
aF5.625e-05
aF0.000478125
aF1.25e-05
aF0.000175
aF0.0001125
aF0.00039375
aF0.000471875
aF7.5e-05
aF0.0008375
aF0.00014375
aF1.5625e-05
aF0.000434375
aF0.001615625
aF1.5625e-05
aF4.6875e-05
aF3.125e-06
aF4.375e-05
aF0.0
aF1.25e-05
aF0.0
aF0.0
aF0.0
aF0.0
aF0.0
aF0.0
aF0.0
aF0.0
aF0.0
aF7.5e-05
aF2.8125e-05
aF7.8125e-05
aF3.75e-05
aF0.0006125
aF0.000128125
aF0.00113125
aF0.00015625
aF0.002421875
aF0.761575005
aF3.125e-06
aF0.0001375
aF0.0
aF0.000175
aF6.25e-06
aF0.0
aF6.25e-06
aF3.125e-05
aF0.000209375
aF0.0
aF0.0
aF0.0
aF0.0
aF0.0
aF0.0
aF0.0
aF0.0
aF0.0
aF0.0
aF0.0
aF0.0
aF0.0
aF0.0
aF0.0
aF0.0
aF0.0
aF3.125e-06
aF6.25e-06
aF0.0
aF1.5625e-05
aF2.1875e-05
aF1.5625e-05
aF0.000196875
aF9.375e-06
aF6.5625e-05
aF0.000246875
aF0.012896869999999989
aF0.01595313000000001
aF0.0119625
aF0.023025
aF0.08055
aF0.10791561999999999
aF0.01453438000000001
aF0.00014061999999998988
aF0.00070625
aF0.09840312999999996
aF0.2901625
aF0.004131240000000071
aF0.0017875
aF0.052384379999999967
aF0.0
aF0.002425
aF0.000109375
aF0.002709375
aF0.00025
aF2.1875e-05
aF3.125e-06
aF0.0002125
aF6.25e-05
aF5.9375e-05
aF5e-05
aF1.25e-05
aF0.001590625
aF0.0
aF0.0009625
aF0.004009375
aF0.164084375
aF0.0104625
aF0.0012875
aF0.0022125
aF0.01601875
aF0.13161875
aF3.1300000000101137e-06
aF0.01020311999999999
aF0.00122188000000001
aF0.0017093699999999898
aF0.06743125
aF0.04519375
aF0.009334370000000035
aF0.024125
aF0.28155313
aF0.034496850000000086
aF0.464959375
aF0.13864062000000005
aF0.003946879999999964
aF0.024025
aF0.00021875
aF0.00012812999999996464
aF3.125e-06
aF0.0
aF0.0
aF3.125e-06
aF0.0
aF9.375e-06
aF0.0
aF9.6875e-05
aF0.000259375
aF2.5e-05
aF0.00026875
aF0.000246875
aF0.00135625
aF0.00655
aF0.000421875
aF0.0
aF4.375e-05
aF0.0004
aF0.000234375
aF0.001590625
aF0.00010625
aF0.00010625
aF0.0
aF0.0
aF0.0
aF0.0
aF0.0
aF0.0
aF5.9375e-05
aF2.8125e-05
aF0.001246875
aF0.0
aF0.0
aF0.00138125
aF3.1199999999898866e-06
aF3.1199999999898866e-06
aF5e-05
aF3.75e-05
aF1.5630000000010115e-05
aF9.369999999989887e-06
aF3.1300000000101137e-06
aF0.0
aF0.0
aF6.25e-06
aF3.1199999999898866e-06
aF0.0
aF6.260000000020227e-06
aF9.369999999989887e-06
aF3.1300000000101137e-06
aF3.1199999999898866e-06
aF3.1199999999898866e-06
aF0.0
aF3.1300000000101137e-06
aF3.1300000000101137e-06
aF0.0
aF3.1199999999898866e-06
aF3.1199999999898866e-06
aF3.4380000000010116e-05
aF0.0001125
aF0.0005156199999999899
aF0.00136563000000001
aF0.00729375
aF2.1875e-05
aF1.5625e-05
aF1.25e-05
aF6.25e-06
aF3.125e-06
aF9.375e-06
aF8.125e-05
aF0.00045625
aF0.00036875
aF0.000475
aF0.000753125
aF0.0001625
aF9.375e-06
aF6.5625e-05
aF9.375e-06
aF3.125e-06
aF2.8125e-05
aF0.00073125
aF0.000228125
aF0.00055625
aF0.0
aF0.001215625
aF0.0003125
aF0.0
aF0.0
aF9.375e-06
aF0.00796875
aF0.0090625
aF3.4375e-05
aF0.00013125
aF0.000940625
aF0.005121875
aF1.25e-05
aF6.5625e-05
aF2.8125e-05
aF0.00045625
aF3.125e-06
aF0.000159375
aF0.007059375
aF0.000190625
aF0.003053125
aF0.007478125
aF2.1875e-05
aF3.125e-06
aF3.125e-06
aF3.125e-06
aF9.6875e-05
aF1.5625e-05
aF4.375e-05
aF2.8125e-05
aF3.125e-06
aF9.375e-06
aF9.375e-06
aF3.125e-06
aF3.125e-06
aF3.4375e-05
aF3.125e-05
aF3.75e-05
aF6.875e-05
aF0.000571875
aF0.005015625
aF0.000128125
aF0.000146875
aF0.0007375
aF0.003275
aF0.00066875
aF0.003303125
aF0.0
aF0.006959375
aF6.25e-06
aF3.125e-05
aF1.5625e-05
aF3.125e-05
aF4.375e-05
aF4.375e-05
aF3.125e-06
aF0.00015625
aF1.5625e-05
aF3.125e-06
aF1.5625e-05
aF0.000153125
aF0.000465625
aF0.00055
aF9.6875e-05
aF6.5625e-05
aF0.01670625
aF0.07183438
aF0.04685936999999999
aF0.101025
aF0.0226375
aF0.05854375
aF0.10224375
aF0.024303129999999964
aF0.05386562000000004
aF0.03654375
aF1.25e-05
aF3.125e-06
aF9.375e-06
aF1.5625e-05
aF2.1875e-05
aF9.375e-06
aF0.0
aF0.0
aF0.0
aF0.000103125
aF0.00015625
aF0.0001125
aF6.5625e-05
aF0.000309375
aF0.0
aF9.375e-06
aF6.25e-06
aF1.25e-05
aF3.125e-06
aF3.125e-06
aF3.125e-06
aF0.0
aF0.000159375
aF4.375e-05
aF0.0
aF0.0077375
aF0.06325
aF0.21233125
aF0.188075
aF0.09910312000000003
aF0.03286875999999993
aF0.003109375
aF0.009834375
aF0.001384375
aF0.00054375
aF0.000371875
aF0.0001
aF0.0002
aF5e-05
aF0.004453125
aF0.0019
aF0.0084625
aF0.001559375
aF3.4375e-05
aF1.5625e-05
aF0.0001
aF0.00014375
aF0.0
aF3.125e-06
aF5.3125e-05
aF0.00015625
aF0.0
aF1.5625e-05
aF0.0
aF9.375e-06
aF6.25e-06
aF6.25e-06
aF0.000503125
aF0.0002
aF0.000153125
aF2.1875e-05
aF9.375e-06
aF0.000115625
aF0.0005625
aF4.6875e-05
aF0.005284375
aF0.12989376000000002
aF5.311999999998989e-05
aF0.0
aF2.8119999999989885e-05
aF0.0001625
aF0.0006687600000000202
aF7.186999999998989e-05
aF5.9369999999989886e-05
aF9.380000000010114e-06
aF6.25e-06
aF6.25e-05
aF2.8130000000010114e-05
aF2.1869999999989885e-05
aF6.875e-05
aF7.5e-05
aF5e-05
aF0.008625
aF0.0017093800000000101
aF0.534975
aF0.0
aF0.00034375
aF3.75e-05
aF0.0
aF3.125e-06
aF0.000990625
aF1.25e-05
aF0.000403125
aF0.00015625
aF1.875e-05
aF0.000178125
aF0.000221875
aF0.0
aF0.0
aF6.875e-05
aF0.000103125
aF0.0001125
aF0.00138125
aF0.000153125
aF2.8125e-05
aF3.125e-06
aF0.00439375
aF0.0063
aF0.1599125
aF0.0
aF2.1875e-05
aF2.1875e-05
aF6.25e-06
aF9.375e-05
aF0.00013125
aF6.25e-06
aF0.000121875
aF0.00026875
aF0.000525
aF0.0024125
aF1.875e-05
aF0.0
aF1.25e-05
aF4.0625e-05
aF0.000109375
aF6.25e-06
aF0.000103125
aF2.5e-05
aF6.25e-05
aF1.5625e-05
aF6.25e-05
aF0.00403125
aF1.875e-05
aF6.25e-06
aF6.25e-06
aF2.8125e-05
aF3.75e-05
aF8.75e-05
aF9.6875e-05
aF0.0006125
aF0.0008125
aF0.0
aF0.000425
aF0.0
aF3.125e-06
aF5e-05
aF7.1875e-05
aF3.75e-05
aF0.019365625
aF0.001553125
aF0.243396875
aF0.0017343800000000102
aF0.35485937
aF0.00200625
aF0.0
aF0.0
aF6.25e-06
aF1.25e-05
aF0.00015625
aF0.067571875
aF0.0037375
aF0.042125
aF4.0625e-05
aF0.0002875
aF4.375e-05
aF3.125e-06
aF8.4375e-05
aF9.375e-06
aF0.00028125
aF0.0001
aF0.000653125
aF0.0001375
aF0.000221875
aF3.125e-06
aF9.375e-06
aF6.25e-06
aF1.25e-05
aF1.25e-05
aF0.0346125
aF0.000284375
aF1.875e-05
aF0.0
aF6.25e-06
aF8.4375e-05
aF3.125e-06
aF4.375e-05
aF1.5625e-05
aF0.00036875
aF5.9375e-05
aF0.01013125
aF0.001284375
aF0.000240625
aF0.000709375
aF0.001734375
aF1.5625e-05
aF0.0
aF3.125e-06
aF2.5e-05
aF4.0625e-05
aF6.5625e-05
aF4.6875e-05
aF6.25e-06
aF0.000390625
aF0.00123125
aF0.00049375
aF0.0
aF0.00201875
aF0.0
aF2.5e-05
aF0.0
aF0.0
aF0.0
aF0.0
aF3.125e-06
aF6.25e-06
aF6.25e-06
aF0.0
aF6.25e-06
aF0.0
aF9.375e-06
aF9.375e-06
aF3.125e-06
aF3.125e-06
aF3.125e-06
aF3.125e-06
aF1.5625e-05
aF0.000125
aF0.000134375
aF0.00014375
aF0.000115625
aF2.1875e-05
aF0.0
aF0.0
aF0.0
aF0.0
aF0.0
aF0.00021875
aF2.5e-05
aF3.125e-05
aF0.000325
aF0.0
aF1.5625e-05
aF2.5e-05
aF0.00120625
aF1.875e-05
aF1.5625e-05
aF0.000353125
aF0.000159375
aF0.00059375
aF8.4375e-05
aF0.0
aF0.0
aF9.375e-06
aF0.0
aF9.0625e-05
aF0.0
aF0.00165625
aF6.25e-05
aF3.4375e-05
aF0.00018125
aF0.000346875
aF0.000153125
aF1.25e-05
aF0.128081255
aF0.000825
aF0.0001625
aF0.0021843799999999645
aF3.1200000000353613e-06
aF0.0001125
aF0.0
aF0.0
aF0.0020125
aF0.00056875
aF3.125e-05
aF9.375e-06
aF3.75e-05
aF3.75e-05
aF2.5e-05
aF1.25e-05
aF8.75e-05
aF7.5e-05
aF2.1875e-05
aF0.000103125
aF5.9375e-05
aF4.375e-05
aF2.1875e-05
aF6.25e-06
aF7.8125e-05
aF0.0
aF9.375e-06
aF0.0002125
aF0.000553125
aF0.00295625
aF0.004753125
aF6.5625e-05
aF1.875e-05
aF2.5e-05
aF7.8125e-05
aF4.375e-05
aF3.75e-05
aF5.9375e-05
aF0.000184375
aF0.000515625
aF0.00116875
aF8.4375e-05
aF5.9375e-05
aF0.000140625
aF5.625e-05
aF7.1875e-05
aF0.0286875
aF0.12248125500000001
aF1.25e-05
aF0.03080936999999999
aF0.000325
aF8.436999999998988e-05
aF0.0004562600000000202
aF0.0
aF6.873999999997978e-05
aF0.0001
aF3.4380000000010116e-05
aF0.00064375
aF0.08413436999999999
aF0.03879063000000001
aF0.015346875
aF0.006621875
aF0.00983125
aF0.00091875
aF1.5625e-05
aF3.75e-05
aF2.8125e-05
aF0.000109375
aF0.00065
aF0.00054375
aF0.00055625
aF0.000625
aF0.001896875
aF0.00080625
aF0.0019875
aF0.0
aF1.875e-05
aF0.00019375
aF1.5625e-05
aF3.4375e-05
aF0.0
aF8.125e-05
aF0.00093125
aF0.0
aF0.00213125
aF0.00061875
aF5.625e-05
aF6.25e-06
aF1.25e-05
aF6.5625e-05
aF9.375e-06
aF0.0001625
aF0.00014375
aF0.000159375
aF0.000775
aF0.0
aF0.0
aF0.0
aF0.0
aF3.125e-06
aF0.0
aF9.375e-06
aF0.0
aF6.25e-06
aF0.0
aF2.1875e-05
aF3.125e-06
aF3.125e-06
aF9.375e-06
aF1.5625e-05
aF9.0625e-05
aF0.000240625
aF0.00015625
aF0.0012625
aF0.000490625
aF0.001003125
aF0.001178125
aF0.000425
aF0.000265625
aF0.000203125
aF0.0003375
aF6.5625e-05
aF0.0030125
aF0.00028125
aF0.0
aF0.0
aF3.4375e-05
aF0.000103125
aF0.000475
aF0.001090625
aF0.01661876000000002
aF4.0619999999989884e-05
aF0.00109375
aF0.00203125
aF1.875e-05
aF0.0
aF0.0
aF0.0
aF7.1875e-05
aF0.0
aF0.0
aF0.0
aF0.0
aF0.0
aF0.0
aF1.25e-05
aF0.000109375
aF4.0625e-05
aF0.000459375
aF3.75e-05
aF6.25e-05
aF0.0
aF0.00016875
aF0.0001375
aF1.5625e-05
aF6.875e-05
aF0.000290625
aF6.5625e-05
aF0.002040625
aF0.000209375
aF0.008025
aF0.070821875
aF0.04319999499999999
aF0.003484375
aF0.000678125
aF0.0
aF5e-05
aF6.25e-06
aF2.1875e-05
aF0.000153125
aF0.00069375
aF0.0
aF0.0
aF0.0
aF0.001775
aF0.000353125
aF0.0038375
aF0.001275
aF4.0625e-05
aF0.011971875
aF0.0
aF0.0
aF0.0
aF0.0
aF0.0
aF3.125e-06
aF0.0
aF3.125e-06
aF3.125e-06
aF3.125e-06
aF0.0
aF3.125e-06
aF0.0
aF0.0
aF0.0
aF4.375e-05
aF3.125e-06
aF2.5e-05
aF2.8125e-05
aF6.25e-06
aF3.125e-06
aF1.5625e-05
aF7.8125e-05
aF0.000484375
aF0.000415625
aF9.0625e-05
aF3.125e-06
aF0.00511875
aF9.375e-06
aF1.25e-05
aF1.875e-05
aF0.000196875
aF0.0
aF0.000175
aF0.0
aF0.0
aF3.125e-05
aF0.00126875
aF2.5e-05
aF1.5625e-05
aF6.25e-06
aF0.0
aF9.375e-06
aF0.0
aF6.25e-06
aF1.875e-05
aF1.875e-05
aF2.1875e-05
aF3.125e-05
aF1.5625e-05
aF2.8125e-05
aF0.00031875
aF3.149999999914144e-06
aF3.149999999914144e-06
aF6.200000000171713e-06
aF6.299999999828288e-06
aF9.350000000085856e-06
aF2.1850000000085858e-05
aF2.1899999999914145e-05
aF0.0
aF3.1000000000858565e-06
aF4.379999999982829e-05
aF0.0006968500000000858
aF0.00028435000000008587
aF0.0020125
aF0.002190625
aF2.8125e-05
aF3.125e-06
aF0.000359375
aF0.000934375
aF1.562000000003536e-05
aF5.3129999999964636e-05
aF3.129999999964639e-06
aF3.1200000000353613e-06
aF6.25e-06
aF2.187000000003536e-05
aF1.25e-05
aF9.379999999964638e-06
aF6.25e-06
aF6.25e-06
aF2.5e-05
aF7.187999999996464e-05
aF1.874000000007072e-05
aF0.0001125
aF0.00019687999999996463
aF9.687999999996464e-05
aF0.0
aF4.374000000007072e-05
aF0.0001
aF9.062999999996463e-05
aF0.00015937000000003536
aF0.0007687599999999293
aF0.0022468700000000353
aF0.0
aF0.0
aF0.000103125
aF6.25e-06
aF1.25e-05
aF8.125e-05
aF0.000246875
aF0.001853125
aF0.000371875
aF0.00056875
aF0.001853125
aF0.000415625
aF0.000190625
aF0.0
aF0.0066625
aF3.125e-06
aF0.079784375
aF0.2189625
aF0.0002593699999999899
aF0.0
aF0.0
aF1.875e-05
aF3.125e-06
aF0.0
aF0.0
aF0.0
aF6.25e-06
aF0.0
aF0.0
aF6.25e-06
aF1.875e-05
aF3.125e-06
aF0.0
aF3.125e-06
aF0.0
aF1.25e-05
aF3.125e-06
aF1.25e-05
aF1.25e-05
aF1.25e-05
aF3.125e-05
aF2.8125e-05
aF3.4375e-05
aF0.000925
aF0.000959375
aF0.004575
aF3.125e-06
aF6.25e-06
aF5.625e-05
aF4.375e-05
aF0.00105625
aF0.000403125
aF0.000178125
aF3.4375e-05
aF0.00018125
aF0.000496875
aF0.00155625
aF1.5625e-05
aF2.8125e-05
aF0.0
aF1.875e-05
aF6.25e-06
aF0.002603125
aF0.0001
aF0.002215625
aF3.125e-06
aF9.375e-06
aF1.25e-05
aF0.0
aF3.75e-05
aF1.5625e-05
aF0.000434375
aF0.000125
aF3.125e-05
aF7.5e-05
aF8.4375e-05
aF8.125e-05
aF0.0001625
aF0.0006
aF0.000334375
aF2.8125e-05
aF9.0625e-05
aF0.0036875
aF0.0
aF3.125e-06
aF3.125e-06
aF0.0
aF3.125e-06
aF6.25e-06
aF3.125e-06
aF0.0
aF9.375e-06
aF3.125e-06
aF3.125e-06
aF0.0
aF3.125e-06
aF3.125e-06
aF3.125e-06
aF6.25e-06
aF0.0
aF0.0
aF3.125e-06
aF0.000278125
aF0.0
aF7.8125e-05
aF0.00075
aF4.0625e-05
aF0.001053125
aF0.000646875
aF0.004675
aF0.002934375
aF0.0
aF0.000409375
aF0.000321875
aF2.1875e-05
aF0.0001125
aF0.000771875
aF0.0011
aF2.1875e-05
aF0.00035
aF0.009440625
aF0.018915625
aF0.00053125
aF0.0
aF0.0
aF0.0
aF1.5625e-05
aF3.125e-06
aF3.125e-06
aF0.000659375
aF0.04760625
aF0.0006875
aF0.000240625
aF0.000234375
aF0.000165625
aF0.00316875
aF0.0
aF0.0
aF0.0
aF0.000178125
aF4.375e-05
aF0.001046875
aF8.125e-05
aF0.00016875
aF0.00019061999999998988
aF0.000275
aF0.0005656300000000101
aF2.5e-05
aF0.00063125
aF0.0002125
aF0.01784375
aF0.00239375
aF1.25e-05
aF0.00015
aF0.00023125
aF7.8125e-05
aF0.00015
aF0.000640625
aF0.00073125
aF0.0001375
aF0.0022
aF4.375e-05
aF0.0
aF3.125e-06
aF4.0625e-05
aF0.0002
aF0.004359375
aF0.0
aF0.0
aF0.0
aF0.0
aF0.001453125
aF0.0
aF1.25e-05
aF6.25e-06
aF1.5625e-05
aF0.00013125
aF2.5e-05
aF6.25e-06
aF1.875e-05
aF0.0
aF0.0
aF0.0
aF0.0
aF0.0
aF0.0
aF0.0
aF0.0
aF0.0
aF0.0
aF0.0
aF5.3125e-05
aF5.3125e-05
aF5.625e-05
aF0.0004625
aF0.0
aF0.0
aF3.125e-05
aF6.25e-06
aF0.00010625
aF2.1875e-05
aF3.125e-06
aF3.125e-06
aF6.25e-06
aF3.125e-06
aF1.5625e-05
aF0.000309375
aF0.10145
aF0.0
aF0.0
aF9.375e-06
aF1.25e-05
aF0.13721561999999998
aF0.4267687599999999
aF0.06075
aF8.75e-05
aF0.000109375
aF0.001528125
aF0.002759375
aF0.0
aF8.125e-05
aF1.875e-05
aF5e-05
aF5e-05
aF6.5625e-05
aF0.000571875
aF0.00040625
aF0.000265625
aF0.00105625
aF0.000259375
aF0.00133125
aF0.00031875
aF0.000809375
aF0.000465625
aF0.00089375
aF0.00016875
aF4.375e-05
aF1.5625e-05
aF3.4375e-05
aF0.0
aF3.125e-06
aF6.25e-06
aF3.125e-06
aF3.125e-06
aF0.0
aF6.25e-06
aF6.25e-06
aF0.0
aF3.125e-06
aF3.125e-06
aF1.25e-05
aF0.0
aF3.125e-06
aF3.125e-06
aF0.00103125
aF1.25e-05
aF0.000284375
aF0.0
aF3.125e-06
aF6.25e-06
aF6.25e-06
aF0.0
aF6.25e-06
aF6.25e-06
aF3.4375e-05
aF4.6875e-05
aF9.0625e-05
aF0.0001
aF6.875e-05
aF0.000103125
aF0.000140625
aF0.000484375
aF0.0196875
aF6.25e-06
aF6.25e-06
aF0.0
aF9.6875e-05
aF2.1875e-05
aF9.375e-06
aF6.25e-05
aF8.4375e-05
aF3.125e-06
aF7.1875e-05
aF6.25e-06
aF3.125e-06
aF6.25e-06
aF9.375e-06
aF2.8125e-05
aF1.5625e-05
aF0.0003125
aF2.1875e-05
aF9.375e-05
aF0.000371875
aF5.3125e-05
aF0.00539375
aF0.00036875
aF3.125e-05
aF0.00453125
aF0.0006125
aF1.25e-05
aF0.000109375
aF0.00028125
aF2.1875e-05
aF6.25e-06
aF1.25e-05
aF0.00016875
aF0.0
aF0.0
aF0.0
aF0.000175
aF0.0
aF0.0
aF0.0
aF0.0
aF1.5625e-05
aF0.0
aF6.25e-06
aF0.0
aF6.25e-06
aF3.125e-06
aF0.0
aF3.125e-06
aF3.125e-06
aF2.5e-05
aF1.25e-05
aF6.5625e-05
aF0.000540625
aF0.001121875
aF0.013853125
aF0.0
aF2.8125e-05
aF2.1875e-05
aF3.4375e-05
aF1.5625e-05
aF9.375e-06
aF0.0
aF0.0
aF0.000159375
aF6.25e-05
aF1.5625e-05
aF0.000796875
aF0.001559375
aF0.0002375
aF0.00109375
aF0.002228125
aF0.00865625
aF0.004275
aF0.0
aF0.0
aF0.0
aF0.0
aF0.0
aF6.5625e-05
aF6.25e-05
aF0.00033125
aF2.1875e-05
aF7.1875e-05
aF0.00030625
aF6.875e-05
aF0.000115625
aF9.375e-06
aF0.0
aF2.5e-05
aF0.014334375
aF9.6875e-05
aF2.5e-05
aF0.00058125
aF1.5625e-05
aF0.00011875
aF0.000959375
aF0.000909375
aF0.00145625
aF6.25e-06
aF3.125e-06
aF6.25e-06
aF6.25e-06
aF1.875e-05
aF9.375e-06
aF4.0625e-05
aF0.0001125
aF0.00043125
aF9.375e-06
aF0.0
aF1.25e-05
aF0.0
aF3.75e-05
aF2.8125e-05
aF0.00023125
aF0.00011875
aF0.00288125
aF6.25e-06
aF0.000171875
aF0.00014375
aF0.00025
aF7.8125e-05
aF2.1875e-05
aF6.25e-06
aF0.09796561999999999
aF0.0
aF0.0
aF0.0
aF0.0
aF0.0
aF6.875e-05
aF0.0672125
aF0.01695625
aF0.0216875
aF0.013384379999999965
aF0.0
aF0.02311874000000007
aF0.16454375999999993
aF0.056206240000000074
aF0.010321879999999964
aF7.5e-05
aF0.00015
aF6.239999999979773e-06
aF0.00024376000000002023
aF2.8119999999989885e-05
aF3.125e-05
aF0.000225
aF0.0001125
aF0.0002781300000000101
aF0.00015623999999997976
aF5.626000000002023e-05
aF0.33062499999999995
aF0.3182
aF0.0
aF0.0
aF0.0
aF0.0
aF0.0
aF3.125e-05
aF0.0
aF3.125e-06
aF3.125e-06
aF0.0
aF9.375e-06
aF3.125e-06
aF1.25e-05
aF0.0
aF1.25e-05
aF2.5e-05
aF1.25e-05
aF3.4375e-05
aF0.0
aF4.0625e-05
aF6.25e-06
aF0.0002375
aF8.4375e-05
aF8.125e-05
aF0.002853125
aF0.0111375
aF0.0
aF0.0
aF0.0
aF6.25e-06
aF3.125e-06
aF1.5625e-05
aF1.25e-05
aF3.125e-06
aF4.375e-05
aF0.001065625
aF6.25e-06
aF3.125e-06
aF0.0
aF9.375e-06
aF2.8125e-05
aF3.125e-06
aF3.125e-05
aF1.5625e-05
aF5.625e-05
aF0.000315625
aF3.125e-06
aF0.0
aF0.0
aF0.0
aF0.0
aF0.00468125
aF0.030253125
aF0.000584375
aF0.00138125
aF0.000184375
aF0.000175
aF2.5e-05
aF0.0018875
aF0.0
aF0.001646875
aF3.125e-06
aF3.125e-06
aF4.375e-05
aF0.000121875
aF1.25e-05
aF0.0
aF6.875e-05
aF2.1875e-05
aF0.0
aF3.125e-06
aF9.375e-06
aF4.375e-05
aF0.0
aF1.25e-05
aF9.0625e-05
aF4.375e-05
aF3.125e-05
aF5e-05
aF3.125e-06
aF0.000290625
aF0.00029375
aF0.0
aF0.0
aF8.75e-05
aF0.001921875
aF2.1875e-05
aF0.007896875
aF0.00746875
aF0.014696875
aF0.05011875
aF0.0
aF0.000365625
aF3.125e-06
aF1.875e-05
aF0.00010936999999998988
aF0.11270938000000001
aF0.0
aF0.0
aF0.100771875
aF9.0625e-05
aF6.25e-05
aF7.1875e-05
aF0.0
aF3.75e-05
aF0.0
aF6.25e-06
aF7.8125e-05
aF9.0625e-05
aF4.375e-05
aF3.125e-05
aF7.1875e-05
aF2.1875e-05
aF9.6875e-05
aF3.125e-06
aF0.00138125
aF2.5e-05
aF3.75e-05
aF0.002728125
aF0.0
aF5.3125e-05
aF8.4375e-05
aF0.000746875
aF0.0009
aF0.000165625
aF0.000184375
aF2.5e-05
aF0.0
aF9.6875e-05
aF0.000146875
aF0.00015
aF8.125e-05
aF0.000328125
aF6.25e-06
aF1.5625e-05
aF0.000271875
aF0.004503125
aF0.00014375
aF0.000221875
aF0.0002375
aF0.0
aF3.125e-06
aF0.0
aF0.0
aF0.0
aF0.003275
aF0.002940625
aF3.125e-06
aF3.125e-06
aF0.0
aF3.75e-05
aF1.5625e-05
aF3.125e-06
aF0.00020625
aF2.5e-05
aF3.4375e-05
aF3.75e-05
aF0.000221875
aF0.00019375
aF0.000559375
aF0.001078125
aF2.5e-05
aF0.0029375
aF0.005175
aF0.0001125
aF6.25e-06
aF0.0
aF7.813000000001011e-05
aF0.00039061999999998986
aF9.688000000001012e-05
aF1.25e-05
aF0.000234375
aF2.8125e-05
aF2.8125e-05
aF3.125e-06
aF9.375e-06
aF9.375e-06
aF0.000128125
aF8.125e-05
aF2.8125e-05
aF9.375e-06
aF0.000159375
aF2.1875e-05
aF0.00015
aF0.000146875
aF6.25e-06
aF0.0
aF3.125e-06
aF4.0625e-05
aF6.25e-06
aF2.8125e-05
aF0.000184375
aF9.0625e-05
aF0.000134375
aF0.000384375
aF0.000721875
aF4.375e-05
aF0.000790625
aF0.00249375
aF0.0
aF1.5625e-05
aF0.0
aF3.125e-06
aF7.8125e-05
aF0.003865625
aF9.375e-06
aF9.375e-06
aF1.25e-05
aF3.4375e-05
aF3.125e-06
aF3.125e-06
aF1.25e-05
aF0.000121875
aF0.00011875
aF0.0001
aF0.000534375
aF6.25e-06
aF0.00266875
aF3.1199999999898866e-06
aF0.0
aF3.1199999999898866e-06
aF6.260000000020227e-06
aF3.1199999999898866e-06
aF3.1199999999898866e-06
aF0.0
aF3.1300000000101137e-06
aF1.5630000000010115e-05
aF2.1869999999989885e-05
aF1.5630000000010115e-05
aF3.75e-05
aF9.373999999997977e-05
aF0.00114688000000001
aF0.0
aF0.0
aF0.0
aF9.375e-06
aF0.00485
aF0.004025
aF0.0001375
aF0.0
aF4.6875e-05
aF0.0
aF0.0
aF0.00015
aF0.000346875
aF0.02863125500000001
aF0.01469373999999998
aF3.1300000000101137e-06
aF4.375e-05
aF0.00020938000000001011
aF9.369999999989887e-06
aF5.625e-05
aF0.0
aF4.6875e-05
aF0.001709375
aF0.001609375
aF0.0
aF0.00383125
aF0.000315625
aF0.000346875
aF0.000471875
aF0.00021875
aF5.3125e-05
aF0.000325
aF3.125e-05
aF0.00645625
aF0.004825
aF3.125e-06
aF2.8125e-05
aF0.0
aF6.25e-06
aF1.25e-05
aF0.0
aF0.0
aF3.125e-06
aF5.9375e-05
aF3.125e-05
aF1.875e-05
aF2.1875e-05
aF3.125e-05
aF0.0002
aF6.25e-06
aF0.000146875
aF0.0002
aF0.000796875
aF7.5e-05
aF1.5625e-05
aF6.5625e-05
aF0.000328125
aF0.000196875
aF3.75e-05
aF9.6875e-05
aF0.000940625
aF2.5e-05
aF6.25e-05
aF2.5e-05
aF0.0
aF0.0
aF3.125e-06
aF0.0
aF0.0
aF0.0
aF3.125e-06
aF0.0
aF6.25e-06
aF0.0
aF3.125e-06
aF3.125e-06
aF6.25e-06
aF1.5625e-05
aF9.375e-06
aF9.375e-06
aF3.125e-06
aF6.25e-06
aF0.000503125
aF0.00025
aF7.5e-05
aF0.00150625
aF3.4375e-05
aF0.009784375
aF0.0
aF0.0
aF0.004690625
aF0.026975
aF0.0
aF0.0
aF0.0
aF0.0
aF0.0
aF0.0
aF0.0
aF0.0
aF0.0
aF0.0
aF0.0
aF3.125e-06
aF0.0
aF0.0
aF3.125e-06
aF3.125e-06
aF0.0
aF3.125e-06
aF3.125e-06
aF0.0
aF0.0
aF3.125e-06
aF0.0
aF0.0
aF6.25e-06
aF6.25e-06
aF2.1875e-05
aF9.375e-06
aF1.25e-05
aF3.75e-05
aF6.25e-06
aF0.0
aF2.8125e-05
aF0.000165625
aF0.000371875
aF0.000259375
aF0.00053125
aF0.002346875
aF6.25e-06
aF6.25e-06
aF2.8125e-05
aF9.375e-06
aF0.000159375
aF1.875e-05
aF0.00016875
aF3.125e-06
aF0.000265625
aF4.6875e-05
aF0.00010625
aF6.25e-05
aF0.0
aF3.125e-06
aF0.0
aF3.125e-06
aF0.0
aF3.125e-06
aF2.5e-05
aF1.25e-05
aF9.375e-06
aF9.375e-06
aF4.6875e-05
aF9.375e-06
aF0.000675
aF0.0
aF1.5625e-05
aF3.125e-05
aF6.25e-06
aF1.25e-05
aF0.00020625
aF2.8125e-05
aF3.125e-06
aF3.125e-06
aF2.5e-05
aF0.00184375
aF0.00056875
aF0.0
aF0.0
aF3.125e-06
aF6.25e-06
aF9.375e-06
aF0.000471875
aF3.125e-06
aF1.5625e-05
aF0.15048438
aF0.05185311999999999
aF0.034525
aF0.02572188000000001
aF0.007096879999999964
aF0.028090620000000035
aF0.03149687999999996
aF0.0027
aF0.10519687000000004
aF0.06520312999999997
aF0.0
aF0.0
aF0.0
aF3.75e-05
aF5.9375e-05
aF6.25e-06
aF0.0
aF1.25e-05
aF6.25e-06
aF6.25e-06
aF3.125e-06
aF9.375e-06
aF0.0
aF2.8125e-05
aF0.0003375
aF9.375e-06
aF0.000121875
aF6.25e-06
aF9.375e-06
aF6.25e-06
aF0.000828125
aF0.0
aF0.0
aF0.0
aF0.000296875
aF5.625e-05
aF0.00114375
aF0.008525
aF0.0
aF0.0
aF0.0
aF6.25e-06
aF3.125e-06
aF0.000175
aF0.000478125
aF0.0
aF0.0
aF0.0
aF0.0
aF0.0
aF0.0
aF0.0
aF7.1875e-05
aF3.125e-05
aF7.1875e-05
aF6.875e-05
aF0.000409375
aF0.000534375
aF2.5e-05
aF2.1875e-05
aF0.000225
aF0.0003375
aF3.125e-05
aF0.0004
aF2.5e-05
aF5.9375e-05
aF2.5e-05
aF0.000821875
aF0.00033125
aF0.032740625
aF0.0
aF1.875e-05
aF8.4375e-05
aF2.8125e-05
aF0.000175
aF0.0001375
aF9.375e-06
aF0.0
aF0.0004625
aF3.125e-06
aF6.25e-06
aF3.125e-06
aF6.25e-06
aF3.125e-06
aF3.125e-06
aF1.25e-05
aF0.000215625
aF6.25e-05
aF0.00011875
aF2.5e-05
aF2.8125e-05
aF0.00038125
aF0.000596875
aF0.00014375
aF0.0002
aF0.0
aF0.0
aF0.0
aF0.0
aF9.375e-06
aF6.25e-06
aF3.4375e-05
aF3.125e-06
aF5e-05
aF0.00033125
aF0.000359375
aF4.375e-05
aF9.375e-05
aF0.0001375
aF0.00031875
aF0.000659375
aF0.0020375
aF0.000109375
aF0.0001375
aF0.000221875
aF0.00050625
aF0.0015875
aF7.1875e-05
aF0.000834375
aF0.0003375
aF3.125e-06
aF0.00013125
aF0.000503125
aF0.0
aF0.00019375
aF0.00015
aF8.75e-05
aF0.000396875
aF0.0
aF1.875e-05
aF6.5625e-05
aF0.000134375
aF0.00036875
aF0.00049375
aF3.125e-06
aF1.25e-05
aF0.0
aF9.375e-06
aF3.125e-06
aF3.125e-06
aF4.375e-05
aF8.4375e-05
aF4.6875e-05
aF8.4375e-05
aF0.000175
aF0.00071875
aF0.00011875
aF0.1920125
aF0.0
aF3.125e-06
aF6.25e-05
aF8.4375e-05
aF6.25e-05
aF0.0004
aF6.25e-06
aF0.000909375
aF6.25e-06
aF9.375e-06
aF1.25e-05
aF4.375e-05
aF0.0
aF0.0
aF6.875e-05
aF0.00063125
aF0.0012
aF0.002184375
aF0.0
aF0.0
aF0.0
aF0.0
aF0.0
aF0.0
aF6.875e-05
aF0.0
aF6.25e-06
aF0.003728125
aF0.0006875
aF0.000859375
aF0.00069375
aF0.00056875
aF0.0
aF5.3125e-05
aF0.0
aF0.0001
aF0.0
aF0.0
aF3.125e-06
aF0.0
aF6.25e-06
aF0.0
aF0.0
aF1.5625e-05
aF9.375e-06
aF9.375e-06
aF1.25e-05
aF3.125e-06
aF3.125e-06
aF1.5625e-05
aF8.4375e-05
aF7.8125e-05
aF0.000253125
aF0.00024375
aF2.8125e-05
aF0.005921875
aF0.000375
aF0.001396875
aF0.0
aF0.000934375
aF0.0001625
aF5.9375e-05
aF0.00031875
aF0.0
aF0.0
aF3.125e-06
aF0.001484375
aF0.001521875
aF2.1875e-05
aF3.125e-06
aF3.125e-06
aF4.0625e-05
aF2.1875e-05
aF9.375e-06
aF0.00011875
aF6.875e-05
aF9.375e-06
aF1.25e-05
aF4.6875e-05
aF1.5625e-05
aF6.25e-06
aF3.125e-06
aF9.375e-06
aF2.8125e-05
aF9.0625e-05
aF1.875e-05
aF0.0001375
aF2.1875e-05
aF0.001690625
aF0.0
aF0.0
aF0.00021875
aF9.375e-06
aF0.000353125
aF1.25e-05
aF0.000725
aF0.00036875
aF0.0
aF0.0
aF3.75e-05
aF0.00150625
aF0.0003875
aF0.0
aF3.125e-06
aF0.0
aF6.25e-06
aF6.25e-06
aF0.0
aF0.0
aF2.1875e-05
aF1.875e-05
aF2.1875e-05
aF2.5e-05
aF2.8125e-05
aF3.4375e-05
aF5e-05
aF0.000334375
aF0.00020625
aF5.9380000000010114e-05
aF2.1880000000010114e-05
aF0.00011873999999997977
aF0.00023126000000002023
aF0.0003031199999999899
aF0.0009218800000000101
aF0.0011718699999999898
aF0.01414686999999999
aF1.8760000000020227e-05
aF0.0001
aF0.42913436999999993
aF0.05247187000000004
aF4.0625e-05
aF0.00014375
aF0.00093125
aF0.0
aF0.0004125
aF0.000246875
aF0.00065
aF0.004846875
aF2.8125e-05
aF6.875e-05
aF0.000196875
aF4.6875e-05
aF7.8125e-05
aF0.000234375
aF0.00215625
aF1.25e-05
aF0.0
aF0.0
aF3.125e-06
aF3.125e-06
aF6.25e-06
aF2.8125e-05
aF1.875e-05
aF3.75e-05
aF3.125e-06
aF0.0001
aF6.25e-05
aF5.9375e-05
aF0.0008875
aF0.0
aF0.000846875
aF0.006959375
aF1.5625e-05
aF0.019765625
aF0.189790625
aF0.02268438000000001
aF1.875e-05
aF0.000290625
aF0.00195625
aF3.125e-06
aF0.0
aF0.0
aF0.0
aF9.375e-06
aF2.1875e-05
aF0.002
aF0.0
aF0.00015625
aF0.000128125
aF0.000221875
aF2.5e-05
aF4.375e-05
aF1.5625e-05
aF4.0625e-05
aF0.0
aF0.00036875
aF9.375e-06
aF6.25e-06
aF0.000125
aF9.6875e-05
aF0.000375
aF0.00055
aF0.00104375
aF0.0
aF0.0
aF0.0
aF0.0
aF0.0
aF0.0
aF0.0
aF3.125e-06
aF0.0
aF0.000390625
aF2.5e-05
aF0.000125
aF9.375e-06
aF9.375e-06
aF9.375e-06
aF0.000171875
aF0.00014375
aF3.4375e-05
aF0.000125
aF4.0625e-05
aF0.00065
aF0.0
aF0.0
aF0.0
aF0.0
aF0.0
aF0.000128125
aF6.25e-06
aF1.25e-05
aF2.5e-05
aF6.25e-06
aF0.000146875
aF0.0
aF1.5625e-05
aF2.8125e-05
aF0.000196875
aF9.375e-05
aF3.4375e-05
aF2.5e-05
aF8.4375e-05
aF0.0
aF0.0012
aF0.00025
aF0.001309375
aF0.0019875
aF0.001109375
aF0.0
aF0.0
aF0.000465625
aF0.000965625
aF0.000165625
aF5.9375e-05
aF9.6875e-05
aF0.001371875
aF0.000103125
aF6.25e-06
aF0.0
aF6.25e-05
aF3.4375e-05
aF0.0
aF9.375e-06
aF0.0
aF1.25e-05
aF3.125e-06
aF0.000371875
aF5.625e-05
aF0.0001125
aF0.00054375
aF3.125e-06
aF0.049421875
aF0.009496875
aF0.008921875
aF1.875e-05
aF0.0
aF0.0
aF0.0
aF0.0
aF0.0
aF3.125e-06
aF0.000365625
aF6.5625e-05
aF0.0
aF0.0
aF0.000171875
aF0.00566875
aF3.125e-05
aF9.375e-06
aF3.125e-06
aF0.004125
aF0.00168125
aF0.00024375
aF0.0
aF0.0
aF9.0625e-05
aF0.001859375
aF0.0
aF0.0
aF1.25e-05
aF0.0
aF0.001215625
aF0.0
aF4.6875e-05
aF0.000228125
aF6.25e-06
aF0.001053125
aF0.000221875
aF0.00026875
aF1.5625e-05
aF0.31028125
aF0.07212187999999997
aF0.0
aF0.06227811999999999
aF0.032075
aF0.0008968800000000102
aF0.03407188000000001
aF0.02519373999999998
aF0.00605938000000001
aF0.00708438000000001
aF0.0031187399999999797
aF0.016225
aF0.02616563000000001
aF0.0078875
aF0.09570625
aF0.028390620000000037
aF0.06822187999999997
aF0.00404375
aF0.03823437000000004
aF0.000765625
aF0.000159375
aF0.000365625
aF0.000215625
aF0.00218125
aF0.0
aF0.0
aF3.4375e-05
aF0.0008125
aF4.6875e-05
aF0.00064375
aF0.000996875
aF0.0
aF0.002159375
aF0.003103125
aF9.375e-06
aF0.0
aF0.0
aF0.0
aF0.0
aF0.0
aF0.0
aF0.003590625
aF0.001203125
aF0.0095
aF0.0
aF3.125e-06
aF5.3125e-05
aF0.0
aF2.8125e-05
aF0.00015
aF2.1875e-05
aF1.875e-05
aF3.125e-06
aF0.0
aF0.0003375
aF0.0001
aF0.00019375
aF0.0011
aF0.0
aF0.0
aF0.0003125
aF0.000234375
aF0.00193125
aF0.000403125
aF0.0018
aF0.00081875
aF0.0009
aF7.8125e-05
aF0.000184375
aF3.4375e-05
aF0.0001
aF0.000740625
aF0.0023875
aF0.000553125
aF0.00658125
aF0.0005125
aF5.9375e-05
aF0.001921875
aF3.75e-05
aF0.0009125
aF8.75e-05
aF0.00295625
aF0.32939061999999997
aF6.25e-05
aF1.875e-05
aF9.0625e-05
aF4.375e-05
aF3.125e-06
aF3.125e-05
aF2.5e-05
aF6.25e-06
aF0.000171875
aF3.4375e-05
aF0.000103125
aF3.125e-05
aF0.000171875
aF0.00010625
aF5e-05
aF0.00633125
aF0.0
aF0.0
aF0.0
aF1.5625e-05
aF0.0
aF0.0
aF6.25e-06
aF9.375e-06
aF0.0
aF0.0
aF0.0
aF0.0
aF0.0
aF0.0
aF0.0
aF0.0
aF0.0
aF2.8125e-05
aF1.875e-05
aF6.25e-06
aF6.25e-06
aF0.000290625
aF0.000503125
aF0.0
aF7.1875e-05
aF0.006665625
aF0.00026875
aF0.000296875
aF0.00045625
aF0.0
aF0.018471875
aF0.00011875
aF0.0
aF3.125e-06
aF6.25e-06
aF2.5e-05
aF3.4375e-05
aF0.0020625
aF0.0
aF0.00108125
aF0.000753125
aF0.001109375
aF0.001428125
aF0.004325
aF0.003365625
aF0.0001875
aF4.0625e-05
aF0.0002625
aF0.0009
aF0.0
aF2.1875e-05
aF0.0007625
aF0.003275
aF0.000546875
aF4.375e-05
aF6.5625e-05
aF9.375e-06
aF7.5e-05
aF0.000759375
aF0.01801875
aF6.875e-05
aF6.5625e-05
aF9.375e-06
aF0.00306875
aF3.75e-05
aF3.125e-06
aF0.0
aF4.0625e-05
aF0.0
aF3.4375e-05
aF9.375e-06
aF1.875e-05
aF0.00013125
aF0.000115625
aF0.00083125
aF3.125e-06
aF2.1875e-05
aF5.625e-05
aF0.0
aF1.25e-05
aF2.1875e-05
aF1.5625e-05
aF1.875e-05
aF6.25e-06
aF8.75e-05
aF6.25e-06
aF0.00143125
aF0.000659375
aF0.00015625
aF0.0
aF0.0
aF0.0
aF0.0
aF0.000759375
aF0.00093125
aF0.0
aF0.0239875
aF1.25e-05
aF7.8125e-05
aF3.75e-05
aF0.0001125
aF0.000471875
aF0.000621875
aF0.0
aF7.1875e-05
aF4.375e-05
aF6.25e-06
aF0.0
aF0.0
aF1.875e-05
aF1.5625e-05
aF0.00011875
aF0.000103125
aF0.00020625
aF0.0
aF6.25e-06
aF3.4375e-05
aF6.25e-06
aF6.25e-06
aF0.0
aF3.125e-06
aF0.0
aF0.000378125
aF7.5e-05
aF6.25e-06
aF6.25e-06
aF3.125e-06
aF4.6875e-05
aF0.000359375
aF0.004703125
aF0.0
aF0.0
aF0.0
aF1.875e-05
aF0.000246875
aF0.001075
aF0.0
aF0.0
aF1.25e-05
aF5e-05
aF0.001028125
aF0.002446875
aF0.00193125
aF9.375e-06
aF1.25e-05
aF4.375e-05
aF8.4375e-05
aF0.000475
aF3.125e-06
aF1.875e-05
aF3.125e-06
aF9.0625e-05
aF0.00025
aF3.125e-06
aF0.0
aF1.875e-05
aF3.125e-06
aF0.000584375
aF0.0
aF2.1875e-05
aF0.0
aF0.000103125
aF0.000384375
aF0.00100625
aF0.00595
aF0.006596875
aF0.000271875
aF0.00031875
aF6.25e-06
aF6.25e-06
aF0.0
aF3.75e-05
aF7.5e-05
aF0.000396875
aF0.001778125
aF0.0
aF6.25e-06
aF3.125e-06
aF3.4375e-05
aF1.5625e-05
aF0.0
aF4.6875e-05
aF2.8125e-05
aF9.375e-06
aF1.25e-05
aF3.4375e-05
aF2.1875e-05
aF6.875e-05
aF2.1875e-05
aF4.6875e-05
aF2.8125e-05
aF1.25e-05
aF0.00010625
aF0.00013125
aF0.000728125
aF0.00048125
aF0.003340625
aF0.0001375
aF0.07980312999999996
aF0.005590620000000036
aF0.038725
aF0.08390937999999996
aF4.0625e-05
aF0.000303125
aF0.0
aF0.0
aF5.625e-05
aF2.1875e-05
aF3.125e-06
aF2.8125e-05
aF9.375e-06
aF6.25e-06
aF3.125e-06
aF6.25e-06
aF7.5e-05
aF2.1875e-05
aF0.0
aF3.125e-06
aF2.1875e-05
aF3.125e-05
aF0.000146875
aF0.001203125
aF0.053996875
aF0.00841875
aF0.06266561999999999
aF4.063000000001011e-05
aF0.09065937000000003
aF0.03289375999999993
aF0.025140620000000034
aF0.10229062000000004
aF0.10862187999999996
aF0.00037187999999996465
aF6.25e-06
aF3.125e-06
aF9.375e-06
aF1.875e-05
aF2.8125e-05
aF3.125e-06
aF0.004171875
aF0.00498125
aF0.0021875
aF0.013875
aF0.0
aF0.0
aF6.25e-06
aF6.25e-06
aF6.25e-06
aF1.25e-05
aF2.1875e-05
aF6.25e-06
aF3.125e-06
aF1.25e-05
aF3.125e-06
aF2.5e-05
aF3.125e-06
aF9.375e-06
aF2.1875e-05
aF9.375e-06
aF5.3125e-05
aF0.027909375
aF0.267503125
aF0.0
aF0.0
aF0.0
aF0.0
aF0.0
aF2.1875e-05
aF6.25e-06
aF3.125e-06
aF3.125e-06
aF0.0
aF3.125e-06
aF3.125e-06
aF1.5625e-05
aF6.25e-06
aF0.0
aF0.0
aF3.125e-06
aF0.0
aF0.0
aF6.25e-06
aF0.0
aF0.0
aF2.8125e-05
aF6.25e-06
aF1.5625e-05
aF1.25e-05
aF6.5625e-05
aF8.75e-05
aF0.00013125
aF0.00171875
aF0.00731875
aF1.5625e-05
aF1.875e-05
aF0.000790625
aF0.0
aF0.0
aF0.0
aF0.0
aF0.0
aF0.0
aF0.0
aF0.00026875
aF0.0
aF0.00039375
aF6.25e-06
aF0.0
aF0.0
aF0.0
aF0.0
aF9.375e-06
aF0.000309375
aF8.125e-05
aF0.18990938000000002
aF0.02993123999999998
aF0.28739376
aF1.5625e-05
aF0.002959375
aF6.25e-05
aF0.000196875
aF0.00028125
aF9.375e-06
aF0.0
aF9.375e-06
aF6.25e-06
aF0.000715625
aF5.9375e-05
aF0.000396875
aF0.00051875
aF0.0051625
aF0.001071875
aF0.000153125
aF0.0
aF0.00074375
aF0.000275
aF0.006621875
aF5e-05
aF8.4375e-05
aF5.3125e-05
aF0.00089375
aF0.00046875
aF0.00075
aF3.125e-06
aF3.125e-06
aF0.0003
aF0.000196875
aF0.0
aF3.125e-06
aF1.25e-05
aF0.000559375
aF0.00195625
aF0.000596875
aF3.125e-06
aF9.375e-06
aF9.375e-06
aF3.125e-06
aF0.0
aF0.0
aF3.125e-06
aF3.125e-06
aF6.25e-06
aF6.25e-06
aF4.6875e-05
aF3.125e-05
aF9.375e-05
aF0.000928125
aF0.00013125
aF5.9375e-05
aF0.00023125
aF0.000165625
aF0.0
aF9.375e-06
aF7.8125e-05
aF1.5625e-05
aF9.0625e-05
aF0.0
aF6.25e-05
aF0.000109375
aF0.003484375
aF0.0
aF0.0
aF0.00013125
aF1.875e-05
aF5.3125e-05
aF3.125e-06
aF0.0
aF0.0
aF0.000178125
aF0.001215625
aF0.000634375
aF0.00015
aF9.375e-05
aF1.5625e-05
aF0.00028125
aF3.125e-06
aF0.0
aF0.0
aF0.000825
aF4.0625e-05
aF0.000234375
aF6.875e-05
aF0.00025
aF0.000125
aF0.0005
aF0.00169375
aF0.000353125
aF2.1875e-05
aF0.000621875
aF0.0
aF1.5625e-05
aF0.000184375
aF0.00015
aF5e-05
aF3.125e-06
aF1.875e-05
aF2.5e-05
aF5.625e-05
aF2.1875e-05
aF0.0
aF0.000221875
aF0.0
aF0.0
aF3.125e-06
aF0.0
aF0.0
aF0.0
aF0.0
aF0.000365625
aF0.001375
aF0.0
aF0.0
aF6.25e-06
aF1.5625e-05
aF5.625e-05
aF5.9375e-05
aF1.5625e-05
aF3.75e-05
aF0.000128125
aF0.000615625
aF0.000128125
aF0.001240625
aF0.003378125
aF0.00211875
aF0.42591250499999994
aF0.0
aF0.000346875
aF6.25e-06
aF0.00035
aF0.000465625
aF0.002
aF0.0
aF9.6875e-05
aF0.000921875
aF6.875e-05
aF0.000296875
aF0.003628125
aF0.0
aF0.000328125
aF3.125e-06
aF0.0
aF0.00039375
aF6.875e-05
aF0.000865625
aF0.000303125
aF0.0
aF0.001559375
aF0.037109375
aF0.0
aF0.0
aF0.0
aF0.0
aF0.0
aF0.0
aF0.0
aF0.0
aF0.0
aF0.000659375
aF0.0057875
aF1.5625e-05
aF0.00015
aF0.000275
aF0.00053125
aF0.000459375
aF0.0003625
aF3.125e-06
aF9.375e-06
aF3.75e-05
aF3.125e-06
aF0.0001625
aF4.6875e-05
aF0.0
aF0.000340625
aF0.00056875
aF0.00495625
aF0.000978125
aF0.000934375
aF0.010296875
aF4.0625e-05
aF0.0
aF3.1300000000101137e-06
aF3.1300000000101137e-06
aF0.0
aF1.875e-05
aF3.75e-05
aF1.25e-05
aF0.0
aF0.0
aF0.0
aF0.0
aF3.125e-06
aF0.0
aF9.375e-06
aF0.0
aF6.25e-06
aF9.375e-06
aF6.25e-06
aF0.0
aF3.125e-06
aF0.0
aF9.375e-06
aF3.125e-06
aF0.0
aF9.375e-06
aF6.25e-06
aF0.000171875
aF0.000884375
aF1.25e-05
aF9.375e-06
aF6.25e-06
aF0.000803125
aF9.6875e-05
aF3.4375e-05
aF0.00045
aF0.0
aF1.5625e-05
aF0.00029375
aF6.875e-05
aF0.0008625
aF0.0
aF0.0
aF3.75e-05
aF0.00088125
aF6.25e-06
aF2.1875e-05
aF3.125e-06
aF6.25e-06
aF0.0
aF0.0
aF6.25e-06
aF0.0027
aF0.0
aF6.25e-06
aF0.000196875
aF6.25e-06
aF1.25e-05
aF1.875e-05
aF0.0002
aF0.0
aF6.25e-06
aF1.875e-05
aF6.25e-06
aF6.25e-06
aF9.375e-06
aF0.0
aF7.1875e-05
aF3.125e-05
aF0.000215625
aF0.000884375
aF0.00084375
aF0.000846875
aF0.001378125
aF3.4375e-05
aF2.1875e-05
aF0.00014375
aF0.000196875
aF0.000259375
aF0.0001
aF0.000571875
aF3.4375e-05
aF0.000175
aF7.1875e-05
aF7.5e-05
aF0.000271875
aF0.00038125
aF4.6875e-05
aF0.0002625
aF0.000584375
aF0.00075625
aF0.00285625
aF0.057221875
aF1.25e-05
aF0.000109375
aF8.4375e-05
aF0.0
aF0.0
aF0.0448125
aF0.0
aF1.25e-05
aF0.0
aF3.125e-06
aF0.0
aF9.375e-06
aF3.125e-05
aF0.0001875
aF6.25e-06
aF6.25e-06
aF5.625e-05
aF8.4375e-05
aF0.000821875
aF0.0002
aF0.000865625
aF0.00083125
aF0.0007875
aF0.00171875
aF0.0
aF0.0
aF0.0
aF0.0
aF0.0
aF0.0
aF0.0
aF0.0
aF0.0
aF0.000159375
aF0.0
aF0.0
aF0.000125
aF0.0
aF0.0
aF4.6875e-05
aF0.000346875
aF0.004459375
aF0.04040311999999999
aF4.6880000000010115e-05
aF0.00014375
aF0.00230313000000001
aF0.00438125
aF8.4375e-05
aF0.0028625
aF9.0625e-05
aF4.375e-05
aF1.25e-05
aF0.006125
aF0.00053125
aF0.00276875
aF9.375e-06
aF0.000128125
aF0.00015
aF4.0625e-05
aF0.000234375
aF0.002675
aF8.75e-05
aF2.5e-05
aF6.5625e-05
aF0.00028125
aF4.0625e-05
aF0.000684375
aF0.000928125
aF0.00016875
aF0.00026875
aF0.000421875
aF0.0
aF0.0
aF0.001446875
aF8.125e-05
aF6.25e-05
aF0.0006343800000000101
aF0.0
aF0.0005531199999999899
aF0.0004
aF0.0623
aF0.000125
aF0.007959375
aF6.25e-06
aF0.000196875
aF0.00036875
aF0.52470625
aF0.0143875
aF0.013246879999999964
aF0.000809375
aF9.375e-06
aF0.0
aF0.000125
aF8.125e-05
aF0.0006
aF0.0
aF0.0
aF0.0
aF5.9375e-05
aF0.0
aF0.0
aF0.0
aF0.0
aF9.375e-06
aF5.3125e-05
aF5.3125e-05
aF0.002071875
aF0.00013125
aF0.224549995
aF0.0
aF0.0001656300000000101
aF0.0026
aF0.000103125
aF3.125e-05
aF0.000146875
aF0.000809375
aF0.001459375
aF0.000403125
aF5.625e-05
aF0.0
aF0.000175
aF0.043378125
aF7.1875e-05
aF0.0688625
aF3.75e-05
aF0.0
aF3.75e-05
aF0.00010625
aF5.625e-05
aF0.000671875
aF0.00124375
aF0.0063625
aF0.0010125
aF0.005128125
aF7.1875e-05
aF0.017646875
aF2.8125e-05
aF2.5e-05
aF6.25e-05
aF6.5625e-05
aF0.0001125
aF0.000625
aF0.000940625
aF0.000628125
aF1.5625e-05
aF0.000265625
aF6.5625e-05
aF0.0
aF0.0
aF0.000621875
aF0.000615625
aF0.0
aF0.0
aF0.0
aF0.000621875
aF0.000615625
aF1.5625e-05
aF0.000703125
aF0.0002
aF2.8125e-05
aF3.125e-06
aF0.0
aF3.125e-06
aF3.125e-06
aF6.25e-06
aF1.5625e-05
aF0.0025
aF9.375e-06
aF0.0
aF9.375e-06
aF9.375e-06
aF1.5625e-05
aF0.0
aF4.0625e-05
aF9.375e-06
aF1.5625e-05
aF5.3125e-05
aF0.00058125
aF0.0003875
aF0.0
aF3.125e-06
aF0.0
aF6.25e-06
aF1.25e-05
aF0.000140625
aF0.000509375
aF6.25e-06
aF0.0
aF6.25e-05
aF3.4375e-05
aF9.0625e-05
aF3.4375e-05
aF0.000184375
aF0.0003875
aF0.00013125
aF0.001315625
aF0.0
aF0.0
aF6.25e-06
aF7.5e-05
aF6.25e-06
aF0.00161875
aF0.0
aF0.0
aF6.25e-06
aF0.0
aF0.0
aF3.125e-06
aF6.25e-06
aF3.125e-06
aF0.0
aF3.125e-06
aF0.0
aF0.0
aF3.125e-06
aF6.25e-06
aF0.0
aF3.125e-06
aF3.125e-06
aF6.25e-06
aF0.000128125
aF0.0
aF0.0
aF6.25e-06
aF0.0
aF2.8125e-05
aF2.5e-05
aF3.125e-05
aF1.5625e-05
aF6.25e-06
aF0.0
aF3.125e-06
aF9.375e-06
aF2.1875e-05
aF6.25e-06
aF3.125e-06
aF3.125e-06
aF3.125e-06
aF9.375e-06
aF3.125e-06
aF0.000221875
aF0.000153125
aF0.000234375
aF0.000121875
aF7.5e-05
aF3.125e-06
aF3.125e-06
aF0.0
aF3.125e-06
aF0.0
aF6.25e-06
aF0.0
aF0.0
aF3.125e-06
aF3.125e-06
aF0.0
aF6.25e-05
aF6.25e-06
aF3.125e-05
aF0.000578125
aF0.0017375
aF0.0
aF0.0
aF3.75e-05
aF0.0
aF1.5625e-05
aF0.000253125
aF5.625e-05
aF0.00014375
aF8.125e-05
aF0.011075
aF3.125e-06
aF0.0
aF9.375e-06
aF9.375e-06
aF9.375e-06
aF3.125e-06
aF1.875e-05
aF6.25e-06
aF0.0
aF1.25e-05
aF1.25e-05
aF3.125e-06
aF0.0
aF3.125e-06
aF0.0464
aF0.000209375
aF0.0065
aF0.01841875
aF0.0014
aF0.0007125
aF9.375e-05
aF0.000396875
aF0.004921875
aF0.000540625
aF0.000371875
aF0.0
aF9.6875e-05
aF8.75e-05
aF6.5625e-05
aF3.125e-06
aF3.125e-05
aF1.5625e-05
aF3.125e-05
aF3.125e-06
aF1.25e-05
aF3.125e-06
aF0.00194375
aF0.073425
aF0.08527189999999973
aF0.20142810000000028
aF0.05467189999999973
aF0.11604060000000027
aF0.00075
aF0.000134375
aF7.5e-05
aF0.000171875
aF2.8125e-05
aF3.125e-05
aF0.0
aF1.5625e-05
aF0.000746875
aF0.000159375
aF0.00019375
aF0.002278125
aF0.040225
aF0.00012811999999998988
aF6.563000000001012e-05
aF6.25e-06
aF9.380000000010114e-06
aF3.75e-05
aF0.0
aF0.00031873999999997975
aF0.0001468800000000101
aF1.875e-05
aF9.369999999989887e-06
aF0.00010313000000001011
aF2.1869999999989885e-05
aF0.0
aF0.00044376000000002024
aF0.00323436999999999
aF0.01975936999999999
aF0.06825
aF0.36354376
aF0.0022531300000000103
aF0.07003123999999998
aF0.15898126
aF0.05991249999999995
aF0.22302187000000004
aF0.000309375
aF5e-05
aF3.125e-05
aF0.000340625
aF0.000534375
aF0.000759375
aF0.003040625
aF0.0
aF0.000625
aF0.005378125
aF0.00060625
aF0.0
aF0.0
aF0.0
aF0.0
aF0.0
aF3.125e-06
aF6.25e-06
aF6.25e-06
aF9.375e-06
aF9.375e-06
aF0.00010625
aF3.75e-05
aF0.001109375
aF0.000228125
aF0.000334375
aF0.0030875
aF6.25e-06
aF2.1875e-05
aF0.00034375
aF0.0008625
aF0.0
aF3.4375e-05
aF4.0625e-05
aF0.000196875
aF0.0
aF0.00010625
aF0.00019375
aF5.9375e-05
aF0.0003875
aF1.875e-05
aF0.000303125
aF0.0
aF8.4375e-05
aF9.375e-06
aF0.0006625
aF9.375e-05
aF4.6875e-05
aF9.375e-06
aF3.125e-06
aF3.125e-06
aF9.375e-06
aF3.125e-06
aF0.0
aF0.00479375
aF3.75e-05
aF0.01176875
aF3.125e-06
aF0.0
aF0.00170625
aF1.5630000000010115e-05
aF0.02804375
aF8.4375e-05
aF5.3125e-05
aF2.1875e-05
aF0.001540625
aF0.00264375
aF0.0
aF1.5625e-05
aF3.125e-06
aF0.0
aF3.125e-06
aF2.8125e-05
aF0.000153125
aF0.000509375
aF0.00025625
aF0.0
aF0.000103125
aF0.000296875
aF0.001196875
aF0.0013625
aF0.005625
aF0.01025
aF0.0
aF6.5625e-05
aF0.0
aF2.1875e-05
aF0.005821875
aF0.00901875
aF0.001096875
aF0.0017375
aF0.0
aF3.125e-06
aF0.0
aF0.0
aF5e-05
aF0.002203125
aF0.1355
aF0.04493436999999999
aF0.0015656300000000101
aF0.0
aF0.0
aF0.0
aF0.0
aF0.0
aF8.75e-05
aF0.0
aF0.0
aF7.8125e-05
aF1.25e-05
aF3.125e-06
aF0.001165625
aF1.5625e-05
aF0.0
aF0.0
aF4.375e-05
aF1.25e-05
aF6.25e-05
aF3.125e-06
aF0.0
aF0.0
aF0.0
aF0.0
aF0.0
aF0.0
aF0.0
aF0.0
aF0.0
aF0.0
aF0.0
aF0.0
aF0.0
aF0.0
aF0.0
aF5e-05
aF3.125e-06
aF0.0
aF3.125e-06
aF9.375e-06
aF7.5e-05
aF0.000459375
aF0.0173
aF0.0
aF0.0
aF2.5e-05
aF0.0
aF1.25e-05
aF0.0
aF0.000475
aF0.001015625
aF3.125e-06
aF0.00024375
aF0.000259375
aF0.0
aF0.0007
aF0.0
aF5.9375e-05
aF3.4375e-05
aF9.0625e-05
aF1.875e-05
aF0.000303125
aF0.000890625
aF0.019146875
aF3.4375e-05
aF0.000434375
aF0.000746875
aF0.003046875
aF0.00846875
aF0.0013687999999998284
aF0.0026
aF0.541825
aF0.27766875
aF3.125e-05
aF9.375e-06
aF9.375e-06
aF3.125e-06
aF1.25e-05
aF3.125e-06
aF9.375e-06
aF0.0
aF5e-05
aF9.375e-06
aF0.0
aF9.375e-06
aF3.125e-05
aF3.125e-06
aF3.125e-06
aF2.1875e-05
aF3.125e-06
aF3.125e-06
aF0.0
aF3.125e-06
aF0.0
aF6.25e-06
aF1.25e-05
aF5.625e-05
aF9.375e-06
aF7.1875e-05
aF9.375e-06
aF0.0
aF0.0
aF6.5625e-05
aF0.0
aF9.375e-06
aF0.0001375
aF0.0
aF3.125e-06
aF0.0
aF0.0
aF0.0
aF0.0
aF0.0
aF0.0
aF0.0
aF9.375e-06
aF0.002090625
aF0.003978125
aF0.00326875
aF0.006240625
aF1.25e-05
aF6.25e-06
aF3.125e-06
aF3.125e-06
aF0.0
aF9.375e-06
aF2.1875e-05
aF2.1875e-05
aF3.125e-06
aF1.5625e-05
aF3.125e-06
aF0.0
aF0.0
aF3.4375e-05
aF0.000190625
aF0.0
aF3.125e-06
aF9.375e-06
aF3.125e-06
aF6.25e-06
aF3.75e-05
aF0.0005125
aF0.001315625
aF0.00125
aF8.125e-05
aF0.00285
aF0.00146875
aF0.0
aF0.0
aF0.0045375
aF0.006175
aF6.25e-06
aF0.000159375
aF6.25e-06
aF0.0
aF0.0
aF0.0033625
aF0.00175625
aF9.375e-06
aF3.125e-06
aF1.875e-05
aF6.25e-06
aF4.6875e-05
aF3.125e-06
aF0.003815625
aF0.00473125
aF0.000296875
aF3.125e-06
aF4.6875e-05
aF3.125e-06
aF0.00089375
aF6.25e-06
aF0.0003125
aF6.25e-05
aF0.00364375
aF1.5625e-05
aF0.000175
aF0.000228125
aF0.00035
aF0.000128125
aF0.000296875
aF5.9375e-05
aF4.375e-05
aF0.000428125
aF0.000465625
aF0.000346875
aF0.00114375
aF0.009434375
aF0.0010375
aF1.5625e-05
aF9.375e-06
aF7.8125e-05
aF2.8125e-05
aF0.000178125
aF0.000275
aF0.000703125
aF1.875e-05
aF4.375e-05
aF0.0
aF0.0
aF0.000221875
aF0.001328125
aF0.000725
aF0.0
aF0.00015
aF0.0
aF0.000215625
aF0.0001
aF4.6875e-05
aF0.000115625
aF0.017046875
aF0.0
aF0.000584375
aF0.000328125
aF0.003840625
aF0.0023375
aF0.00026875
aF0.00183125
aF7.5e-05
aF6.25e-06
aF6.25e-06
aF6.25e-05
aF3.125e-06
aF9.375e-06
aF6.25e-06
aF0.0
aF6.25e-06
aF0.0
aF3.125e-06
aF3.125e-06
aF3.125e-06
aF6.25e-06
aF3.125e-06
aF0.0
aF3.125e-06
aF0.0
aF0.0
aF3.125e-06
aF3.125e-06
aF3.125e-06
aF0.0
aF9.375e-06
aF3.125e-06
aF3.125e-06
aF6.25e-06
aF3.125e-06
aF0.0
aF0.0
aF5e-05
aF0.0
aF0.0
aF0.0
aF9.0625e-05
aF0.000415625
aF0.00081875
aF0.683506245
aF7.8125e-05
aF4.6875e-05
aF3.125e-05
aF3.125e-06
aF1.25e-05
aF3.125e-05
aF2.1875e-05
aF0.0
aF0.0
aF1.5625e-05
aF6.25e-06
aF4.6875e-05
aF3.75e-05
aF0.0001
aF0.000103125
aF0.000334375
aF3.125e-06
aF0.00025
aF7.1875e-05
aF0.0
aF4.375e-05
aF0.00145
aF0.0336
aF0.0
aF0.0
aF0.0
aF0.0
aF3.125e-06
aF3.125e-06
aF0.0
aF9.375e-06
aF0.0
aF6.25e-06
aF6.25e-06
aF3.125e-06
aF9.375e-06
aF2.5e-05
aF4.6875e-05
aF0.04761875
aF0.0
aF0.0
aF3.4375e-05
aF2.1875e-05
aF0.0
aF3.125e-06
aF0.0
aF3.125e-06
aF0.0
aF3.125e-06
aF9.375e-06
aF3.125e-06
aF2.1875e-05
aF1.25e-05
aF3.125e-06
aF1.5625e-05
aF0.00033125
aF0.148834375
aF0.00051875
aF0.001453125
aF9.375e-06
aF0.00011875
aF0.00023125
aF8.4375e-05
aF0.049140625
aF2.8125e-05
aF0.0
aF4.0625e-05
aF0.0
aF1.875e-05
aF7.5e-05
aF0.00059375
aF3.125e-06
aF3.125e-06
aF6.25e-06
aF9.375e-06
aF6.25e-06
aF0.0
aF0.0
aF3.125e-06
aF0.0
aF3.125e-06
aF4.6875e-05
aF0.000309375
aF0.00075
aF0.00164375
aF0.001653125
aF0.0
aF0.0
aF0.00018125
aF0.0
aF0.0
aF0.000153125
aF0.000121875
aF0.0
aF5e-05
aF0.00021875
aF2.1875e-05
aF0.00026875
aF0.00020625
aF8.125e-05
aF0.00120625
aF0.098425
aF0.19430937999999998
aF0.0
aF0.0
aF1.875e-05
aF0.000309375
aF0.000171875
aF0.000978125
aF0.0
aF0.0
aF0.0018875
aF0.0
aF3.125e-06
aF0.0
aF0.0
aF0.0
aF1.25e-05
aF0.0
aF0.003975
aF0.165612495
aF0.0187625
aF0.001371875
aF0.0
aF0.0
aF0.0
aF9.375e-06
aF2.1875e-05
aF1.25e-05
aF1.875e-05
aF2.1875e-05
aF3.125e-06
aF1.875e-05
aF9.375e-06
aF3.125e-05
aF6.25e-06
aF1.25e-05
aF1.5625e-05
aF0.000165625
aF3.125e-06
aF0.000159375
aF3.125e-05
aF6.875e-05
aF0.0004375
aF0.416534375
aF4.063000000001011e-05
aF8.436999999998988e-05
aF6.260000000020227e-06
aF3.1199999999898866e-06
aF2.1880000000010114e-05
aF3.436999999998989e-05
aF0.0001125
aF0.0001375
aF0.00024686999999998986
aF0.0006156300000000101
aF0.003578125
aF1.25e-05
aF6.5625e-05
aF0.000125
aF6.5625e-05
aF0.000165625
aF0.0001875
aF3.75e-05
aF6.875e-05
aF0.000328125
aF0.0002875
aF0.0008125
aF0.001715625
aF0.009990625
aF3.125e-06
aF0.00014375
aF3.125e-06
aF1.25e-05
aF3.125e-06
aF2.5e-05
aF4.375e-05
aF7.5e-05
aF3.125e-05
aF4.375e-05
aF1.875e-05
aF0.000246875
aF0.00011875
aF0.000125
aF0.000265625
aF0.001153125
aF0.012321875
aF0.002053125
aF0.11130623999999997
aF0.0
aF0.00023125
aF0.00049375
aF0.00104375
aF6.25e-06
aF3.125e-06
aF3.125e-06
aF0.0
aF3.125e-06
aF1.875e-05
aF1.875e-05
aF6.25e-06
aF6.25e-06
aF0.0
aF0.00043125
aF0.00100625
aF0.00103125
aF0.000215625
aF0.00151875
aF0.0
aF1.5625e-05
aF0.00010625
aF0.001278125
aF2.5e-05
aF0.0
aF6.25e-06
aF3.125e-06
aF6.25e-06
aF0.0
aF3.4375e-05
aF9.6875e-05
aF0.00011875
aF3.125e-06
aF6.25e-06
aF3.75e-05
aF3.75e-05
aF6.875e-05
aF1.25e-05
aF2.8125e-05
aF0.00040625
aF0.007203125
aF0.003596875
aF0.000521875
aF0.004465625
aF0.001228125
aF0.0
aF0.000296875
aF0.002840625
aF0.00159375
aF0.293496875
aF0.0
aF0.00086875
aF0.001221875
aF6.875e-05
aF0.0032625
aF3.4375e-05
aF0.000425
aF0.00631875
aF0.00106875
aF3.125e-05
aF0.00038125
aF3.75e-05
aF0.000103125
aF0.001065625
aF0.0
aF0.000465625
aF0.0
aF3.4375e-05
aF8.125e-05
aF1.875e-05
aF6.25e-05
aF0.000221875
aF6.25e-05
aF6.25e-06
aF3.125e-06
aF2.1875e-05
aF0.0002125
aF3.125e-06
aF6.25e-06
aF0.000496875
aF0.0
aF0.0
aF1.25e-05
aF0.000271875
aF1.5625e-05
aF0.000225
aF4.6875e-05
aF0.00056875
aF0.000846875
aF0.012596875
aF0.001003125
aF0.0
aF1.875e-05
aF0.001709375
aF0.0003
aF0.000840625
aF5.3125e-05
aF3.4375e-05
aF1.5625e-05
aF4.0625e-05
aF6.25e-06
aF0.00035625
aF0.0
aF9.0625e-05
aF0.000290625
aF5.625e-05
aF0.000184375
aF6.5625e-05
aF0.001215625
aF0.0
aF0.001115625
aF0.000634375
aF0.000171875
aF9.0625e-05
aF0.000696875
aF0.003828125
aF0.00791875
aF0.00054375
aF9.0625e-05
aF0.000190625
aF0.012659375
aF0.001146875
aF3.125e-06
aF0.0
aF0.0
aF0.0
aF0.0
aF0.0
aF1.25e-05
aF0.0075375
aF0.00615
aF0.00150625
aF0.00101875
aF0.0
aF0.0
aF7.8125e-05
aF6.25e-06
aF0.0001875
aF0.0
aF0.000178125
aF3.4375e-05
aF0.002109375
aF3.125e-06
aF3.125e-06
aF0.0
aF0.0
aF3.125e-06
aF0.0
aF0.0
aF0.003603125
aF4.0625e-05
aF0.003671875
aF0.005359375
aF0.0013406199999999899
aF0.0004125
aF6.563000000001012e-05
aF1.5630000000010115e-05
aF3.125e-06
aF9.375e-06
aF0.0
aF0.0
aF1.875e-05
aF2.8125e-05
aF6.25e-06
aF0.00025
aF0.000671875
aF0.000378125
aF0.000115625
aF9.375e-05
aF4.6875e-05
aF0.00026875
aF9.6875e-05
aF0.234996875
aF0.0
aF0.0002625
aF0.0025
aF6.25e-06
aF1.875e-05
aF6.25e-06
aF1.25e-05
aF2.1875e-05
aF1.5625e-05
aF0.0
aF2.8125e-05
aF4.6875e-05
aF2.5e-05
aF7.5e-05
aF0.000275
aF0.000528125
aF0.000371875
aF4.375e-05
aF9.6875e-05
aF0.0
aF5e-05
aF0.000159375
aF0.000490625
aF0.001128125
aF0.000846875
aF0.000915625
aF0.0004625
aF0.000571875
aF7.8125e-05
aF9.6875e-05
aF0.0
aF0.00131875
aF0.00060625
aF0.001025
aF0.0023875
aF0.00250625
aF0.00206875
aF0.038309375
aF9.375e-05
aF0.0004
aF0.0
aF0.0003625
aF0.000740625
aF0.000303125
aF0.002715625
aF0.00443125
aF1.5625e-05
aF5.9375e-05
aF2.8125e-05
aF3.125e-06
aF9.375e-06
aF3.125e-05
aF2.8125e-05
aF0.000303125
aF0.0011375
aF0.000165625
aF0.0020875
aF3.75e-05
aF3.125e-05
aF1.25e-05
aF6.25e-06
aF0.00015625
aF9.375e-06
aF3.4375e-05
aF0.00015625
aF0.000103125
aF0.00046875
aF0.000140625
aF0.00033125
aF2.5e-05
aF3.125e-06
aF0.008603125
aF0.000425
aF0.003715625
aF0.003846875
aF0.0001875
aF0.002275
aF0.000765625
aF0.004878125
aF0.07305625
aF4.6875e-05
aF8.125e-05
aF0.0010875
aF0.000434375
aF0.00026875
aF0.000371875
aF0.00024375
aF0.0039875
aF0.0
aF0.0
aF0.0
aF0.0
aF0.0
aF0.001771875
aF0.001115625
aF0.00939375
aF0.172671875
aF9.375e-06
aF0.00159375
aF0.0
aF7.8125e-05
aF0.00428125
aF0.001290625
aF0.00291875
aF0.0
aF0.0
aF0.0
aF5.625e-05
aF0.00445
aF0.002646875
aF0.054809375
aF2.1875e-05
aF0.0
aF5.9375e-05
aF4.375e-05
aF0.0
aF0.000209375
aF0.0001625
aF0.000259375
aF0.000865625
aF3.125e-06
aF5e-05
aF0.0
aF6.25e-06
aF3.75e-05
aF5.3125e-05
aF0.002109375
aF0.00061875
aF0.001015625
aF0.0
aF0.0
aF3.125e-05
aF0.0
aF0.0
aF0.0
aF0.0
aF3.75e-05
aF1.25e-05
aF9.375e-06
aF9.375e-05
aF0.000346875
aF0.00029375
aF9.375e-06
aF0.0003625
aF0.00043125
aF0.0006375
aF0.0003875
aF0.000121875
aF0.00085
aF0.001790625
aF0.000559375
aF0.0
aF0.002865625
aF0.000278125
aF0.02118125
aF1.875e-05
aF0.000890625
aF0.000471875
aF1.875e-05
aF6.25e-05
aF0.000165625
aF0.000909375
aF0.0
aF0.000159375
aF0.00516875
aF0.00034375
aF0.0001
aF0.001034375
aF0.00273125
aF0.002828125
aF0.005659375
aF0.0
aF2.1875e-05
aF4.0625e-05
aF3.125e-06
aF1.5625e-05
aF0.001359375
aF0.000125
aF0.0009625
aF0.0399375
aF0.24756875
aF0.1414593999999999
aF0.0478625
aF0.0004968699999999899
aF2.1869999999989885e-05
aF0.00225938000000001
aF2.8125e-05
aF1.25e-05
aF0.0
aF5e-05
aF0.000128125
aF8.75e-05
aF2.1875e-05
aF0.002378125
aF0.000921875
aF0.002990625
aF4.375e-05
aF0.00076875
aF0.001025
aF0.00058125
aF9.375e-05
aF0.00049375
aF0.00013125
aF6.5625e-05
aF0.00124375
aF0.00019375
aF0.0
aF0.002115625
aF0.01948125
aF0.009246875
aF0.30460625
aF6.875e-05
aF0.04906875
aF0.00485625
aF9.375e-06
aF0.0
aF0.00485
aF0.00079375
aF0.000175
aF1.875e-05
aF0.0
aF0.000321875
aF9.6875e-05
aF0.0
aF0.000484375
aF4.6875e-05
aF4.6875e-05
aF0.004346875
aF2.5e-05
aF0.0
aF3.125e-06
aF1.25e-05
aF5.3125e-05
aF0.0
aF6.5625e-05
aF0.00016875
aF9.375e-06
aF0.000128125
aF0.001471875
aF3.125e-06
aF0.0
aF1.875e-05
aF3.125e-06
aF3.125e-06
aF9.375e-06
aF3.125e-06
aF9.375e-06
aF0.0
aF3.125e-06
aF3.125e-06
aF6.25e-06
aF1.25e-05
aF6.25e-06
aF6.25e-06
aF0.0
aF2.1875e-05
aF0.0
aF2.5e-05
aF0.29449062
aF0.15572813000000002
aF0.01215
aF6.875e-05
aF2.1875e-05
aF0.001946875
aF0.0
aF0.0
aF0.0
aF0.0601
aF0.409309375
aF0.0003125
aF0.0
aF1.25e-05
aF1.5625e-05
aF0.000125
aF5.625e-05
aF0.0024375
aF6.25e-06
aF3.125e-06
aF0.0
aF0.0
aF3.125e-06
aF9.375e-06
aF6.25e-06
aF6.25e-06
aF0.00058125
aF0.000325
aF0.00715625
aF0.00255625
aF0.024228125
aF4.375e-05
aF3.125e-06
aF0.0
aF4.0625e-05
aF0.000628125
aF0.00084375
aF0.000453125
aF0.0
aF0.0
aF0.0
aF0.0
aF0.0
aF1.5625e-05
aF0.000628125
aF0.002796875
aF0.00074375
aF0.0003625
aF4.0625e-05
aF6.25e-06
aF1.25e-05
aF9.375e-06
aF0.0
aF3.125e-06
aF3.125e-06
aF1.5625e-05
aF1.5625e-05
aF0.000534375
aF3.125e-06
aF6.25e-06
aF0.00079375
aF0.0
aF0.0
aF0.0
aF0.0
aF0.0
aF0.0
aF0.000128125
aF0.003346875
aF0.0005625
aF0.00050625
aF2.8125e-05
aF0.0
aF1.25e-05
aF2.8125e-05
aF3.125e-06
aF0.0
aF2.1875e-05
aF7.8125e-05
aF0.000178125
aF0.000240625
aF0.00096875
aF0.24628124499999998
aF0.002975
aF0.0009
aF0.01019061999999999
aF0.06813438000000001
aF0.0
aF6.875e-05
aF0.000421875
aF0.0
aF0.0
aF0.0
aF0.0
aF0.0
aF0.0
aF0.11104688000000001
aF0.01394061999999999
aF0.04694375
aF2.8125e-05
aF3.125e-05
aF0.001534375
aF0.0009375
aF0.000321875
aF0.0
aF0.0
aF3.125e-06
aF0.0
aF5.9375e-05
aF6.25e-06
aF2.5e-05
aF0.000146875
aF0.000703125
aF0.000853125
aF0.045209375
aF0.09612188
aF0.04551561999999999
aF0.02209688000000001
aF0.00016873999999997977
aF3.126000000002023e-05
aF0.0
aF0.0
aF0.0
aF3.1199999999898866e-06
aF0.00334061999999999
aF0.00351876000000002
aF0.08138436999999998
aF0.0
aF0.0
aF0.0002
aF0.00330936999999999
aF0.0278375
aF0.00446876000000002
aF0.14801562
aF0.017046879999999966
aF0.03684062000000003
aF0.06424375
aF0.0597
aF0.0441
aF5e-05
aF9.375e-06
aF6.25e-06
aF7.5e-05
aF0.00108125
aF3.125e-06
aF0.0
aF0.0
aF3.125e-05
aF2.5e-05
aF0.000134375
aF2.5e-05
aF2.1875e-05
aF9.0625e-05
aF6.25e-06
aF6.5625e-05
aF8.75e-05
aF0.002675
aF0.001859375
aF0.00046875
aF3.4375e-05
aF9.6875e-05
aF8.4375e-05
aF0.000415625
aF6.5625e-05
aF0.000140625
aF0.00015625
aF4.6875e-05
aF0.0
aF1.25e-05
aF6.25e-06
aF6.25e-06
aF3.125e-06
aF0.0
aF6.25e-06
aF0.0
aF3.125e-06
aF6.25e-06
aF3.125e-06
aF3.125e-06
aF9.375e-06
aF3.125e-06
aF0.0001375
aF0.000203125
aF0.00018125
aF0.001053125
aF0.003309375
aF0.001071875
aF0.22775313
aF0.00282186999999999
aF0.0
aF0.0
aF0.006796875
aF0.0
aF0.0
aF6.25e-06
aF8.75e-05
aF0.0
aF1.25e-05
aF4.0625e-05
aF0.000171875
aF2.8125e-05
aF0.000165625
aF0.000909375
aF0.001015625
aF3.125e-06
aF0.00099375
aF0.000196875
aF0.0018
aF0.0
aF0.000259375
aF0.00148125
aF0.007759375
aF0.000728125
aF1.5625e-05
aF2.5e-05
aF3.125e-05
aF0.0
aF0.0
aF0.0
aF0.0
aF2.5e-05
aF5.9375e-05
aF0.004403125
aF0.015106259999999929
aF9.375e-06
aF6.25e-06
aF0.000165625
aF0.0002125
aF0.00149375
aF0.00093125
aF4.375e-05
aF0.000646875
aF3.125e-06
aF0.0002375
aF2.5e-05
aF8.75e-05
aF0.000115625
aF0.000128125
aF0.000696875
aF4.6875e-05
aF0.000734375
aF0.13745938000000002
aF1.875e-05
aF4.0625e-05
aF4.6875e-05
aF6.875e-05
aF1.875e-05
aF5e-05
aF3.125e-05
aF3.125e-05
aF1.25e-05
aF0.0
aF0.0
aF0.0
aF0.0
aF0.0
aF6.5625e-05
aF9.375e-06
aF7.1875e-05
aF0.00028125
aF0.000121875
aF0.00306563000000001
aF0.11174063000000001
aF0.0
aF8.4375e-05
aF0.0
aF0.0
aF0.0
aF0.0
aF0.0
aF0.0
aF7.5e-05
aF3.75e-05
aF9.375e-06
aF0.00036875
aF6.25e-06
aF3.75e-05
aF3.125e-06
aF4.375e-05
aF0.0
aF5e-05
aF9.375e-06
aF5.9375e-05
aF0.000203125
aF0.000603125
aF0.000521875
aF0.001340625
aF0.0021
aF1.25e-05
aF0.0
aF3.125e-06
aF0.0
aF6.25e-06
aF2.1875e-05
aF0.000215625
aF0.0002125
aF0.000615625
aF0.0001125
aF0.00545625
aF0.00561875
aF2.1875e-05
aF4.6875e-05
aF0.000396875
aF0.03778125
aF0.000521875
aF9.375e-06
aF4.6875e-05
aF0.000203125
aF2.8125e-05
aF0.000496875
aF3.125e-06
aF6.25e-06
aF6.25e-06
aF3.125e-06
aF3.125e-06
aF3.125e-06
aF0.0
aF0.0
aF0.0
aF0.0
aF3.125e-06
aF0.0
aF0.0
aF0.0
aF0.0
aF3.125e-06
aF6.25e-06
aF3.125e-06
aF1.25e-05
aF0.0
aF6.25e-06
aF3.125e-06
aF3.4375e-05
aF0.0
aF6.25e-06
aF6.25e-06
aF4.0625e-05
aF0.00035625
aF0.0048875
aF0.000346875
aF0.001178125
aF0.000309375
aF2.8125e-05
aF1.25e-05
aF2.5e-05
aF0.0007625
aF0.00174375
aF0.0
aF2.1875e-05
aF2.5e-05
aF5.625e-05
aF0.000121875
aF0.00026875
aF0.000528125
aF3.125e-06
aF6.25e-06
aF3.125e-06
aF0.0
aF0.0
aF0.0
aF0.0001875
aF5.3125e-05
aF0.000109375
aF8.75e-05
aF0.000284375
aF0.004109375
aF4.6875e-05
aF5.9375e-05
aF0.000740625
aF0.0005
aF3.75e-05
aF0.00021875
aF8.4375e-05
aF0.000109375
aF0.000534375
aF0.0
aF0.0
aF0.0
aF1.875e-05
aF0.002259375
aF1.5625e-05
aF1.25e-05
aF3.125e-06
aF6.25e-06
aF8.125e-05
aF0.0
aF1.5625e-05
aF1.5625e-05
aF2.1875e-05
aF4.6875e-05
aF1.875e-05
aF8.75e-05
aF0.000421875
aF0.001334375
aF3.125e-06
aF3.125e-06
aF0.000178125
aF0.0004125
aF1.5625e-05
aF4.375e-05
aF0.127071875
aF0.05525
aF1.25e-05
aF0.06936563000000001
aF6.25e-06
aF6.875e-05
aF3.75e-05
aF7.5e-05
aF1.25e-05
aF1.25e-05
aF6.25e-06
aF0.0
aF6.25e-06
aF6.25e-06
aF9.375e-06
aF2.5e-05
aF2.5e-05
aF3.125e-05
aF5.9375e-05
aF1.5625e-05
aF6.25e-06
aF0.000684375
aF4.375e-05
aF0.005759379999999965
aF0.0008156200000000353
aF0.021621879999999965
aF2.187000000003536e-05
aF0.03255625
aF0.024725
aF0.08365937999999996
aF0.35910312000000005
aF6.25e-06
aF4.6875e-05
aF0.00016875
aF0.000321875
aF2.8125e-05
aF9.375e-05
aF0.000696875
aF0.00050625
aF0.001834375
aF0.0013875
aF0.0
aF3.125e-06
aF0.0
aF3.125e-06
aF3.125e-06
aF0.0
aF0.0
aF2.1875e-05
aF0.0001
aF0.000990625
aF2.1875e-05
aF0.00055625
aF9.0625e-05
aF0.00086875
aF0.000465625
aF0.00016875
aF0.00504375
aF0.0382
aF0.0
a.