(lp0
F2609.0
aF486.0
aF34.0
aF1645.0
aF467.0
aF801.0
aF1279.0
aF378.0
aF0.0
aF31.0
aF4083.0
aF496.0
aF64.0
aF31.0
aF2818.0
aF516.0
aF197.0
aF229.0
aF217.0
aF207.0
aF116.0
aF844.0
aF331.0
aF48.0
aF660.0
aF4129.0
aF1751.0
aF2829.0
aF229.0
aF1348.0
aF2113.0
aF2349.0
aF281.0
aF341.0
aF259.0
aF219.0
aF223.0
aF359.0
aF264.0
aF282.0
aF3.0
aF6.0
aF5.0
aF1552.0
aF542.0
aF3.0
aF6.0
aF18.0
aF16.0
aF29.0
aF28.0
aF6.0
aF3.0
aF5.0
aF236.0
aF3872.0
aF3205.0
aF44.0
aF660.0
aF48.0
aF453.0
aF1100.0
aF173.0
aF198.0
aF2704.0
aF5.0
aF16.0
aF152.0
aF1109.0
aF49.0
aF1327.0
aF360.0
aF301.0
aF577.0
aF613.0
aF586.0
aF208.0
aF451.0
aF184.0
aF776.0
aF1016.0
aF1029.0
aF886.0
aF48.0
aF421.0
aF458.0
aF4.0
aF689.0
aF1619.0
aF276.0
aF1269.0
aF614.0
aF686.0
aF2419.0
aF753.0
aF2559.0
aF2921.0
aF237.0
aF806.0
aF0.0
aF4.0
aF379.0
aF1278.0
aF205.0
aF127.0
aF1016.0
aF770.0
aF260.0
aF2346.0
aF288.0
aF1484.0
aF831.0
aF604.0
aF428.0
aF634.0
aF1179.0
aF1313.0
aF1009.0
aF1591.0
aF241.0
aF34.0
aF775.0
aF1524.0
aF386.0
aF15.0
aF4.0
aF118.0
aF1539.0
aF2806.0
aF1319.0
aF4089.0
aF826.0
aF2.0
aF15.0
aF289.0
aF148.0
aF342.0
aF2305.0
aF898.0
aF20.0
aF108.0
aF7.0
aF38.0
aF1012.0
aF534.0
aF1027.0
aF3.0
aF18.0
aF6.0
aF5.0
aF1317.0
aF83.0
aF184.0
aF1121.0
aF31.0
aF149.0
aF240.0
aF260.0
aF1428.0
aF101.0
aF347.0
aF411.0
aF520.0
aF99.0
aF4.0
aF98.0
aF52.0
aF1629.0
aF1670.0
aF78.0
aF2261.0
aF658.0
aF2.0
aF22.0
aF230.0
aF19.0
aF27.0
aF65.0
aF4.0
aF3904.0
aF645.0
aF463.0
aF42.0
aF93.0
aF368.0
aF91.0
aF14.0
aF211.0
aF406.0
aF3055.0
aF617.0
aF350.0
aF38.0
aF312.0
aF509.0
aF3448.0
aF89.0
aF1205.0
aF2244.0
aF1490.0
aF823.0
aF109.0
aF70.0
aF4.0
aF17.0
aF3765.0
aF935.0
aF148.0
aF566.0
aF241.0
aF2149.0
aF1233.0
aF1574.0
aF32.0
aF140.0
aF2064.0
aF6.0
aF30.0
aF2296.0
aF903.0
aF156.0
aF110.0
aF251.0
aF1753.0
aF1933.0
aF2181.0
aF519.0
aF1852.0
aF730.0
aF1954.0
aF65.0
aF2594.0
aF470.0
aF87.0
aF2344.0
aF201.0
aF996.0
aF243.0
aF2359.0
aF2987.0
aF362.0
aF573.0
aF82.0
aF6.0
aF18.0
aF5.0
aF2579.0
aF1044.0
aF152.0
aF1074.0
aF383.0
aF239.0
aF1063.0
aF727.0
aF2106.0
aF1329.0
aF2284.0
aF2522.0
aF31.0
aF8.0
aF837.0
aF2909.0
aF3970.0
aF170.0
aF228.0
aF4.0
aF45.0
aF117.0
aF421.0
aF70.0
aF2.0
aF196.0
aF276.0
aF2542.0
aF1541.0
aF819.0
aF2099.0
aF152.0
aF12.0
aF628.0
aF332.0
aF1625.0
aF772.0
aF916.0
aF280.0
aF49.0
aF263.0
aF650.0
aF119.0
aF171.0
aF128.0
aF37.0
aF20.0
aF7.0
aF19.0
aF416.0
aF232.0
aF156.0
aF138.0
aF230.0
aF679.0
aF4.0
aF65.0
aF75.0
aF72.0
aF290.0
aF93.0
aF25.0
aF24.0
aF903.0
aF322.0
aF1198.0
aF1166.0
aF92.0
aF22.0
aF21.0
aF55.0
aF1317.0
aF24.0
aF32.0
aF3449.0
aF138.0
aF4.0
aF27.0
aF498.0
aF583.0
aF7.0
aF159.0
aF236.0
aF51.0
aF2026.0
aF447.0
aF240.0
aF46.0
aF15.0
aF382.0
aF374.0
aF387.0
aF365.0
aF420.0
aF456.0
aF367.0
aF393.0
aF381.0
aF399.0
aF2884.0
aF542.0
aF2449.0
aF131.0
aF649.0
aF2.0
aF116.0
aF188.0
aF2551.0
aF1991.0
aF959.0
aF27.0
aF462.0
aF1944.0
aF32.0
aF817.0
aF80.0
aF1208.0
aF369.0
aF61.0
aF96.0
aF116.0
aF583.0
aF55.0
aF526.0
aF2421.0
aF2471.0
aF1802.0
aF1610.0
aF2850.0
aF2083.0
aF888.0
aF386.0
aF509.0
aF4.0
aF2.0
aF2420.0
aF686.0
aF614.0
aF212.0
aF1319.0
aF678.0
aF50.0
aF434.0
aF2646.0
aF118.0
aF538.0
aF1539.0
aF32.0
aF20.0
aF130.0
aF132.0
aF40.0
aF85.0
aF258.0
aF116.0
aF111.0
aF470.0
aF107.0
aF163.0
aF719.0
aF760.0
aF72.0
aF25.0
aF75.0
aF1000.0
aF1825.0
aF2783.0
aF712.0
aF1311.0
aF885.0
aF1433.0
aF5.0
aF18.0
aF3.0
aF6.0
aF16.0
aF2660.0
aF49.0
aF511.0
aF3668.0
aF2935.0
aF1027.0
aF620.0
aF524.0
aF834.0
aF1276.0
aF25.0
aF5.0
aF3.0
aF6.0
aF396.0
aF1924.0
aF247.0
aF1635.0
aF1305.0
aF659.0
aF605.0
aF1250.0
aF3689.0
aF229.0
aF1374.0
aF278.0
aF271.0
aF275.0
aF1051.0
aF457.0
aF216.0
aF2306.0
aF44.0
aF447.0
aF31.0
aF240.0
aF317.0
aF4247.0
aF4679.0
aF2201.0
aF1224.0
aF280.0
aF118.0
aF624.0
aF919.0
aF819.0
aF947.0
aF1296.0
aF2157.0
aF131.0
aF482.0
aF467.0
aF584.0
aF637.0
aF731.0
aF1899.0
aF18.0
aF627.0
aF375.0
aF1812.0
aF1847.0
aF1818.0
aF1868.0
aF1846.0
aF2725.0
aF1872.0
aF2269.0
aF1891.0
aF0.0
aF422.0
aF886.0
aF2355.0
aF1100.0
aF680.0
aF1013.0
aF740.0
aF618.0
aF180.0
aF822.0
aF239.0
aF1356.0
aF383.0
aF900.0
aF3712.0
aF2578.0
aF289.0
aF4.0
aF83.0
aF2419.0
aF1490.0
aF198.0
aF48.0
aF66.0
aF44.0
aF425.0
aF548.0
aF475.0
aF1114.0
aF877.0
aF1366.0
aF618.0
aF605.0
aF1565.0
aF2972.0
aF382.0
aF374.0
aF393.0
aF367.0
aF365.0
aF399.0
aF208.0
aF586.0
aF360.0
aF999.0
aF2988.0
aF2813.0
aF3007.0
aF75.0
aF65.0
aF312.0
aF795.0
aF400.0
aF42.0
aF731.0
aF2978.0
aF2041.0
aF179.0
aF2376.0
aF44.0
aF48.0
aF242.0
aF3703.0
aF178.0
aF1239.0
aF31.0
aF1619.0
aF706.0
aF982.0
aF727.0
aF618.0
aF215.0
aF239.0
aF629.0
aF564.0
aF740.0
aF383.0
aF1318.0
aF1356.0
aF900.0
aF4.0
aF35.0
aF689.0
aF118.0
aF277.0
aF3665.0
aF710.0
aF2620.0
aF268.0
aF694.0
aF13.0
aF2.0
aF2128.0
aF2639.0
aF643.0
aF381.0
aF420.0
aF399.0
aF382.0
aF387.0
aF365.0
aF393.0
aF374.0
aF367.0
aF0.0
aF3136.0
aF217.0
aF490.0
aF440.0
aF615.0
aF1928.0
aF255.0
aF3261.0
aF192.0
aF743.0
aF379.0
aF1220.0
aF1196.0
aF49.0
aF171.0
aF3077.0
aF342.0
aF2209.0
aF131.0
aF169.0
aF1909.0
aF1915.0
aF1976.0
aF1465.0
aF2934.0
aF859.0
aF995.0
aF2268.0
aF1961.0
aF1461.0
aF1746.0
aF229.0
aF207.0
aF58.0
aF59.0
aF1508.0
aF615.0
aF626.0
aF4446.0
aF1635.0
aF6.0
aF3.0
aF30.0
aF124.0
aF18.0
aF5.0
aF6.0
aF396.0
aF79.0
aF1795.0
aF367.0
aF382.0
aF420.0
aF456.0
aF387.0
aF381.0
aF393.0
aF374.0
aF399.0
aF365.0
aF659.0
aF1280.0
aF876.0
aF780.0
aF1203.0
aF1506.0
aF685.0
aF905.0
aF319.0
aF199.0
aF703.0
aF626.0
aF316.0
aF204.0
aF284.0
aF324.0
aF3194.0
aF3625.0
aF203.0
aF205.0
aF2542.0
aF64.0
aF99.0
aF471.0
aF4156.0
aF674.0
aF537.0
aF142.0
aF1300.0
aF355.0
aF890.0
aF600.0
aF330.0
aF4132.0
aF1283.0
aF936.0
aF3170.0
aF2492.0
aF241.0
aF386.0
aF2149.0
aF336.0
aF431.0
aF0.0
aF103.0
aF2987.0
aF35.0
aF85.0
aF28.0
aF24.0
aF29.0
aF37.0
aF32.0
aF1693.0
aF80.0
aF144.0
aF27.0
aF107.0
aF407.0
aF211.0
aF934.0
aF3193.0
aF55.0
aF106.0
aF579.0
aF1484.0
aF1392.0
aF143.0
aF1048.0
aF554.0
aF21.0
aF289.0
aF2584.0
aF64.0
aF1074.0
aF324.0
aF3261.0
aF174.0
aF255.0
aF192.0
aF818.0
aF735.0
aF737.0
aF0.0
aF295.0
aF659.0
aF576.0
aF1383.0
aF2539.0
aF835.0
aF355.0
aF2.0
aF1301.0
aF1262.0
aF344.0
aF411.0
aF101.0
aF347.0
aF2752.0
aF694.0
aF276.0
aF70.0
aF4.0
aF553.0
aF371.0
aF132.0
aF292.0
aF84.0
aF72.0
aF270.0
aF25.0
aF1651.0
aF144.0
aF55.0
aF338.0
aF278.0
aF358.0
aF758.0
aF275.0
aF271.0
aF265.0
aF74.0
aF187.0
aF18.0
aF62.0
aF798.0
aF512.0
aF2490.0
aF365.0
aF393.0
aF382.0
aF374.0
aF367.0
aF456.0
aF420.0
aF387.0
aF399.0
aF381.0
aF3.0
aF5.0
aF396.0
aF79.0
aF424.0
aF204.0
aF207.0
aF565.0
aF298.0
aF1754.0
aF253.0
aF3351.0
aF3119.0
aF448.0
aF45.0
aF68.0
aF78.0
aF118.0
aF276.0
aF169.0
aF1268.0
aF2310.0
aF448.0
aF2838.0
aF883.0
aF2805.0
aF365.0
aF387.0
aF399.0
aF381.0
aF393.0
aF374.0
aF456.0
aF420.0
aF367.0
aF382.0
aF127.0
aF98.0
aF1649.0
aF1656.0
aF68.0
aF169.0
aF134.0
aF117.0
aF52.0
aF113.0
aF76.0
aF100.0
aF785.0
aF664.0
aF2031.0
aF262.0
aF1301.0
aF1843.0
aF1094.0
aF501.0
aF547.0
aF1060.0
aF1072.0
aF1069.0
aF90.0
aF21.0
aF32.0
aF40.0
aF54.0
aF43.0
aF19.0
aF87.0
aF104.0
aF72.0
aF103.0
aF92.0
aF401.0
aF102.0
aF226.0
aF270.0
aF167.0
aF161.0
aF140.0
aF61.0
aF292.0
aF517.0
aF80.0
aF86.0
aF1265.0
aF38.0
aF1261.0
aF2134.0
aF38.0
aF7.0
aF20.0
aF130.0
aF40.0
aF138.0
aF19.0
aF435.0
aF4.0
aF25.0
aF159.0
aF72.0
aF2686.0
aF381.0
aF374.0
aF365.0
aF382.0
aF367.0
aF420.0
aF498.0
aF7.0
aF1944.0
aF2.0
aF368.0
aF42.0
aF1939.0
aF406.0
aF617.0
aF1442.0
aF133.0
aF433.0
aF245.0
aF1166.0
aF407.0
aF2897.0
aF350.0
aF38.0
aF2686.0
aF590.0
aF400.0
aF3534.0
aF248.0
aF72.0
aF795.0
aF339.0
aF834.0
aF864.0
aF1327.0
aF1005.0
aF2483.0
aF2496.0
aF301.0
aF1511.0
aF247.0
aF210.0
aF255.0
aF117.0
aF2033.0
aF197.0
aF207.0
aF217.0
aF229.0
aF356.0
aF614.0
aF1182.0
aF739.0
aF2350.0
aF878.0
aF255.0
aF905.0
aF3261.0
aF2955.0
aF4429.0
aF601.0
aF254.0
aF219.0
aF286.0
aF281.0
aF274.0
aF259.0
aF223.0
aF3145.0
aF212.0
aF133.0
aF742.0
aF39.0
aF40.0
aF297.0
aF330.0
aF2397.0
aF85.0
aF1300.0
aF395.0
aF268.0
aF597.0
aF513.0
aF1563.0
aF2036.0
aF1545.0
aF2066.0
aF3101.0
aF3069.0
aF887.0
aF117.0
aF60.0
aF436.0
aF46.0
aF124.0
aF3650.0
aF3610.0
aF3445.0
aF2078.0
aF3653.0
aF1875.0
aF1559.0
aF3778.0
aF3025.0
aF1971.0
aF1103.0
aF771.0
aF2694.0
aF2003.0
aF100.0
aF358.0
aF271.0
aF267.0
aF278.0
aF275.0
aF885.0
aF587.0
aF3674.0
aF775.0
aF1352.0
aF1143.0
aF764.0
aF325.0
aF99.0
aF98.0
aF228.0
aF38.0
aF2202.0
aF694.0
aF533.0
aF842.0
aF2032.0
aF2538.0
aF1463.0
aF731.0
aF1112.0
aF98.0
aF415.0
aF1656.0
aF537.0
aF99.0
aF655.0
aF330.0
aF597.0
aF986.0
aF600.0
aF169.0
aF142.0
aF228.0
aF99.0
aF98.0
aF118.0
aF3910.0
aF893.0
aF342.0
aF378.0
aF81.0
aF2646.0
aF413.0
aF509.0
aF1633.0
aF127.0
aF255.0
aF926.0
aF1260.0
aF1492.0
aF1309.0
aF1034.0
aF2435.0
aF1194.0
aF1458.0
aF2210.0
aF127.0
aF169.0
aF343.0
aF552.0
aF578.0
aF1948.0
aF1765.0
aF2039.0
aF1110.0
aF1697.0
aF2933.0
aF35.0
aF394.0
aF4353.0
aF426.0
aF323.0
aF402.0
aF497.0
aF299.0
aF366.0
aF398.0
aF308.0
aF131.0
aF229.0
aF615.0
aF241.0
aF3180.0
aF1374.0
aF365.0
aF367.0
aF393.0
aF456.0
aF420.0
aF374.0
aF387.0
aF38.0
aF18.0
aF3.0
aF6.0
aF51.0
aF436.0
aF200.0
aF5.0
aF2026.0
aF46.0
aF60.0
aF44.0
aF1798.0
aF447.0
aF136.0
aF2691.0
aF248.0
aF10.0
aF508.0
aF2424.0
aF34.0
aF1820.0
aF2763.0
aF35.0
aF78.0
aF118.0
aF546.0
aF289.0
aF514.0
aF38.0
aF190.0
aF81.0
aF378.0
aF658.0
aF492.0
aF1898.0
aF382.0
aF365.0
aF374.0
aF420.0
aF393.0
aF367.0
aF456.0
aF79.0
aF32.0
aF115.0
aF435.0
aF724.0
aF337.0
aF132.0
aF490.0
aF440.0
aF235.0
aF513.0
aF7.0
aF534.0
aF211.0
aF828.0
aF1045.0
aF78.0
aF2673.0
aF1412.0
aF772.0
aF1411.0
aF310.0
aF2768.0
aF3299.0
aF757.0
aF276.0
aF116.0
aF55.0
aF1208.0
aF3439.0
aF3032.0
aF49.0
aF94.0
aF25.0
aF2820.0
aF2451.0
aF1063.0
aF141.0
aF615.0
aF3392.0
aF6.0
aF1924.0
aF714.0
aF300.0
aF708.0
aF260.0
aF770.0
aF592.0
aF184.0
aF215.0
aF1772.0
aF564.0
aF1356.0
aF1696.0
aF822.0
aF1447.0
aF1935.0
aF180.0
aF383.0
aF900.0
aF5.0
aF6.0
aF396.0
aF668.0
aF79.0
aF250.0
aF184.0
aF77.0
aF1044.0
aF28.0
aF156.0
aF1452.0
aF230.0
aF43.0
aF1314.0
aF160.0
aF4.0
aF35.0
aF107.0
aF243.0
aF9.0
aF61.0
aF1323.0
aF96.0
aF525.0
aF41.0
aF5.0
aF6.0
aF3.0
aF364.0
aF227.0
aF0.0
aF618.0
aF219.0
aF286.0
aF259.0
aF238.0
aF274.0
aF223.0
aF264.0
aF359.0
aF22.0
aF825.0
aF2053.0
aF983.0
aF3654.0
aF596.0
aF2492.0
aF358.0
aF275.0
aF278.0
aF2563.0
aF1317.0
aF2192.0
aF1948.0
aF2053.0
aF108.0
aF269.0
aF1345.0
aF723.0
aF2203.0
aF1708.0
aF3389.0
aF2486.0
aF1711.0
aF336.0
aF1133.0
aF1515.0
aF780.0
aF1135.0
aF204.0
aF1026.0
aF1264.0
aF1330.0
aF384.0
aF1312.0
aF876.0
aF247.0
aF316.0
aF644.0
aF1160.0
aF659.0
aF319.0
aF199.0
aF1901.0
aF284.0
aF3915.0
aF210.0
aF255.0
aF357.0
aF4526.0
aF1635.0
aF3.0
aF1163.0
aF30.0
aF1109.0
aF2.0
aF504.0
aF469.0
aF89.0
aF608.0
aF2310.0
aF2527.0
aF137.0
aF1700.0
aF1615.0
aF169.0
aF847.0
aF596.0
aF320.0
aF558.0
aF867.0
aF541.0
aF105.0
aF766.0
aF1.0
aF24.0
aF7.0
aF20.0
aF156.0
aF232.0
aF435.0
aF19.0
aF65.0
aF138.0
aF25.0
aF4.0
aF72.0
aF75.0
aF14.0
aF219.0
aF341.0
aF515.0
aF2783.0
aF738.0
aF1929.0
aF1743.0
aF1856.0
aF1252.0
aF867.0
aF538.0
aF241.0
aF683.0
aF1269.0
aF3.0
aF5.0
aF3698.0
aF1910.0
aF12.0
aF88.0
aF1111.0
aF723.0
aF663.0
aF1812.0
aF1818.0
aF1868.0
aF1847.0
aF1846.0
aF1872.0
aF223.0
aF274.0
aF238.0
aF281.0
aF359.0
aF341.0
aF282.0
aF286.0
aF1302.0
aF259.0
aF264.0
aF219.0
aF24.0
aF41.0
aF28.0
aF2.0
aF80.0
aF54.0
aF27.0
aF488.0
aF2094.0
aF697.0
aF3024.0
aF2.0
aF28.0
aF322.0
aF7.0
aF32.0
aF909.0
aF107.0
aF14.0
aF144.0
aF9.0
aF1212.0
aF787.0
aF749.0
aF35.0
aF43.0
aF1286.0
aF18.0
aF126.0
aF2831.0
aF427.0
aF593.0
aF198.0
aF44.0
aF1654.0
aF173.0
aF48.0
aF66.0
aF548.0
aF453.0
aF1312.0
aF2513.0
aF1191.0
aF324.0
aF284.0
aF557.0
aF1635.0
aF2355.0
aF1601.0
aF900.0
aF310.0
aF401.0
aF226.0
aF104.0
aF177.0
aF102.0
aF87.0
aF139.0
aF112.0
aF133.0
aF53.0
aF1045.0
aF728.0
aF2.0
aF369.0
aF27.0
aF139.0
aF35.0
aF194.0
aF9.0
aF543.0
aF40.0
aF118.0
aF38.0
aF25.0
aF1724.0
aF1226.0
aF1292.0
aF2717.0
aF3696.0
aF128.0
aF242.0
aF548.0
aF48.0
aF3689.0
aF1063.0
aF930.0
aF758.0
aF744.0
aF91.0
aF646.0
aF1935.0
aF1013.0
aF2625.0
aF1772.0
aF1100.0
aF822.0
aF564.0
aF680.0
aF1356.0
aF740.0
aF239.0
aF180.0
aF1696.0
aF629.0
aF383.0
aF647.0
aF900.0
aF668.0
aF2296.0
aF996.0
aF1296.0
aF251.0
aF156.0
aF2181.0
aF4008.0
aF1412.0
aF1852.0
aF65.0
aF1753.0
aF2359.0
aF1356.0
aF239.0
aF2355.0
aF1013.0
aF1696.0
aF1100.0
aF1772.0
aF180.0
aF680.0
aF564.0
aF1935.0
aF1405.0
aF24.0
aF1125.0
aF21.0
aF230.0
aF25.0
aF65.0
aF3561.0
aF646.0
aF950.0
aF555.0
aF211.0
aF4.0
aF312.0
aF368.0
aF872.0
aF25.0
aF14.0
aF574.0
aF981.0
aF1032.0
aF3055.0
aF857.0
aF42.0
aF1184.0
aF421.0
aF342.0
aF830.0
aF571.0
aF24.0
aF7.0
aF32.0
aF54.0
aF885.0
aF738.0
aF27.0
aF61.0
aF86.0
aF388.0
aF140.0
aF209.0
aF183.0
aF517.0
aF222.0
aF157.0
aF392.0
aF598.0
aF1276.0
aF96.0
aF337.0
aF1885.0
aF55.0
aF3.0
aF46.0
aF1196.0
aF2349.0
aF702.0
aF282.0
aF286.0
aF341.0
aF264.0
aF223.0
aF359.0
aF274.0
aF219.0
aF1302.0
aF238.0
aF281.0
aF259.0
aF579.0
aF2107.0
aF22.0
aF624.0
aF844.0
aF42.0
aF908.0
aF590.0
aF617.0
aF131.0
aF19.0
aF39.0
aF126.0
aF46.0
aF124.0
aF2944.0
aF151.0
aF0.0
aF747.0
aF1623.0
aF601.0
aF596.0
aF1010.0
aF1126.0
aF854.0
aF5.0
aF3.0
aF46.0
aF436.0
aF447.0
aF124.0
aF484.0
aF96.0
aF43.0
aF612.0
aF719.0
aF276.0
aF676.0
aF1039.0
aF2.0
aF1093.0
aF288.0
aF1421.0
aF786.0
aF13.0
aF421.0
aF1470.0
aF564.0
aF1696.0
aF1100.0
aF1439.0
aF1772.0
aF180.0
aF364.0
aF227.0
aF1013.0
aF2355.0
aF2782.0
aF740.0
aF1935.0
aF629.0
aF425.0
aF548.0
aF1318.0
aF383.0
aF900.0
aF2106.0
aF1563.0
aF805.0
aF400.0
aF328.0
aF252.0
aF477.0
aF96.0
aF14.0
aF84.0
aF145.0
aF119.0
aF206.0
aF342.0
aF2730.0
aF299.0
aF366.0
aF445.0
aF309.0
aF438.0
aF478.0
aF398.0
aF308.0
aF973.0
aF44.0
aF66.0
aF572.0
aF198.0
aF48.0
aF192.0
aF405.0
aF682.0
aF423.0
aF5.0
aF946.0
aF612.0
aF803.0
aF337.0
aF2450.0
aF142.0
aF4.0
aF99.0
aF560.0
aF228.0
aF655.0
aF330.0
aF600.0
aF355.0
aF537.0
aF986.0
aF724.0
aF68.0
aF631.0
aF169.0
aF628.0
aF2218.0
aF586.0
aF301.0
aF864.0
aF451.0
aF613.0
aF422.0
aF46.0
aF143.0
aF4.0
aF420.0
aF382.0
aF393.0
aF381.0
aF367.0
aF374.0
aF399.0
aF465.0
aF452.0
aF1275.0
aF504.0
aF118.0
aF4.0
aF35.0
aF509.0
aF386.0
aF117.0
aF1110.0
aF218.0
aF440.0
aF490.0
aF273.0
aF1502.0
aF89.0
aF698.0
aF2578.0
aF916.0
aF145.0
aF263.0
aF206.0
aF4245.0
aF20.0
aF3414.0
aF22.0
aF1545.0
aF2066.0
aF16.0
aF26.0
aF1454.0
aF2300.0
aF1028.0
aF212.0
aF596.0
aF50.0
aF3.0
aF6.0
aF1338.0
aF714.0
aF19.0
aF369.0
aF1047.0
aF27.0
aF118.0
aF107.0
aF167.0
aF25.0
aF84.0
aF120.0
aF86.0
aF158.0
aF99.0
aF228.0
aF47.0
aF3546.0
aF8.0
aF797.0
aF1119.0
aF1309.0
aF1523.0
aF1721.0
aF1175.0
aF1034.0
aF1260.0
aF719.0
aF2189.0
aF1682.0
aF574.0
aF119.0
aF463.0
aF406.0
aF5.0
aF1321.0
aF1317.0
aF159.0
aF496.0
aF32.0
aF1456.0
aF1098.0
aF1382.0
aF3417.0
aF544.0
aF4104.0
aF1820.0
aF865.0
aF573.0
aF2319.0
aF1946.0
aF148.0
aF15.0
aF100.0
aF708.0
aF83.0
aF776.0
aF1016.0
aF184.0
aF260.0
aF2339.0
aF1099.0
aF122.0
aF120.0
aF402.0
aF309.0
aF323.0
aF426.0
aF478.0
aF2626.0
aF299.0
aF366.0
aF445.0
aF398.0
aF308.0
aF1858.0
aF1313.0
aF348.0
aF1.0
aF0.0
aF2603.0
aF1133.0
aF3637.0
aF2324.0
aF8.0
aF1788.0
aF615.0
aF1155.0
aF389.0
aF2881.0
aF3427.0
aF391.0
aF295.0
aF701.0
aF547.0
aF1060.0
aF1072.0
aF606.0
aF501.0
aF507.0
aF670.0
aF720.0
aF619.0
aF690.0
aF449.0
aF510.0
aF684.0
aF609.0
aF729.0
aF636.0
aF661.0
aF427.0
aF66.0
aF593.0
aF198.0
aF48.0
aF44.0
aF2628.0
aF566.0
aF2.0
aF821.0
aF1178.0
aF4788.0
aF3102.0
aF4541.0
aF803.0
aF3082.0
aF1281.0
aF964.0
aF3025.0
aF12.0
aF2612.0
aF2778.0
aF14.0
aF834.0
aF23.0
aF276.0
aF895.0
aF2923.0
aF29.0
aF129.0
aF99.0
aF45.0
aF117.0
aF98.0
aF812.0
aF151.0
aF1278.0
aF1440.0
aF898.0
aF3968.0
aF95.0
aF14.0
aF12.0
aF3306.0
aF791.0
aF19.0
aF1.0
aF80.0
aF280.0
aF395.0
aF987.0
aF1401.0
aF3018.0
aF22.0
aF283.0
aF4266.0
aF2120.0
aF3851.0
aF837.0
aF673.0
aF3435.0
aF4160.0
aF274.0
aF223.0
aF286.0
aF341.0
aF238.0
aF259.0
aF219.0
aF359.0
aF264.0
aF300.0
aF853.0
aF1533.0
aF770.0
aF260.0
aF3070.0
aF3143.0
aF1180.0
aF3103.0
aF193.0
aF386.0
aF1535.0
aF137.0
aF309.0
aF323.0
aF2626.0
aF299.0
aF366.0
aF308.0
aF288.0
aF3308.0
aF1.0
aF445.0
aF398.0
aF3289.0
aF40.0
aF43.0
aF1125.0
aF2.0
aF251.0
aF226.0
aF61.0
aF177.0
aF150.0
aF147.0
aF87.0
aF140.0
aF167.0
aF139.0
aF112.0
aF75.0
aF102.0
aF401.0
aF110.0
aF517.0
aF543.0
aF104.0
aF161.0
aF182.0
aF96.0
aF33.0
aF84.0
aF185.0
aF152.0
aF44.0
aF208.0
aF360.0
aF586.0
aF613.0
aF451.0
aF704.0
aF999.0
aF1134.0
aF1131.0
aF372.0
aF44.0
aF126.0
aF242.0
aF1063.0
aF383.0
aF484.0
aF2340.0
aF1850.0
aF578.0
aF2039.0
aF1.0
aF766.0
aF288.0
aF173.0
aF169.0
aF1764.0
aF571.0
aF34.0
aF2421.0
aF608.0
aF471.0
aF1674.0
aF7.0
aF3189.0
aF2871.0
aF159.0
aF3157.0
aF1318.0
aF660.0
aF791.0
aF1225.0
aF1119.0
aF1523.0
aF1175.0
aF14.0
aF3937.0
aF140.0
aF85.0
aF111.0
aF52.0
aF145.0
aF119.0
aF490.0
aF440.0
aF123.0
aF116.0
aF134.0
aF96.0
aF12.0
aF870.0
aF1134.0
aF269.0
aF2027.0
aF361.0
aF696.0
aF372.0
aF4103.0
aF832.0
aF2205.0
aF840.0
aF431.0
aF1071.0
aF669.0
aF1451.0
aF492.0
aF375.0
aF838.0
aF527.0
aF692.0
aF376.0
aF1201.0
aF61.0
aF25.0
aF2952.0
aF1776.0
aF1069.0
aF3873.0
aF234.0
aF3375.0
aF3002.0
aF1729.0
aF610.0
aF763.0
aF0.0
aF304.0
aF926.0
aF1419.0
aF192.0
aF1128.0
aF1916.0
aF1903.0
aF1914.0
aF31.0
aF2015.0
aF122.0
aF3813.0
aF537.0
aF99.0
aF415.0
aF674.0
aF655.0
aF355.0
aF986.0
aF330.0
aF724.0
aF560.0
aF14.0
aF1129.0
aF116.0
aF266.0
aF395.0
aF4936.0
aF370.0
aF80.0
aF984.0
aF1107.0
aF7.0
aF1290.0
aF1255.0
aF2408.0
aF733.0
aF1747.0
aF263.0
aF3776.0
aF1941.0
aF20.0
aF577.0
aF360.0
aF451.0
aF999.0
aF1855.0
aF555.0
aF2434.0
aF0.0
aF267.0
aF744.0
aF750.0
aF368.0
aF758.0
aF930.0
aF2014.0
aF415.0
aF696.0
aF553.0
aF2492.0
aF320.0
aF459.0
aF548.0
aF2328.0
aF421.0
aF38.0
aF1423.0
aF98.0
aF785.0
aF2.0
aF344.0
aF23.0
aF45.0
aF262.0
aF35.0
aF78.0
aF4.0
aF134.0
aF386.0
aF652.0
aF1092.0
aF1703.0
aF8.0
aF4.0
aF716.0
aF59.0
aF58.0
aF2360.0
aF28.0
aF141.0
aF785.0
aF241.0
aF689.0
aF289.0
aF276.0
aF736.0
aF45.0
aF947.0
aF169.0
aF14.0
aF2200.0
aF85.0
aF921.0
aF184.0
aF3390.0
aF3141.0
aF763.0
aF13.0
aF52.0
aF129.0
aF98.0
aF1.0
aF34.0
aF144.0
aF1524.0
aF1952.0
aF148.0
aF1489.0
aF313.0
aF331.0
aF66.0
aF255.0
aF905.0
aF357.0
aF2325.0
aF541.0
aF62.0
aF867.0
aF240.0
aF124.0
aF2306.0
aF457.0
aF637.0
aF2002.0
aF1920.0
aF1328.0
aF632.0
aF216.0
aF3832.0
aF127.0
aF2542.0
aF5.0
aF16.0
aF789.0
aF1163.0
aF2003.0
aF4257.0
aF1488.0
aF933.0
aF34.0
aF3361.0
aF2236.0
aF2062.0
aF6.0
aF236.0
aF10.0
aF2538.0
aF832.0
aF1941.0
aF25.0
aF899.0
aF487.0
aF1080.0
aF1071.0
aF431.0
aF3818.0
aF521.0
aF376.0
aF1133.0
aF1812.0
aF1818.0
aF1868.0
aF1847.0
aF1846.0
aF1891.0
aF1872.0
aF3356.0
aF29.0
aF35.0
aF45.0
aF4.0
aF118.0
aF68.0
aF78.0
aF546.0
aF325.0
aF1842.0
aF394.0
aF630.0
aF2319.0
aF179.0
aF152.0
aF44.0
aF331.0
aF313.0
aF66.0
aF1988.0
aF444.0
aF718.0
aF699.0
aF1203.0
aF1173.0
aF843.0
aF1028.0
aF1029.0
aF40.0
aF294.0
aF321.0
aF57.0
aF133.0
aF32.0
aF115.0
aF138.0
aF1452.0
aF156.0
aF171.0
aF1426.0
aF131.0
aF2.0
aF160.0
aF805.0
aF107.0
aF243.0
aF25.0
aF14.0
aF263.0
aF1716.0
aF534.0
aF913.0
aF945.0
aF1005.0
aF360.0
aF864.0
aF1327.0
aF1511.0
aF586.0
aF2045.0
aF208.0
aF129.0
aF98.0
aF446.0
aF68.0
aF78.0
aF118.0
aF169.0
aF791.0
aF314.0
aF2285.0
aF3307.0
aF203.0
aF3929.0
aF1893.0
aF466.0
aF408.0
aF4202.0
aF764.0
aF2205.0
aF551.0
aF3524.0
aF333.0
aF220.0
aF214.0
aF2879.0
aF2158.0
aF1025.0
aF2083.0
aF1925.0
aF1610.0
aF1043.0
aF1169.0
aF430.0
aF1423.0
aF142.0
aF35.0
aF118.0
aF624.0
aF1265.0
aF78.0
aF98.0
aF694.0
aF962.0
aF4.0
aF643.0
aF622.0
aF117.0
aF134.0
aF446.0
aF38.0
aF230.0
aF1827.0
aF116.0
aF297.0
aF169.0
aF2073.0
aF314.0
aF45.0
aF35.0
aF118.0
aF78.0
aF791.0
aF1282.0
aF31.0
aF149.0
aF127.0
aF171.0
aF2194.0
aF246.0
aF2334.0
aF1000.0
aF3813.0
aF17.0
aF45.0
aF118.0
aF2.0
aF13.0
aF98.0
aF471.0
aF35.0
aF386.0
aF266.0
aF8.0
aF1007.0
aF4076.0
aF601.0
aF1934.0
aF198.0
aF44.0
aF453.0
aF548.0
aF2004.0
aF300.0
aF480.0
aF770.0
aF1029.0
aF1269.0
aF2012.0
aF644.0
aF199.0
aF1191.0
aF1046.0
aF1430.0
aF2829.0
aF134.0
aF1215.0
aF2352.0
aF8.0
aF3346.0
aF129.0
aF1238.0
aF1173.0
aF572.0
aF557.0
aF324.0
aF225.0
aF759.0
aF255.0
aF294.0
aF24.0
aF21.0
aF7.0
aF90.0
aF32.0
aF230.0
aF73.0
aF1452.0
aF40.0
aF25.0
aF189.0
aF1333.0
aF1314.0
aF1050.0
aF711.0
aF1909.0
aF107.0
aF887.0
aF1790.0
aF1038.0
aF696.0
aF317.0
aF70.0
aF1597.0
aF1489.0
aF3176.0
aF298.0
aF2126.0
aF736.0
aF2.0
aF947.0
aF0.0
aF46.0
aF227.0
aF940.0
aF1547.0
aF1991.0
aF1320.0
aF239.0
aF18.0
aF6.0
aF2062.0
aF236.0
aF399.0
aF456.0
aF382.0
aF393.0
aF365.0
aF381.0
aF12.0
aF317.0
aF1092.0
aF2236.0
aF1130.0
aF2090.0
aF3699.0
aF443.0
aF512.0
aF502.0
aF2600.0
aF2536.0
aF1001.0
aF1299.0
aF9.0
aF2755.0
aF4276.0
aF491.0
aF245.0
aF81.0
aF5.0
aF240.0
aF46.0
aF126.0
aF3255.0
aF447.0
aF3.0
aF5.0
aF6.0
aF3368.0
aF2561.0
aF714.0
aF108.0
aF959.0
aF955.0
aF392.0
aF37.0
aF24.0
aF2.0
aF294.0
aF7.0
aF90.0
aF230.0
aF1452.0
aF435.0
aF73.0
aF153.0
aF156.0
aF19.0
aF43.0
aF1314.0
aF33.0
aF25.0
aF1085.0
aF27.0
aF631.0
aF189.0
aF543.0
aF96.0
aF2308.0
aF2593.0
aF16.0
aF1495.0
aF835.0
aF129.0
aF216.0
aF2643.0
aF6.0
aF46.0
aF540.0
aF942.0
aF715.0
aF2405.0
aF1696.0
aF629.0
aF180.0
aF48.0
aF564.0
aF1772.0
aF215.0
aF1013.0
aF548.0
aF740.0
aF1405.0
aF1447.0
aF1935.0
aF383.0
aF20.0
aF32.0
aF19.0
aF1778.0
aF64.0
aF150.0
aF65.0
aF195.0
aF142.0
aF25.0
aF2459.0
aF87.0
aF2689.0
aF1714.0
aF418.0
aF151.0
aF262.0
aF1623.0
aF13.0
aF622.0
aF228.0
aF325.0
aF4.0
aF271.0
aF358.0
aF265.0
aF267.0
aF474.0
aF689.0
aF275.0
aF278.0
aF231.0
aF352.0
aF21.0
aF1.0
aF52.0
aF448.0
aF1169.0
aF233.0
aF1583.0
aF1130.0
aF3.0
aF5.0
aF447.0
aF586.0
aF577.0
aF208.0
aF613.0
aF2809.0
aF1364.0
aF212.0
aF1841.0
aF584.0
aF910.0
aF1673.0
aF995.0
aF1039.0
aF4109.0
aF1461.0
aF2268.0
aF23.0
aF394.0
aF98.0
aF231.0
aF91.0
aF4.0
aF99.0
aF38.0
aF45.0
aF0.0
aF117.0
aF118.0
aF835.0
aF325.0
aF228.0
aF532.0
aF1011.0
aF936.0
aF78.0
aF1507.0
aF148.0
aF469.0
aF921.0
aF386.0
aF757.0
aF2646.0
aF2876.0
aF1252.0
aF188.0
aF0.0
aF865.0
aF541.0
aF179.0
aF867.0
aF458.0
aF342.0
aF3452.0
aF870.0
aF2407.0
aF910.0
aF1564.0
aF1039.0
aF3004.0
aF1673.0
aF1461.0
aF913.0
aF674.0
aF537.0
aF813.0
aF600.0
aF122.0
aF646.0
aF767.0
aF998.0
aF439.0
aF541.0
aF0.0
aF1148.0
aF1297.0
aF867.0
aF1991.0
aF1245.0
aF1451.0
aF1247.0
aF156.0
aF103.0
aF253.0
aF213.0
aF87.0
aF189.0
aF1933.0
aF258.0
aF401.0
aF404.0
aF2181.0
aF2594.0
aF1753.0
aF519.0
aF1192.0
aF1412.0
aF688.0
aF139.0
aF1017.0
aF2696.0
aF251.0
aF222.0
aF470.0
aF1954.0
aF1852.0
aF1825.0
aF121.0
aF2680.0
aF2555.0
aF1453.0
aF1538.0
aF83.0
aF2563.0
aF2528.0
aF1016.0
aF776.0
aF770.0
aF3186.0
aF283.0
aF799.0
aF294.0
aF322.0
aF57.0
aF4.0
aF35.0
aF14.0
aF96.0
aF659.0
aF34.0
aF448.0
aF1774.0
aF1827.0
aF3204.0
aF3.0
aF6.0
aF18.0
aF668.0
aF789.0
aF144.0
aF999.0
aF301.0
aF3832.0
aF1598.0
aF1.0
aF2468.0
aF939.0
aF2223.0
aF89.0
aF34.0
aF2767.0
aF581.0
aF530.0
aF289.0
aF144.0
aF811.0
aF1109.0
aF1917.0
aF3039.0
aF309.0
aF445.0
aF398.0
aF103.0
aF243.0
aF226.0
aF5.0
aF6.0
aF3.0
aF1873.0
aF1670.0
aF5.0
aF946.0
aF629.0
aF239.0
aF647.0
aF3156.0
aF288.0
aF323.0
aF309.0
aF426.0
aF497.0
aF478.0
aF402.0
aF299.0
aF366.0
aF445.0
aF398.0
aF308.0
aF2845.0
aF1544.0
aF461.0
aF179.0
aF831.0
aF48.0
aF215.0
aF2329.0
aF705.0
aF425.0
aF284.0
aF199.0
aF319.0
aF1026.0
aF626.0
aF3943.0
aF263.0
aF12.0
aF5.0
aF6.0
aF520.0
aF236.0
aF324.0
aF12.0
aF531.0
aF179.0
aF931.0
aF1071.0
aF2264.0
aF4058.0
aF885.0
aF28.0
aF35.0
aF15.0
aF3270.0
aF622.0
aF2935.0
aF386.0
aF233.0
aF342.0
aF14.0
aF52.0
aF1324.0
aF3206.0
aF90.0
aF1373.0
aF1842.0
aF2247.0
aF3403.0
aF3566.0
aF3775.0
aF4034.0
aF3979.0
aF3636.0
aF4055.0
aF2354.0
aF3462.0
aF1469.0
aF4148.0
aF4106.0
aF891.0
aF3642.0
aF4028.0
aF3859.0
aF1913.0
aF1813.0
aF261.0
aF2831.0
aF427.0
aF593.0
aF44.0
aF198.0
aF66.0
aF48.0
aF1167.0
aF242.0
aF548.0
aF2628.0
aF2649.0
aF136.0
aF248.0
aF169.0
aF462.0
aF40.0
aF138.0
aF42.0
aF892.0
aF25.0
aF3387.0
aF498.0
aF297.0
aF1391.0
aF85.0
aF817.0
aF24.0
aF54.0
aF4.0
aF27.0
aF1094.0
aF144.0
aF326.0
aF1199.0
aF583.0
aF2470.0
aF55.0
aF1338.0
aF714.0
aF49.0
aF77.0
aF195.0
aF778.0
aF1462.0
aF1348.0
aF52.0
aF1597.0
aF1065.0
aF3.0
aF6.0
aF18.0
aF44.0
aF1348.0
aF2479.0
aF2022.0
aF254.0
aF286.0
aF259.0
aF282.0
aF264.0
aF219.0
aF223.0
aF929.0
aF238.0
aF281.0
aF341.0
aF848.0
aF1773.0
aF1574.0
aF359.0
aF1273.0
aF19.0
aF4.0
aF1314.0
aF711.0
aF35.0
aF1098.0
aF3162.0
aF3101.0
aF116.0
aF159.0
aF738.0
aF896.0
aF61.0
aF1012.0
aF1614.0
aF1790.0
aF25.0
aF1382.0
aF18.0
aF5.0
aF16.0
aF6.0
aF41.0
aF240.0
aF447.0
aF315.0
aF332.0
aF81.0
aF532.0
aF542.0
aF1833.0
aF44.0
aF48.0
aF2628.0
aF3205.0
aF35.0
aF273.0
aF442.0
aF936.0
aF1833.0
aF458.0
aF276.0
aF1274.0
aF98.0
aF78.0
aF35.0
aF218.0
aF68.0
aF830.0
aF1418.0
aF921.0
aF314.0
aF142.0
aF1232.0
aF560.0
aF228.0
aF9.0
aF134.0
aF534.0
aF971.0
aF124.0
aF231.0
aF45.0
aF117.0
aF421.0
aF262.0
aF48.0
aF1167.0
aF11.0
aF30.0
aF3.0
aF5.0
aF18.0
aF6.0
aF746.0
aF2619.0
aF4375.0
aF3585.0
aF1.0
aF3117.0
aF4595.0
aF471.0
aF650.0
aF1981.0
aF272.0
aF647.0
aF324.0
aF743.0
aF284.0
aF304.0
aF66.0
aF703.0
aF2744.0
aF576.0
aF876.0
aF3605.0
aF1137.0
aF115.0
aF2.0
aF294.0
aF390.0
aF24.0
aF36.0
aF37.0
aF7.0
aF32.0
aF20.0
aF73.0
aF1452.0
aF1314.0
aF1085.0
aF107.0
aF1909.0
aF25.0
aF3101.0
aF3162.0
aF29.0
aF129.0
aF211.0
aF1671.0
aF189.0
aF96.0
aF1323.0
aF92.0
aF401.0
aF112.0
aF517.0
aF140.0
aF43.0
aF150.0
aF182.0
aF114.0
aF434.0
aF138.0
aF22.0
aF19.0
aF1778.0
aF27.0
aF32.0
aF65.0
aF25.0
aF733.0
aF783.0
aF309.0
aF323.0
aF426.0
aF366.0
aF398.0
aF4310.0
aF2512.0
aF2315.0
aF2658.0
aF261.0
aF3221.0
aF629.0
aF1405.0
aF3.0
aF2243.0
aF235.0
aF872.0
aF22.0
aF368.0
aF1199.0
aF498.0
aF749.0
aF1102.0
aF594.0
aF133.0
aF855.0
aF27.0
aF1611.0
aF25.0
aF1747.0
aF534.0
aF911.0
aF433.0
aF913.0
aF583.0
aF211.0
aF6.0
aF3.0
aF91.0
aF605.0
aF1250.0
aF131.0
aF7.0
aF407.0
aF3930.0
aF2399.0
aF268.0
aF3417.0
aF3473.0
aF4123.0
aF3956.0
aF316.0
aF644.0
aF1641.0
aF1031.0
aF462.0
aF151.0
aF445.0
aF487.0
aF1544.0
aF16.0
aF4663.0
aF2013.0
aF926.0
aF818.0
aF1191.0
aF1430.0
aF174.0
aF0.0
aF1928.0
aF846.0
aF860.0
aF55.0
aF5.0
aF46.0
aF447.0
aF530.0
aF971.0
aF1515.0
aF151.0
aF898.0
aF113.0
aF241.0
aF538.0
aF678.0
aF3284.0
aF4.0
aF50.0
aF35.0
aF689.0
aF277.0
aF421.0
aF289.0
aF386.0
aF2026.0
aF6.0
aF18.0
aF3.0
aF5.0
aF124.0
aF1579.0
aF231.0
aF99.0
aF142.0
aF325.0
aF757.0
aF2.0
aF45.0
aF35.0
aF118.0
aF694.0
aF134.0
aF417.0
aF91.0
aF386.0
aF448.0
aF212.0
aF446.0
aF15.0
aF58.0
aF59.0
aF70.0
aF406.0
aF96.0
aF83.0
aF386.0
aF1114.0
aF548.0
aF839.0
aF1305.0
aF1908.0
aF557.0
aF247.0
aF22.0
aF1050.0
aF7.0
aF463.0
aF211.0
aF171.0
aF312.0
aF1.0
aF757.0
aF133.0
aF156.0
aF65.0
aF1534.0
aF1368.0
aF2459.0
aF646.0
aF25.0
aF433.0
aF276.0
aF631.0
aF18.0
aF946.0
aF944.0
aF44.0
aF315.0
aF49.0
aF1908.0
aF653.0
aF642.0
aF557.0
aF286.0
aF359.0
aF702.0
aF254.0
aF193.0
aF17.0
aF3734.0
aF3066.0
aF1262.0
aF21.0
aF43.0
aF19.0
aF2.0
aF32.0
aF3449.0
aF22.0
aF230.0
aF2056.0
aF238.0
aF42.0
aF25.0
aF370.0
aF513.0
aF3.0
aF5.0
aF6.0
aF236.0
aF1725.0
aF1114.0
aF839.0
aF874.0
aF1908.0
aF1305.0
aF718.0
aF444.0
aF225.0
aF46.0
aF2293.0
aF699.0
aF3729.0
aF247.0
aF782.0
aF444.0
aF3.0
aF746.0
aF789.0
aF5.0
aF6.0
aF124.0
aF902.0
aF1179.0
aF82.0
aF731.0
aF1245.0
aF2716.0
aF1133.0
aF2698.0
aF895.0
aF13.0
aF325.0
aF35.0
aF228.0
aF231.0
aF99.0
aF98.0
aF142.0
aF757.0
aF23.0
aF4.0
aF554.0
aF262.0
aF78.0
aF921.0
aF50.0
aF2149.0
aF566.0
aF421.0
aF1430.0
aF769.0
aF1861.0
aF376.0
aF0.0
aF998.0
aF1133.0
aF431.0
aF40.0
aF128.0
aF24.0
aF2.0
aF1.0
aF7.0
aF57.0
aF22.0
aF312.0
aF20.0
aF435.0
aF19.0
aF4.0
aF156.0
aF138.0
aF27.0
aF72.0
aF65.0
aF75.0
aF25.0
aF3478.0
aF14.0
aF92.0
aF21.0
aF30.0
aF1113.0
aF76.0
aF113.0
aF20.0
aF934.0
aF323.0
aF426.0
aF478.0
aF497.0
aF402.0
aF299.0
aF366.0
aF445.0
aF398.0
aF37.0
aF24.0
aF1427.0
aF7.0
aF21.0
aF230.0
aF19.0
aF1505.0
aF40.0
aF138.0
aF679.0
aF90.0
aF435.0
aF416.0
aF20.0
aF72.0
aF4.0
aF156.0
aF2.0
aF65.0
aF159.0
aF312.0
aF232.0
aF25.0
aF75.0
aF1809.0
aF211.0
aF777.0
aF12.0
aF45.0
aF117.0
aF98.0
aF4.0
aF268.0
aF2.0
aF262.0
aF2420.0
aF4026.0
aF812.0
aF2695.0
aF447.0
aF942.0
aF20.0
aF130.0
aF728.0
aF2.0
aF32.0
aF107.0
aF72.0
aF61.0
aF719.0
aF7.0
aF25.0
aF19.0
aF40.0
aF1845.0
aF1000.0
aF14.0
aF1311.0
aF1139.0
aF401.0
aF75.0
aF1611.0
aF712.0
aF369.0
aF226.0
aF99.0
aF231.0
aF228.0
aF890.0
aF142.0
aF325.0
aF1707.0
aF1260.0
aF4235.0
aF1074.0
aF4830.0
aF1005.0
aF488.0
aF4746.0
aF2860.0
aF12.0
aF3685.0
aF4142.0
aF113.0
aF64.0
aF196.0
aF142.0
aF986.0
aF537.0
aF655.0
aF560.0
aF674.0
aF415.0
aF355.0
aF58.0
aF59.0
aF504.0
aF554.0
aF436.0
aF3246.0
aF2988.0
aF2813.0
aF2682.0
aF2802.0
aF6.0
aF5.0
aF18.0
aF2202.0
aF1492.0
aF1579.0
aF25.0
aF3.0
aF6.0
aF1709.0
aF16.0
aF520.0
aF49.0
aF1256.0
aF367.0
aF365.0
aF374.0
aF381.0
aF420.0
aF387.0
aF382.0
aF1130.0
aF964.0
aF565.0
aF3720.0
aF1001.0
aF1731.0
aF352.0
aF237.0
aF2122.0
aF1615.0
aF2090.0
aF14.0
aF314.0
aF2536.0
aF512.0
aF1645.0
aF448.0
aF137.0
aF567.0
aF950.0
aF2434.0
aF211.0
aF857.0
aF416.0
aF65.0
aF75.0
aF42.0
aF1719.0
aF424.0
aF1157.0
aF284.0
aF199.0
aF66.0
aF313.0
aF384.0
aF331.0
aF3035.0
aF1435.0
aF2345.0
aF1160.0
aF1173.0
aF535.0
aF336.0
aF3.0
aF18.0
aF6.0
aF5.0
aF60.0
aF46.0
aF240.0
aF16.0
aF447.0
aF315.0
aF1670.0
aF3255.0
aF1524.0
aF1179.0
aF3083.0
aF377.0
aF1735.0
aF2419.0
aF962.0
aF134.0
aF116.0
aF1012.0
aF542.0
aF2015.0
aF31.0
aF550.0
aF2646.0
aF149.0
aF124.0
aF241.0
aF884.0
aF1284.0
aF197.0
aF217.0
aF421.0
aF798.0
aF2908.0
aF472.0
aF724.0
aF655.0
aF600.0
aF99.0
aF986.0
aF537.0
aF597.0
aF196.0
aF330.0
aF1576.0
aF134.0
aF674.0
aF373.0
aF4.0
aF487.0
aF21.0
aF22.0
aF25.0
aF1480.0
aF7.0
aF1166.0
aF9.0
aF3591.0
aF99.0
aF325.0
aF129.0
aF14.0
aF18.0
aF5.0
aF29.0
aF937.0
aF2178.0
aF49.0
aF381.0
aF420.0
aF367.0
aF399.0
aF387.0
aF365.0
aF2446.0
aF5.0
aF16.0
aF49.0
aF136.0
aF708.0
aF1029.0
aF1269.0
aF725.0
aF53.0
aF7.0
aF1199.0
aF37.0
aF2.0
aF1778.0
aF32.0
aF230.0
aF43.0
aF1718.0
aF4.0
aF1426.0
aF27.0
aF433.0
aF20.0
aF19.0
aF65.0
aF72.0
aF14.0
aF91.0
aF2416.0
aF312.0
aF55.0
aF25.0
aF1012.0
aF3.0
aF1506.0
aF1883.0
aF1430.0
aF1191.0
aF1958.0
aF2314.0
aF1057.0
aF638.0
aF3442.0
aF188.0
aF558.0
aF1996.0
aF2845.0
aF288.0
aF1148.0
aF461.0
aF1253.0
aF1346.0
aF1057.0
aF1512.0
aF1958.0
aF1385.0
aF2162.0
aF1599.0
aF3239.0
aF541.0
aF1254.0
aF843.0
aF3280.0
aF428.0
aF817.0
aF415.0
aF355.0
aF813.0
aF268.0
aF195.0
aF597.0
aF231.0
aF736.0
aF13.0
aF947.0
aF85.0
aF2359.0
aF21.0
aF1.0
aF7.0
aF40.0
aF19.0
aF75.0
aF27.0
aF65.0
aF416.0
aF25.0
aF61.0
aF12.0
aF42.0
aF95.0
aF133.0
aF1586.0
aF42.0
aF312.0
aF72.0
aF388.0
aF1534.0
aF2597.0
aF1194.0
aF136.0
aF248.0
aF287.0
aF3982.0
aF3904.0
aF83.0
aF708.0
aF184.0
aF1028.0
aF853.0
aF789.0
aF1029.0
aF2986.0
aF192.0
aF174.0
aF1383.0
aF1436.0
aF2396.0
aF475.0
aF2744.0
aF126.0
aF173.0
aF2831.0
aF427.0
aF593.0
aF44.0
aF1167.0
aF48.0
aF198.0
aF425.0
aF548.0
aF1128.0
aF1419.0
aF1.0
aF769.0
aF659.0
aF357.0
aF778.0
aF4597.0
aF576.0
aF4572.0
aF780.0
aF996.0
aF2359.0
aF6.0
aF3.0
aF5.0
aF520.0
aF236.0
aF152.0
aF364.0
aF227.0
aF618.0
aF215.0
aF660.0
aF3044.0
aF191.0
aF1487.0
aF612.0
aF1347.0
aF28.0
aF54.0
aF27.0
aF133.0
aF1214.0
aF1178.0
aF2126.0
aF14.0
aF323.0
aF426.0
aF2626.0
aF402.0
aF299.0
aF366.0
aF445.0
aF398.0
aF308.0
aF1451.0
aF151.0
aF689.0
aF241.0
aF98.0
aF2317.0
aF68.0
aF442.0
aF3256.0
aF2603.0
aF2735.0
aF273.0
aF6.0
aF2026.0
aF18.0
aF3.0
aF5.0
aF1951.0
aF292.0
aF72.0
aF270.0
aF84.0
aF90.0
aF978.0
aF617.0
aF406.0
aF345.0
aF370.0
aF857.0
aF42.0
aF238.0
aF211.0
aF139.0
aF3312.0
aF1166.0
aF400.0
aF55.0
aF41.0
aF3.0
aF1769.0
aF784.0
aF631.0
aF2746.0
aF3552.0
aF538.0
aF15.0
aF59.0
aF58.0
aF2845.0
aF288.0
aF1479.0
aF1484.0
aF106.0
aF279.0
aF831.0
aF1.0
aF3005.0
aF1580.0
aF448.0
aF1863.0
aF1317.0
aF1673.0
aF875.0
aF859.0
aF6.0
aF396.0
aF3.0
aF5.0
aF22.0
aF21.0
aF93.0
aF1102.0
aF3.0
aF5.0
aF315.0
aF49.0
aF152.0
aF2407.0
aF44.0
aF2418.0
aF2106.0
aF973.0
aF247.0
aF316.0
aF284.0
aF1506.0
aF5.0
aF6.0
aF44.0
aF5.0
aF309.0
aF1912.0
aF118.0
aF212.0
aF2209.0
aF1041.0
aF2883.0
aF0.0
aF747.0
aF0.0
aF1247.0
aF1686.0
aF3141.0
aF1474.0
aF1801.0
aF1664.0
aF1149.0
aF726.0
aF429.0
aF4205.0
aF17.0
aF1756.0
aF707.0
aF3057.0
aF373.0
aF745.0
aF3219.0
aF1794.0
aF34.0
aF448.0
aF1774.0
aF1827.0
aF316.0
aF247.0
aF644.0
aF272.0
aF384.0
aF592.0
aF853.0
aF3070.0
aF3143.0
aF260.0
aF10.0
aF30.0
aF11.0
aF16.0
aF6.0
aF3.0
aF18.0
aF5.0
aF49.0
aF642.0
aF2399.0
aF6.0
aF396.0
aF182.0
aF92.0
aF9.0
aF112.0
aF110.0
aF292.0
aF158.0
aF86.0
aF111.0
aF14.0
aF844.0
aF212.0
aF1856.0
aF1743.0
aF289.0
aF4188.0
aF1879.0
aF39.0
aF1490.0
aF314.0
aF34.0
aF448.0
aF675.0
aF208.0
aF1774.0
aF1827.0
aF116.0
aF345.0
aF3204.0
aF1178.0
aF3613.0
aF1917.0
aF48.0
aF1623.0
aF383.0
aF239.0
aF8.0
aF98.0
aF78.0
aF872.0
aF2.0
aF21.0
aF4.0
aF75.0
aF65.0
aF14.0
aF28.0
aF1534.0
aF3561.0
aF312.0
aF534.0
aF144.0
aF55.0
aF366.0
aF445.0
aF398.0
aF426.0
aF478.0
aF402.0
aF308.0
aF106.0
aF367.0
aF387.0
aF381.0
aF382.0
aF374.0
aF420.0
aF393.0
aF399.0
aF471.0
aF674.0
aF330.0
aF813.0
aF355.0
aF733.0
aF100.0
aF76.0
aF797.0
aF1587.0
aF70.0
aF645.0
aF290.0
aF302.0
aF1000.0
aF1881.0
aF2.0
aF1423.0
aF824.0
aF4.0
aF35.0
aF78.0
aF923.0
aF488.0
aF350.0
aF400.0
aF1145.0
aF590.0
aF1456.0
aF108.0
aF496.0
aF133.0
aF136.0
aF3021.0
aF248.0
aF2099.0
aF2342.0
aF3852.0
aF948.0
aF860.0
aF846.0
aF1668.0
aF1041.0
aF486.0
aF78.0
aF543.0
aF3018.0
aF34.0
aF4.0
aF1197.0
aF716.0
aF1562.0
aF455.0
aF1466.0
aF1370.0
aF2864.0
aF4171.0
aF326.0
aF1353.0
aF295.0
aF4.0
aF64.0
aF196.0
aF142.0
aF560.0
aF228.0
aF537.0
aF355.0
aF99.0
aF884.0
aF921.0
aF811.0
aF1268.0
aF5.0
aF3.0
aF6.0
aF1709.0
aF49.0
aF1163.0
aF56.0
aF3599.0
aF78.0
aF1863.0
aF38.0
aF921.0
aF1036.0
aF514.0
aF136.0
aF1580.0
aF89.0
aF614.0
aF686.0
aF138.0
aF206.0
aF733.0
aF742.0
aF9.0
aF24.0
aF28.0
aF96.0
aF35.0
aF118.0
aF2.0
aF27.0
aF785.0
aF4.0
aF3765.0
aF293.0
aF189.0
aF450.0
aF209.0
aF1429.0
aF235.0
aF55.0
aF3.0
aF5.0
aF18.0
aF152.0
aF2702.0
aF1921.0
aF3.0
aF5.0
aF668.0
aF89.0
aF7.0
aF2826.0
aF2657.0
aF474.0
aF267.0
aF1257.0
aF1588.0
aF275.0
aF98.0
aF231.0
aF228.0
aF12.0
aF2716.0
aF275.0
aF267.0
aF271.0
aF1257.0
aF358.0
aF2916.0
aF68.0
aF99.0
aF33.0
aF421.0
aF268.0
aF1456.0
aF1351.0
aF3478.0
aF1726.0
aF239.0
aF740.0
aF1439.0
aF1835.0
aF680.0
aF1318.0
aF900.0
aF205.0
aF231.0
aF142.0
aF45.0
aF1423.0
aF2.0
aF514.0
aF35.0
aF118.0
aF1575.0
aF546.0
aF446.0
aF262.0
aF2261.0
aF884.0
aF530.0
aF643.0
aF2767.0
aF342.0
aF344.0
aF2708.0
aF1827.0
aF2366.0
aF3393.0
aF2321.0
aF610.0
aF673.0
aF13.0
aF1542.0
aF196.0
aF64.0
aF325.0
aF537.0
aF355.0
aF330.0
aF724.0
aF674.0
aF600.0
aF415.0
aF15.0
aF231.0
aF228.0
aF471.0
aF2.0
aF142.0
aF38.0
aF98.0
aF939.0
aF983.0
aF3611.0
aF3675.0
aF4412.0
aF3212.0
aF97.0
aF493.0
aF4271.0
aF8.0
aF230.0
aF19.0
aF65.0
aF27.0
aF581.0
aF508.0
aF1433.0
aF296.0
aF84.0
aF955.0
aF29.0
aF7.0
aF416.0
aF230.0
aF129.0
aF35.0
aF4.0
aF3071.0
aF1185.0
aF119.0
aF1944.0
aF2338.0
aF202.0
aF463.0
aF312.0
aF3711.0
aF1534.0
aF803.0
aF88.0
aF2026.0
aF5.0
aF3.0
aF18.0
aF6.0
aF44.0
aF20.0
aF2170.0
aF73.0
aF19.0
aF43.0
aF291.0
aF115.0
aF733.0
aF54.0
aF519.0
aF742.0
aF1857.0
aF435.0
aF1483.0
aF122.0
aF114.0
aF1047.0
aF4.0
aF251.0
aF159.0
aF80.0
aF4065.0
aF513.0
aF2657.0
aF84.0
aF1354.0
aF818.0
aF3191.0
aF367.0
aF381.0
aF365.0
aF456.0
aF382.0
aF374.0
aF387.0
aF2658.0
aF1976.0
aF1770.0
aF3378.0
aF3.0
aF6.0
aF18.0
aF396.0
aF79.0
aF1438.0
aF2692.0
aF1766.0
aF175.0
aF8.0
aF1492.0
aF2420.0
aF338.0
aF174.0
aF1370.0
aF594.0
aF109.0
aF749.0
aF911.0
aF1102.0
aF884.0
aF530.0
aF811.0
aF2020.0
aF895.0
aF105.0
aF1.0
aF523.0
aF573.0
aF2570.0
aF386.0
aF689.0
aF624.0
aF753.0
aF658.0
aF269.0
aF860.0
aF671.0
aF169.0
aF552.0
aF578.0
aF28.0
aF118.0
aF1011.0
aF882.0
aF1289.0
aF50.0
aF47.0
aF99.0
aF231.0
aF325.0
aF890.0
aF142.0
aF129.0
aF98.0
aF330.0
aF68.0
aF77.0
aF52.0
aF169.0
aF386.0
aF899.0
aF832.0
aF1451.0
aF505.0
aF50.0
aF3130.0
aF2087.0
aF553.0
aF5.0
aF4090.0
aF867.0
aF461.0
aF5.0
aF6.0
aF315.0
aF324.0
aF1928.0
aF5.0
aF6.0
aF3.0
aF1093.0
aF2672.0
aF2139.0
aF386.0
aF2722.0
aF831.0
aF0.0
aF5.0
aF6.0
aF3.0
aF1643.0
aF472.0
aF317.0
aF2214.0
aF2840.0
aF145.0
aF734.0
aF1506.0
aF829.0
aF338.0
aF1436.0
aF1470.0
aF180.0
aF680.0
aF1318.0
aF1499.0
aF444.0
aF225.0
aF653.0
aF718.0
aF1635.0
aF699.0
aF642.0
aF426.0
aF323.0
aF2626.0
aF366.0
aF445.0
aF398.0
aF308.0
aF487.0
aF1476.0
aF1949.0
aF6.0
aF46.0
aF60.0
aF145.0
aF447.0
aF2554.0
aF91.0
aF3392.0
aF300.0
aF708.0
aF260.0
aF3571.0
aF1372.0
aF1194.0
aF58.0
aF821.0
aF3097.0
aF931.0
aF1082.0
aF573.0
aF6.0
aF46.0
aF2074.0
aF986.0
aF322.0
aF676.0
aF3.0
aF1951.0
aF246.0
aF205.0
aF1000.0
aF88.0
aF1286.0
aF694.0
aF1893.0
aF276.0
aF318.0
aF426.0
aF478.0
aF497.0
aF402.0
aF299.0
aF366.0
aF445.0
aF398.0
aF308.0
aF179.0
aF531.0
aF838.0
aF692.0
aF2246.0
aF2221.0
aF1030.0
aF638.0
aF129.0
aF310.0
aF19.0
aF35.0
aF7.0
aF732.0
aF503.0
aF250.0
aF1442.0
aF168.0
aF1095.0
aF1272.0
aF1712.0
aF46.0
aF247.0
aF1771.0
aF50.0
aF170.0
aF25.0
aF149.0
aF240.0
aF36.0
aF24.0
aF2.0
aF37.0
aF7.0
aF32.0
aF54.0
aF103.0
aF40.0
aF161.0
aF112.0
aF87.0
aF167.0
aF270.0
aF104.0
aF292.0
aF147.0
aF102.0
aF517.0
aF96.0
aF171.0
aF140.0
aF401.0
aF182.0
aF1518.0
aF521.0
aF1133.0
aF106.0
aF471.0
aF195.0
aF34.0
aF268.0
aF1300.0
aF1985.0
aF196.0
aF142.0
aF797.0
aF99.0
aF674.0
aF724.0
aF600.0
aF813.0
aF415.0
aF537.0
aF212.0
aF5.0
aF48.0
aF2704.0
aF98.0
aF52.0
aF1186.0
aF315.0
aF268.0
aF325.0
aF129.0
aF98.0
aF0.0
aF747.0
aF1418.0
aF315.0
aF516.0
aF144.0
aF1212.0
aF1819.0
aF3074.0
aF49.0
aF38.0
aF947.0
aF736.0
aF1507.0
aF785.0
aF2347.0
aF85.0
aF169.0
aF2697.0
aF791.0
aF127.0
aF203.0
aF212.0
aF3390.0
aF1047.0
aF658.0
aF709.0
aF2381.0
aF1061.0
aF35.0
aF479.0
aF615.0
aF3.0
aF6.0
aF2951.0
aF849.0
aF312.0
aF156.0
aF1944.0
aF138.0
aF65.0
aF27.0
aF72.0
aF228.0
aF142.0
aF446.0
aF52.0
aF231.0
aF971.0
aF1365.0
aF882.0
aF528.0
aF365.0
aF367.0
aF420.0
aF382.0
aF387.0
aF393.0
aF456.0
aF399.0
aF374.0
aF381.0
aF280.0
aF6.0
aF5.0
aF30.0
aF197.0
aF229.0
aF3136.0
aF622.0
aF186.0
aF567.0
aF722.0
aF1059.0
aF4482.0
aF1272.0
aF1313.0
aF4315.0
aF312.0
aF32.0
aF1261.0
aF55.0
aF843.0
aF558.0
aF916.0
aF332.0
aF628.0
aF469.0
aF1429.0
aF753.0
aF2008.0
aF289.0
aF2409.0
aF2360.0
aF615.0
aF753.0
aF919.0
aF1279.0
aF2015.0
aF985.0
aF2811.0
aF1040.0
aF1113.0
aF1670.0
aF23.0
aF1398.0
aF15.0
aF169.0
aF52.0
aF54.0
aF2542.0
aF654.0
aF317.0
aF289.0
aF96.0
aF1529.0
aF955.0
aF2493.0
aF1224.0
aF278.0
aF275.0
aF1588.0
aF1169.0
aF4590.0
aF3.0
aF6.0
aF5.0
aF113.0
aF2026.0
aF5.0
aF6.0
aF3.0
aF405.0
aF4123.0
aF1946.0
aF669.0
aF1245.0
aF1.0
aF288.0
aF461.0
aF764.0
aF3434.0
aF2770.0
aF3081.0
aF3508.0
aF12.0
aF2627.0
aF440.0
aF490.0
aF34.0
aF169.0
aF852.0
aF80.0
aF2.0
aF28.0
aF2083.0
aF668.0
aF746.0
aF2305.0
aF1029.0
aF260.0
aF3186.0
aF1269.0
aF1252.0
aF106.0
aF357.0
aF192.0
aF2059.0
aF1173.0
aF304.0
aF778.0
aF2257.0
aF1073.0
aF1167.0
aF48.0
aF242.0
aF706.0
aF982.0
aF1061.0
aF4082.0
aF717.0
aF706.0
aF982.0
aF1061.0
aF4082.0
aF2892.0
aF135.0
aF19.0
aF474.0
aF358.0
aF267.0
aF265.0
aF275.0
aF278.0
aF271.0
aF2014.0
aF66.0
aF242.0
aF1167.0
aF198.0
aF44.0
aF126.0
aF30.0
aF1093.0
aF48.0
aF628.0
aF1833.0
aF738.0
aF372.0
aF696.0
aF13.0
aF23.0
aF41.0
aF3176.0
aF1428.0
aF317.0
aF4.0
aF3688.0
aF921.0
aF1619.0
aF689.0
aF2310.0
aF1629.0
aF418.0
aF1406.0
aF2023.0
aF5.0
aF236.0
aF315.0
aF261.0
aF49.0
aF1470.0
aF110.0
aF1175.0
aF450.0
aF1225.0
aF243.0
aF43.0
aF221.0
aF87.0
aF167.0
aF154.0
aF107.0
aF1523.0
aF164.0
aF813.0
aF112.0
aF61.0
aF1119.0
aF115.0
aF247.0
aF316.0
aF780.0
aF876.0
aF1280.0
aF475.0
aF1383.0
aF1026.0
aF1157.0
aF319.0
aF1046.0
aF199.0
aF703.0
aF284.0
aF424.0
aF204.0
aF818.0
aF626.0
aF1352.0
aF1635.0
aF1463.0
aF1975.0
aF336.0
aF422.0
aF7.0
aF1241.0
aF21.0
aF130.0
aF20.0
aF138.0
aF19.0
aF679.0
aF4.0
aF435.0
aF40.0
aF25.0
aF72.0
aF159.0
aF250.0
aF2660.0
aF3.0
aF5.0
aF44.0
aF290.0
aF138.0
aF796.0
aF91.0
aF406.0
aF42.0
aF84.0
aF3330.0
aF3437.0
aF3447.0
aF3366.0
aF3253.0
aF3319.0
aF3250.0
aF3382.0
aF467.0
aF3327.0
aF2503.0
aF3321.0
aF482.0
aF3505.0
aF143.0
aF2041.0
aF124.0
aF49.0
aF512.0
aF1591.0
aF2372.0
aF2209.0
aF2712.0
aF2659.0
aF937.0
aF949.0
aF669.0
aF1188.0
aF842.0
aF1161.0
aF2545.0
aF3097.0
aF3291.0
aF153.0
aF139.0
aF243.0
aF404.0
aF3443.0
aF796.0
aF12.0
aF3532.0
aF4111.0
aF3699.0
aF1428.0
aF453.0
aF178.0
aF4.0
aF76.0
aF100.0
aF148.0
aF2936.0
aF509.0
aF1269.0
aF280.0
aF135.0
aF508.0
aF19.0
aF310.0
aF270.0
aF292.0
aF72.0
aF403.0
aF84.0
aF679.0
aF108.0
aF131.0
aF739.0
aF2.0
aF4628.0
aF304.0
aF1125.0
aF2635.0
aF185.0
aF1703.0
aF385.0
aF471.0
aF395.0
aF3088.0
aF14.0
aF1129.0
aF530.0
aF1372.0
aF3381.0
aF43.0
aF1741.0
aF6.0
aF2569.0
aF49.0
aF17.0
aF7.0
aF21.0
aF20.0
aF130.0
aF40.0
aF1718.0
aF138.0
aF19.0
aF4.0
aF27.0
aF25.0
aF1834.0
aF22.0
aF145.0
aF732.0
aF133.0
aF50.0
aF3632.0
aF1204.0
aF854.0
aF471.0
aF802.0
aF600.0
aF4094.0
aF597.0
aF1952.0
aF219.0
aF2900.0
aF570.0
aF2506.0
aF2760.0
aF3906.0
aF282.0
aF238.0
aF1041.0
aF274.0
aF3459.0
aF2435.0
aF3819.0
aF2189.0
aF1034.0
aF4330.0
aF1721.0
aF142.0
aF195.0
aF1300.0
aF1414.0
aF1434.0
aF247.0
aF388.0
aF84.0
aF414.0
aF4230.0
aF2818.0
aF336.0
aF1593.0
aF18.0
aF4.0
aF1649.0
aF1656.0
aF835.0
aF664.0
aF134.0
aF1387.0
aF101.0
aF344.0
aF415.0
aF142.0
aF2003.0
aF25.0
aF2657.0
aF1790.0
aF100.0
aF134.0
aF5.0
aF60.0
aF3371.0
aF2243.0
aF1251.0
aF1593.0
aF28.0
aF5.0
aF3.0
aF6.0
aF236.0
aF1120.0
aF4361.0
aF199.0
aF284.0
aF644.0
aF323.0
aF426.0
aF497.0
aF366.0
aF402.0
aF299.0
aF445.0
aF461.0
aF1009.0
aF179.0
aF2250.0
aF47.0
aF1307.0
aF1243.0
aF970.0
aF1424.0
aF974.0
aF963.0
aF501.0
aF1072.0
aF636.0
aF510.0
aF616.0
aF507.0
aF661.0
aF701.0
aF353.0
aF670.0
aF690.0
aF684.0
aF606.0
aF547.0
aF1060.0
aF17.0
aF963.0
aF974.0
aF970.0
aF1424.0
aF295.0
aF609.0
aF133.0
aF228.0
aF98.0
aF890.0
aF142.0
aF325.0
aF231.0
aF352.0
aF2752.0
aF694.0
aF195.0
aF14.0
aF1129.0
aF1212.0
aF5.0
aF422.0
aF44.0
aF447.0
aF1798.0
aF49.0
aF2178.0
aF3205.0
aF1656.0
aF664.0
aF580.0
aF268.0
aF3547.0
aF2898.0
aF69.0
aF20.0
aF657.0
aF282.0
aF223.0
aF219.0
aF259.0
aF359.0
aF264.0
aF286.0
aF24.0
aF115.0
aF1286.0
aF121.0
aF202.0
aF258.0
aF401.0
aF322.0
aF25.0
aF1017.0
aF1192.0
aF1062.0
aF302.0
aF290.0
aF688.0
aF189.0
aF235.0
aF1483.0
aF153.0
aF75.0
aF404.0
aF72.0
aF477.0
aF2018.0
aF3373.0
aF1495.0
aF29.0
aF3.0
aF6.0
aF5.0
aF3.0
aF5.0
aF18.0
aF6.0
aF396.0
aF16.0
aF1163.0
aF49.0
aF56.0
aF10.0
aF436.0
aF54.0
aF310.0
aF19.0
aF118.0
aF68.0
aF292.0
aF270.0
aF84.0
aF61.0
aF6.0
aF5.0
aF3.0
aF30.0
aF1093.0
aF325.0
aF98.0
aF231.0
aF142.0
aF228.0
aF791.0
aF169.0
aF2209.0
aF2303.0
aF79.0
aF124.0
aF894.0
aF229.0
aF217.0
aF2197.0
aF0.0
aF50.0
aF15.0
aF59.0
aF58.0
aF141.0
aF1121.0
aF143.0
aF198.0
aF1167.0
aF44.0
aF453.0
aF425.0
aF242.0
aF1121.0
aF300.0
aF133.0
aF789.0
aF2170.0
aF933.0
aF886.0
aF1184.0
aF2405.0
aF1306.0
aF3163.0
aF199.0
aF284.0
aF572.0
aF192.0
aF614.0
aF33.0
aF91.0
aF171.0
aF650.0
aF263.0
aF1763.0
aF2670.0
aF34.0
aF212.0
aF117.0
aF4.0
aF148.0
aF268.0
aF580.0
aF262.0
aF466.0
aF127.0
aF85.0
aF3.0
aF6.0
aF261.0
aF1369.0
aF627.0
aF864.0
aF301.0
aF451.0
aF487.0
aF2790.0
aF2180.0
aF452.0
aF2025.0
aF2037.0
aF577.0
aF704.0
aF298.0
aF2303.0
aF1645.0
aF3270.0
aF709.0
aF516.0
aF45.0
aF68.0
aF169.0
aF43.0
aF157.0
aF1523.0
aF293.0
aF140.0
aF2482.0
aF1721.0
aF719.0
aF1192.0
aF2435.0
aF1225.0
aF1119.0
aF61.0
aF1765.0
aF1194.0
aF160.0
aF1175.0
aF2189.0
aF1611.0
aF1309.0
aF3819.0
aF4330.0
aF1034.0
aF2852.0
aF1260.0
aF2900.0
aF3.0
aF6.0
aF396.0
aF1924.0
aF144.0
aF1268.0
aF61.0
aF1237.0
aF192.0
aF780.0
aF1089.0
aF1280.0
aF1430.0
aF1191.0
aF536.0
aF846.0
aF860.0
aF852.0
aF263.0
aF892.0
aF356.0
aF1932.0
aF571.0
aF615.0
aF501.0
aF468.0
aF18.0
aF118.0
aF144.0
aF2756.0
aF5.0
aF1873.0
aF7.0
aF57.0
aF21.0
aF19.0
aF40.0
aF4.0
aF1718.0
aF138.0
aF65.0
aF25.0
aF75.0
aF416.0
aF159.0
aF954.0
aF2349.0
aF254.0
aF223.0
aF219.0
aF286.0
aF281.0
aF238.0
aF274.0
aF848.0
aF282.0
aF341.0
aF259.0
aF1302.0
aF264.0
aF702.0
aF359.0
aF1932.0
aF305.0
aF515.0
aF96.0
aF60.0
aF46.0
aF2881.0
aF1432.0
aF1663.0
aF331.0
aF540.0
aF715.0
aF5.0
aF60.0
aF2316.0
aF238.0
aF359.0
aF282.0
aF274.0
aF281.0
aF286.0
aF341.0
aF702.0
aF219.0
aF264.0
aF223.0
aF4.0
aF0.0
aF68.0
aF78.0
aF276.0
aF58.0
aF141.0
aF197.0
aF207.0
aF229.0
aF538.0
aF614.0
aF686.0
aF76.0
aF514.0
aF2767.0
aF530.0
aF96.0
aF342.0
aF811.0
aF1122.0
aF603.0
aF1915.0
aF1465.0
aF1025.0
aF933.0
aF1704.0
aF1979.0
aF1500.0
aF1497.0
aF1276.0
aF11.0
aF3.0
aF5.0
aF6.0
aF18.0
aF946.0
aF944.0
aF1321.0
aF486.0
aF3167.0
aF324.0
aF229.0
aF207.0
aF15.0
aF70.0
aF45.0
aF98.0
aF9.0
aF455.0
aF2347.0
aF446.0
aF88.0
aF643.0
aF1714.0
aF39.0
aF532.0
aF1507.0
aF21.0
aF136.0
aF349.0
aF297.0
aF1582.0
aF12.0
aF625.0
aF50.0
aF4.0
aF35.0
aF624.0
aF148.0
aF241.0
aF689.0
aF1322.0
aF2.0
aF90.0
aF47.0
aF484.0
aF320.0
aF332.0
aF689.0
aF100.0
aF1374.0
aF148.0
aF2648.0
aF3037.0
aF2076.0
aF31.0
aF542.0
aF19.0
aF27.0
aF1391.0
aF93.0
aF1014.0
aF368.0
aF407.0
aF7.0
aF22.0
aF862.0
aF476.0
aF3487.0
aF894.0
aF1122.0
aF843.0
aF2923.0
aF1251.0
aF3529.0
aF3956.0
aF3.0
aF520.0
aF46.0
aF1921.0
aF21.0
aF138.0
aF1719.0
aF159.0
aF19.0
aF4.0
aF27.0
aF25.0
aF72.0
aF65.0
aF4008.0
aF416.0
aF755.0
aF1255.0
aF1986.0
aF58.0
aF148.0
aF1033.0
aF3205.0
aF1928.0
aF0.0
aF818.0
aF146.0
aF1031.0
aF192.0
aF1888.0
aF1617.0
aF304.0
aF2685.0
aF61.0
aF390.0
aF33.0
aF887.0
aF29.0
aF721.0
aF612.0
aF392.0
aF245.0
aF388.0
aF857.0
aF80.0
aF995.0
aF1640.0
aF875.0
aF1746.0
aF2268.0
aF1461.0
aF1276.0
aF1563.0
aF1187.0
aF245.0
aF1692.0
aF169.0
aF1627.0
aF179.0
aF1.0
aF2250.0
aF118.0
aF262.0
aF980.0
aF372.0
aF566.0
aF203.0
aF127.0
aF408.0
aF613.0
aF208.0
aF577.0
aF57.0
aF21.0
aF22.0
aF27.0
aF25.0
aF368.0
aF145.0
aF1480.0
aF197.0
aF229.0
aF35.0
aF898.0
aF2419.0
aF421.0
aF2305.0
aF83.0
aF1269.0
aF143.0
aF78.0
aF466.0
aF35.0
aF561.0
aF549.0
aF4102.0
aF255.0
aF210.0
aF98.0
aF129.0
aF169.0
aF1940.0
aF1904.0
aF325.0
aF74.0
aF677.0
aF516.0
aF3436.0
aF192.0
aF59.0
aF1697.0
aF972.0
aF632.0
aF216.0
aF2278.0
aF2245.0
aF1920.0
aF1122.0
aF1827.0
aF1015.0
aF608.0
aF90.0
aF3027.0
aF11.0
aF5.0
aF6.0
aF18.0
aF3.0
aF1044.0
aF2561.0
aF124.0
aF1038.0
aF696.0
aF6.0
aF3.0
aF2850.0
aF2288.0
aF1925.0
aF1610.0
aF2083.0
aF1043.0
aF2998.0
aF66.0
aF173.0
aF46.0
aF48.0
aF44.0
aF3.0
aF5.0
aF2561.0
aF696.0
aF108.0
aF2962.0
aF287.0
aF136.0
aF10.0
aF79.0
aF15.0
aF59.0
aF141.0
aF58.0
aF217.0
aF151.0
aF804.0
aF1387.0
aF229.0
aF1671.0
aF1011.0
aF3639.0
aF1374.0
aF78.0
aF898.0
aF370.0
aF641.0
aF3871.0
aF964.0
aF19.0
aF94.0
aF368.0
aF138.0
aF91.0
aF574.0
aF312.0
aF134.0
aF1311.0
aF872.0
aF42.0
aF263.0
aF1198.0
aF145.0
aF44.0
aF4257.0
aF1139.0
aF202.0
aF887.0
aF196.0
aF111.0
aF369.0
aF508.0
aF1987.0
aF20.0
aF345.0
aF2454.0
aF1829.0
aF1027.0
aF25.0
aF1411.0
aF676.0
aF1174.0
aF1351.0
aF486.0
aF1029.0
aF184.0
aF1028.0
aF708.0
aF789.0
aF260.0
aF1202.0
aF2142.0
aF7.0
aF2057.0
aF872.0
aF312.0
aF65.0
aF4316.0
aF54.0
aF2449.0
aF1027.0
aF1764.0
aF583.0
aF243.0
aF182.0
aF116.0
aF27.0
aF24.0
aF54.0
aF61.0
aF96.0
aF1311.0
aF258.0
aF356.0
aF2201.0
aF219.0
aF281.0
aF530.0
aF1081.0
aF1677.0
aF2656.0
aF1574.0
aF3009.0
aF2904.0
aF1959.0
aF1598.0
aF184.0
aF573.0
aF2603.0
aF2923.0
aF3452.0
aF332.0
aF1625.0
aF753.0
aF30.0
aF28.0
aF5.0
aF3.0
aF6.0
aF1154.0
aF4183.0
aF4283.0
aF49.0
aF35.0
aF1738.0
aF3.0
aF79.0
aF49.0
aF2684.0
aF1385.0
aF2162.0
aF1254.0
aF1057.0
aF1253.0
aF105.0
aF764.0
aF280.0
aF129.0
aF98.0
aF921.0
aF144.0
aF443.0
aF4115.0
aF580.0
aF315.0
aF52.0
aF19.0
aF2.0
aF90.0
aF32.0
aF161.0
aF517.0
aF1598.0
aF1582.0
aF3229.0
aF141.0
aF59.0
aF516.0
aF5.0
aF6.0
aF3.0
aF18.0
aF240.0
aF16.0
aF46.0
aF447.0
aF227.0
aF215.0
aF180.0
aF4221.0
aF1393.0
aF2192.0
aF1044.0
aF315.0
aF3861.0
aF3872.0
aF4593.0
aF3.0
aF627.0
aF60.0
aF261.0
aF336.0
aF2486.0
aF1866.0
aF1407.0
aF793.0
aF1235.0
aF16.0
aF18.0
aF534.0
aF1373.0
aF3017.0
aF1849.0
aF1850.0
aF262.0
aF1269.0
aF686.0
aF614.0
aF629.0
aF239.0
aF180.0
aF660.0
aF647.0
aF1112.0
aF2735.0
aF354.0
aF4608.0
aF8.0
aF62.0
aF288.0
aF0.0
aF1544.0
aF68.0
aF149.0
aF1335.0
aF2100.0
aF1683.0
aF95.0
aF73.0
aF795.0
aF191.0
aF85.0
aF2672.0
aF25.0
aF184.0
aF3093.0
aF2.0
aF2689.0
aF144.0
aF91.0
aF2298.0
aF2193.0
aF0.0
aF2467.0
aF1710.0
aF190.0
aF39.0
aF3803.0
aF1881.0
aF2367.0
aF236.0
aF3.0
aF49.0
aF179.0
aF2972.0
aF300.0
aF825.0
aF770.0
aF184.0
aF1028.0
aF708.0
aF178.0
aF31.0
aF336.0
aF1173.0
aF557.0
aF1590.0
aF874.0
aF174.0
aF357.0
aF926.0
aF1725.0
aF829.0
aF338.0
aF778.0
aF1100.0
aF1356.0
aF564.0
aF242.0
aF1447.0
aF629.0
aF1935.0
aF1013.0
aF215.0
aF180.0
aF239.0
aF740.0
aF900.0
aF48.0
aF2355.0
aF1696.0
aF618.0
aF2625.0
aF383.0
aF4433.0
aF3013.0
aF1517.0
aF996.0
aF2296.0
aF2359.0
aF3.0
aF18.0
aF6.0
aF67.0
aF2310.0
aF578.0
aF552.0
aF1239.0
aF240.0
aF628.0
aF68.0
aF52.0
aF537.0
aF797.0
aF415.0
aF355.0
aF99.0
aF196.0
aF64.0
aF330.0
aF880.0
aF195.0
aF119.0
aF7.0
aF32.0
aF178.0
aF1239.0
aF149.0
aF240.0
aF389.0
aF137.0
aF2324.0
aF2026.0
aF6.0
aF18.0
aF5.0
aF3.0
aF236.0
aF49.0
aF755.0
aF793.0
aF2457.0
aF373.0
aF4.0
aF98.0
aF99.0
aF45.0
aF231.0
aF117.0
aF118.0
aF694.0
aF2896.0
aF1137.0
aF199.0
aF3035.0
aF456.0
aF420.0
aF381.0
aF382.0
aF399.0
aF367.0
aF169.0
aF2423.0
aF90.0
aF1849.0
aF1897.0
aF2.0
aF19.0
aF32.0
aF645.0
aF27.0
aF72.0
aF25.0
aF433.0
aF4151.0
aF416.0
aF70.0
aF455.0
aF682.0
aF4471.0
aF395.0
aF217.0
aF804.0
aF19.0
aF399.0
aF420.0
aF382.0
aF393.0
aF374.0
aF381.0
aF3104.0
aF77.0
aF3567.0
aF241.0
aF50.0
aF882.0
aF571.0
aF580.0
aF2.0
aF294.0
aF90.0
aF21.0
aF2593.0
aF407.0
aF1055.0
aF2150.0
aF2239.0
aF886.0
aF4462.0
aF3192.0
aF119.0
aF1640.0
aF1564.0
aF2331.0
aF1792.0
aF1035.0
aF995.0
aF1039.0
aF261.0
aF1321.0
aF3004.0
aF910.0
aF1083.0
aF1746.0
aF1673.0
aF556.0
aF1461.0
aF395.0
aF1716.0
aF2268.0
aF4472.0
aF1656.0
aF410.0
aF79.0
aF199.0
aF284.0
aF324.0
aF2293.0
aF4.0
aF568.0
aF23.0
aF98.0
aF228.0
aF1265.0
aF835.0
aF643.0
aF68.0
aF78.0
aF546.0
aF34.0
aF1036.0
aF1486.0
aF889.0
aF947.0
aF446.0
aF736.0
aF289.0
aF169.0
aF85.0
aF254.0
aF4091.0
aF1934.0
aF238.0
aF274.0
aF702.0
aF341.0
aF259.0
aF264.0
aF219.0
aF281.0
aF286.0
aF223.0
aF282.0
aF359.0
aF848.0
aF1268.0
aF184.0
aF434.0
aF658.0
aF1627.0
aF298.0
aF604.0
aF1593.0
aF205.0
aF127.0
aF2244.0
aF6.0
aF5.0
aF16.0
aF46.0
aF5.0
aF60.0
aF240.0
aF169.0
aF44.0
aF48.0
aF798.0
aF1697.0
aF2697.0
aF448.0
aF1774.0
aF1545.0
aF2066.0
aF3102.0
aF2294.0
aF2310.0
aF31.0
aF231.0
aF118.0
aF127.0
aF408.0
aF205.0
aF466.0
aF246.0
aF2.0
aF289.0
aF514.0
aF2898.0
aF178.0
aF342.0
aF689.0
aF2522.0
aF753.0
aF3663.0
aF422.0
aF46.0
aF292.0
aF84.0
aF1484.0
aF1547.0
aF541.0
aF843.0
aF3156.0
aF0.0
aF867.0
aF3408.0
aF860.0
aF846.0
aF53.0
aF35.0
aF68.0
aF93.0
aF145.0
aF24.0
aF909.0
aF679.0
aF4.0
aF230.0
aF1.0
aF312.0
aF156.0
aF72.0
aF463.0
aF1764.0
aF368.0
aF377.0
aF2477.0
aF2490.0
aF309.0
aF323.0
aF426.0
aF2626.0
aF299.0
aF445.0
aF308.0
aF402.0
aF487.0
aF117.0
aF2962.0
aF818.0
aF737.0
aF2396.0
aF769.0
aF1.0
aF1143.0
aF174.0
aF3728.0
aF1089.0
aF1082.0
aF899.0
aF1080.0
aF957.0
aF2.0
aF294.0
aF32.0
aF19.0
aF1085.0
aF2150.0
aF650.0
aF503.0
aF1248.0
aF68.0
aF4689.0
aF481.0
aF60.0
aF447.0
aF46.0
aF3173.0
aF1690.0
aF295.0
aF389.0
aF1554.0
aF1432.0
aF2166.0
aF584.0
aF1796.0
aF467.0
aF2219.0
aF1594.0
aF1814.0
aF2198.0
aF1781.0
aF2282.0
aF1854.0
aF1485.0
aF2037.0
aF1056.0
aF1889.0
aF1695.0
aF1964.0
aF2129.0
aF1895.0
aF1804.0
aF5.0
aF152.0
aF44.0
aF57.0
aF21.0
aF7.0
aF27.0
aF416.0
aF42.0
aF144.0
aF830.0
aF55.0
aF1375.0
aF479.0
aF1094.0
aF442.0
aF96.0
aF1764.0
aF0.0
aF288.0
aF2254.0
aF428.0
aF831.0
aF1.0
aF865.0
aF1508.0
aF516.0
aF76.0
aF2617.0
aF113.0
aF100.0
aF134.0
aF16.0
aF886.0
aF1163.0
aF3110.0
aF1273.0
aF560.0
aF1300.0
aF813.0
aF600.0
aF388.0
aF72.0
aF901.0
aF2057.0
aF35.0
aF5.0
aF18.0
aF6.0
aF780.0
aF204.0
aF424.0
aF267.0
aF278.0
aF474.0
aF1257.0
aF1024.0
aF325.0
aF129.0
aF99.0
aF14.0
aF98.0
aF2822.0
aF580.0
aF117.0
aF248.0
aF1167.0
aF548.0
aF126.0
aF1063.0
aF436.0
aF41.0
aF16.0
aF60.0
aF26.0
aF718.0
aF782.0
aF3911.0
aF1046.0
aF876.0
aF626.0
aF1026.0
aF204.0
aF1280.0
aF424.0
aF284.0
aF199.0
aF1389.0
aF192.0
aF642.0
aF653.0
aF557.0
aF780.0
aF703.0
aF199.0
aF4824.0
aF331.0
aF313.0
aF1143.0
aF4268.0
aF2216.0
aF354.0
aF241.0
aF2229.0
aF386.0
aF298.0
aF2663.0
aF469.0
aF2794.0
aF2646.0
aF1574.0
aF1429.0
aF1847.0
aF1846.0
aF1891.0
aF2725.0
aF1872.0
aF100.0
aF113.0
aF3544.0
aF39.0
aF1016.0
aF776.0
aF770.0
aF396.0
aF2053.0
aF569.0
aF2821.0
aF1703.0
aF3157.0
aF1.0
a.