(lp0
(lp1
F3.0
aF3.0
aF3.0
aa(lp2
F3.0
aF3.0
aF4.0
aa(lp3
F2.0
aF2.0
aF6.0
aa(lp4
F1.0
aF1.0
aF2.0
aa(lp5
F1.0
aF2.0
aF2.0
aa(lp6
F2.0
aF2.0
aF1.0
aa(lp7
F2.0
aF2.0
aF2.0
aa(lp8
F2.0
aF2.0
aF2.0
aa(lp9
F2.0
aF2.0
aF2.0
aa(lp10
F12.0
aF12.0
aF12.0
aa(lp11
F12.0
aF12.0
aF12.0
aa(lp12
F14.0
aF2.0
aF2.0
aa(lp13
F15.0
aF15.0
aF15.0
aa(lp14
F15.0
aF15.0
aF15.0
aa(lp15
F17.0
aF8.0
aF8.0
aa(lp16
F8.0
aF8.0
aF8.0
aa(lp17
F1.0
aF1.0
aF1.0
aa(lp18
F18.0
aF18.0
aF18.0
aa(lp19
F1.0
aF19.0
aF1.0
aa(lp20
F8.0
aF8.0
aF20.0
aa(lp21
F21.0
aF11.0
aF22.0
aa(lp22
F11.0
aF22.0
aF14.0
aa(lp23
F22.0
aF14.0
aF21.0
aa(lp24
F14.0
aF21.0
aF12.0
aa(lp25
F21.0
aF12.0
aF21.0
aa(lp26
F12.0
aF21.0
aF16.0
aa(lp27
F21.0
aF16.0
aF12.0
aa(lp28
F16.0
aF12.0
aF23.0
aa(lp29
F12.0
aF23.0
aF11.0
aa(lp30
F23.0
aF11.0
aF24.0
aa(lp31
F11.0
aF24.0
aF11.0
aa(lp32
F24.0
aF11.0
aF12.0
aa(lp33
F11.0
aF12.0
aF21.0
aa(lp34
F12.0
aF21.0
aF12.0
aa(lp35
F21.0
aF12.0
aF12.0
aa(lp36
F12.0
aF12.0
aF11.0
aa(lp37
F3.0
aF3.0
aF3.0
aa(lp38
F26.0
aF2.0
aF2.0
aa(lp39
F1.0
aF1.0
aF1.0
aa(lp40
F1.0
aF2.0
aF1.0
aa(lp41
F1.0
aF11.0
aF1.0
aa(lp42
F2.0
aF2.0
aF2.0
aa(lp43
F28.0
aF11.0
aF11.0
aa(lp44
F11.0
aF11.0
aF11.0
aa(lp45
F14.0
aF14.0
aF14.0
aa(lp46
F7.0
aF7.0
aF8.0
aa(lp47
F7.0
aF8.0
aF7.0
aa(lp48
F1.0
aF1.0
aF1.0
aa(lp49
F1.0
aF1.0
aF1.0
aa(lp50
F1.0
aF1.0
aF2.0
aa(lp51
F1.0
aF2.0
aF2.0
aa(lp52
F2.0
aF2.0
aF1.0
aa(lp53
F2.0
aF1.0
aF2.0
aa(lp54
F1.0
aF2.0
aF2.0
aa(lp55
F2.0
aF2.0
aF2.0
aa(lp56
F2.0
aF2.0
aF2.0
aa(lp57
F2.0
aF2.0
aF2.0
aa(lp58
F2.0
aF2.0
aF1.0
aa(lp59
F2.0
aF1.0
aF1.0
aa(lp60
F1.0
aF1.0
aF1.0
aa(lp61
F1.0
aF1.0
aF1.0
aa(lp62
F1.0
aF1.0
aF2.0
aa(lp63
F1.0
aF2.0
aF1.0
aa(lp64
F2.0
aF1.0
aF1.0
aa(lp65
F1.0
aF1.0
aF1.0
aa(lp66
F30.0
aF17.0
aF17.0
aa(lp67
F14.0
aF2.0
aF2.0
aa(lp68
F2.0
aF2.0
aF2.0
aa(lp69
F15.0
aF2.0
aF1.0
aa(lp70
F2.0
aF1.0
aF1.0
aa(lp71
F9.0
aF9.0
aF9.0
aa(lp72
F26.0
aF8.0
aF8.0
aa(lp73
F1.0
aF2.0
aF1.0
aa(lp74
F1.0
aF1.0
aF1.0
aa(lp75
F1.0
aF1.0
aF1.0
aa(lp76
F1.0
aF1.0
aF1.0
aa(lp77
F1.0
aF1.0
aF1.0
aa(lp78
F1.0
aF1.0
aF1.0
aa(lp79
F1.0
aF1.0
aF1.0
aa(lp80
F1.0
aF1.0
aF1.0
aa(lp81
F1.0
aF1.0
aF1.0
aa(lp82
F1.0
aF1.0
aF1.0
aa(lp83
F1.0
aF1.0
aF1.0
aa(lp84
F1.0
aF1.0
aF1.0
aa(lp85
F1.0
aF1.0
aF1.0
aa(lp86
F1.0
aF1.0
aF1.0
aa(lp87
F1.0
aF1.0
aF1.0
aa(lp88
F1.0
aF1.0
aF1.0
aa(lp89
F1.0
aF1.0
aF1.0
aa(lp90
F15.0
aF15.0
aF2.0
aa(lp91
F11.0
aF2.0
aF2.0
aa(lp92
F20.0
aF2.0
aF2.0
aa(lp93
F1.0
aF1.0
aF1.0
aa(lp94
F1.0
aF1.0
aF1.0
aa(lp95
F1.0
aF1.0
aF1.0
aa(lp96
F1.0
aF1.0
aF1.0
aa(lp97
F1.0
aF1.0
aF1.0
aa(lp98
F2.0
aF2.0
aF2.0
aa(lp99
F2.0
aF2.0
aF2.0
aa(lp100
F2.0
aF2.0
aF2.0
aa(lp101
F2.0
aF2.0
aF2.0
aa(lp102
F9.0
aF9.0
aF9.0
aa(lp103
F9.0
aF9.0
aF9.0
aa(lp104
F1.0
aF1.0
aF1.0
aa(lp105
F1.0
aF1.0
aF1.0
aa(lp106
F1.0
aF1.0
aF1.0
aa(lp107
F1.0
aF1.0
aF1.0
aa(lp108
F1.0
aF1.0
aF1.0
aa(lp109
F1.0
aF1.0
aF1.0
aa(lp110
F1.0
aF1.0
aF1.0
aa(lp111
F1.0
aF1.0
aF1.0
aa(lp112
F1.0
aF1.0
aF1.0
aa(lp113
F1.0
aF1.0
aF1.0
aa(lp114
F1.0
aF1.0
aF1.0
aa(lp115
F1.0
aF1.0
aF1.0
aa(lp116
F1.0
aF1.0
aF1.0
aa(lp117
F1.0
aF1.0
aF1.0
aa(lp118
F1.0
aF1.0
aF1.0
aa(lp119
F1.0
aF1.0
aF1.0
aa(lp120
F1.0
aF1.0
aF1.0
aa(lp121
F1.0
aF1.0
aF1.0
aa(lp122
F1.0
aF1.0
aF1.0
aa(lp123
F1.0
aF1.0
aF1.0
aa(lp124
F1.0
aF1.0
aF1.0
aa(lp125
F1.0
aF1.0
aF1.0
aa(lp126
F1.0
aF1.0
aF1.0
aa(lp127
F1.0
aF1.0
aF1.0
aa(lp128
F1.0
aF1.0
aF1.0
aa(lp129
F1.0
aF1.0
aF1.0
aa(lp130
F1.0
aF1.0
aF1.0
aa(lp131
F1.0
aF1.0
aF1.0
aa(lp132
F1.0
aF1.0
aF1.0
aa(lp133
F1.0
aF1.0
aF1.0
aa(lp134
F1.0
aF1.0
aF1.0
aa(lp135
F9.0
aF9.0
aF9.0
aa(lp136
F9.0
aF9.0
aF9.0
aa(lp137
F9.0
aF9.0
aF9.0
aa(lp138
F12.0
aF1.0
aF1.0
aa(lp139
F8.0
aF7.0
aF7.0
aa(lp140
F7.0
aF7.0
aF14.0
aa(lp141
F1.0
aF1.0
aF1.0
aa(lp142
F2.0
aF2.0
aF2.0
aa(lp143
F1.0
aF1.0
aF1.0
aa(lp144
F2.0
aF1.0
aF1.0
aa(lp145
F1.0
aF1.0
aF1.0
aa(lp146
F1.0
aF1.0
aF1.0
aa(lp147
F12.0
aF12.0
aF12.0
aa(lp148
F12.0
aF12.0
aF12.0
aa(lp149
F12.0
aF12.0
aF12.0
aa(lp150
F9.0
aF2.0
aF2.0
aa(lp151
F2.0
aF2.0
aF2.0
aa(lp152
F2.0
aF2.0
aF2.0
aa(lp153
F9.0
aF9.0
aF9.0
aa(lp154
F2.0
aF1.0
aF1.0
aa(lp155
F19.0
aF2.0
aF19.0
aa(lp156
F2.0
aF19.0
aF2.0
aa(lp157
F9.0
aF2.0
aF2.0
aa(lp158
F33.0
aF35.0
aF35.0
aa(lp159
F2.0
aF2.0
aF2.0
aa(lp160
F2.0
aF2.0
aF11.0
aa(lp161
F12.0
aF12.0
aF12.0
aa(lp162
F1.0
aF1.0
aF1.0
aa(lp163
F14.0
aF2.0
aF2.0
aa(lp164
F2.0
aF2.0
aF2.0
aa(lp165
F2.0
aF2.0
aF2.0
aa(lp166
F1.0
aF1.0
aF1.0
aa(lp167
F1.0
aF1.0
aF1.0
aa(lp168
F1.0
aF1.0
aF1.0
aa(lp169
F1.0
aF1.0
aF1.0
aa(lp170
F1.0
aF1.0
aF1.0
aa(lp171
F1.0
aF1.0
aF1.0
aa(lp172
F1.0
aF1.0
aF1.0
aa(lp173
F1.0
aF1.0
aF1.0
aa(lp174
F1.0
aF1.0
aF1.0
aa(lp175
F1.0
aF1.0
aF1.0
aa(lp176
F1.0
aF2.0
aF1.0
aa(lp177
F2.0
aF1.0
aF1.0
aa(lp178
F1.0
aF1.0
aF1.0
aa(lp179
F1.0
aF1.0
aF15.0
aa(lp180
F1.0
aF15.0
aF1.0
aa(lp181
F1.0
aF1.0
aF1.0
aa(lp182
F1.0
aF1.0
aF1.0
aa(lp183
F1.0
aF1.0
aF1.0
aa(lp184
F2.0
aF1.0
aF1.0
aa(lp185
F1.0
aF1.0
aF1.0
aa(lp186
F2.0
aF9.0
aF2.0
aa(lp187
F8.0
aF8.0
aF8.0
aa(lp188
F8.0
aF8.0
aF8.0
aa(lp189
F1.0
aF1.0
aF1.0
aa(lp190
F1.0
aF1.0
aF1.0
aa(lp191
F1.0
aF1.0
aF1.0
aa(lp192
F2.0
aF2.0
aF2.0
aa(lp193
F2.0
aF2.0
aF2.0
aa(lp194
F2.0
aF2.0
aF2.0
aa(lp195
F2.0
aF2.0
aF2.0
aa(lp196
F2.0
aF2.0
aF2.0
aa(lp197
F33.0
aF23.0
aF14.0
aa(lp198
F23.0
aF14.0
aF33.0
aa(lp199
F2.0
aF2.0
aF2.0
aa(lp200
F1.0
aF1.0
aF1.0
aa(lp201
F2.0
aF2.0
aF2.0
aa(lp202
F2.0
aF2.0
aF2.0
aa(lp203
F1.0
aF1.0
aF1.0
aa(lp204
F1.0
aF1.0
aF1.0
aa(lp205
F1.0
aF1.0
aF1.0
aa(lp206
F16.0
aF2.0
aF2.0
aa(lp207
F2.0
aF2.0
aF9.0
aa(lp208
F15.0
aF2.0
aF1.0
aa(lp209
F2.0
aF1.0
aF1.0
aa(lp210
F1.0
aF1.0
aF1.0
aa(lp211
F1.0
aF1.0
aF1.0
aa(lp212
F1.0
aF1.0
aF1.0
aa(lp213
F1.0
aF1.0
aF1.0
aa(lp214
F1.0
aF1.0
aF1.0
aa(lp215
F1.0
aF1.0
aF1.0
aa(lp216
F1.0
aF1.0
aF1.0
aa(lp217
F2.0
aF9.0
aF2.0
aa(lp218
F9.0
aF2.0
aF9.0
aa(lp219
F2.0
aF9.0
aF9.0
aa(lp220
F2.0
aF2.0
aF2.0
aa(lp221
F2.0
aF2.0
aF2.0
aa(lp222
F2.0
aF2.0
aF2.0
aa(lp223
F2.0
aF2.0
aF2.0
aa(lp224
F41.0
aF42.0
aF28.0
aa(lp225
F42.0
aF28.0
aF28.0
aa(lp226
F2.0
aF2.0
aF2.0
aa(lp227
F2.0
aF2.0
aF2.0
aa(lp228
F12.0
aF2.0
aF2.0
aa(lp229
F2.0
aF2.0
aF2.0
aa(lp230
F2.0
aF2.0
aF2.0
aa(lp231
F45.0
aF7.0
aF7.0
aa(lp232
F7.0
aF7.0
aF7.0
aa(lp233
F1.0
aF1.0
aF1.0
aa(lp234
F1.0
aF1.0
aF1.0
aa(lp235
F1.0
aF1.0
aF1.0
aa(lp236
F1.0
aF1.0
aF1.0
aa(lp237
F1.0
aF1.0
aF1.0
aa(lp238
F1.0
aF1.0
aF1.0
aa(lp239
F12.0
aF2.0
aF2.0
aa(lp240
F9.0
aF1.0
aF1.0
aa(lp241
F1.0
aF1.0
aF1.0
aa(lp242
F9.0
aF12.0
aF9.0
aa(lp243
F12.0
aF9.0
aF12.0
aa(lp244
F9.0
aF9.0
aF9.0
aa(lp245
F12.0
aF2.0
aF2.0
aa(lp246
F2.0
aF2.0
aF2.0
aa(lp247
F2.0
aF2.0
aF14.0
aa(lp248
F2.0
aF14.0
aF2.0
aa(lp249
F49.0
aF50.0
aF50.0
aa(lp250
F2.0
aF2.0
aF2.0
aa(lp251
F2.0
aF2.0
aF2.0
aa(lp252
F2.0
aF2.0
aF2.0
aa(lp253
F16.0
aF11.0
aF16.0
aa(lp254
F14.0
aF11.0
aF11.0
aa(lp255
F1.0
aF1.0
aF1.0
aa(lp256
F1.0
aF1.0
aF1.0
aa(lp257
F1.0
aF1.0
aF1.0
aa(lp258
F1.0
aF1.0
aF1.0
aa(lp259
F1.0
aF1.0
aF1.0
aa(lp260
F1.0
aF1.0
aF1.0
aa(lp261
F1.0
aF1.0
aF1.0
aa(lp262
F1.0
aF1.0
aF1.0
aa(lp263
F1.0
aF1.0
aF1.0
aa(lp264
F1.0
aF1.0
aF1.0
aa(lp265
F1.0
aF1.0
aF1.0
aa(lp266
F1.0
aF1.0
aF1.0
aa(lp267
F1.0
aF1.0
aF1.0
aa(lp268
F1.0
aF1.0
aF1.0
aa(lp269
F1.0
aF1.0
aF1.0
aa(lp270
F1.0
aF1.0
aF1.0
aa(lp271
F1.0
aF1.0
aF1.0
aa(lp272
F1.0
aF1.0
aF1.0
aa(lp273
F1.0
aF1.0
aF1.0
aa(lp274
F1.0
aF1.0
aF1.0
aa(lp275
F1.0
aF1.0
aF1.0
aa(lp276
F1.0
aF1.0
aF1.0
aa(lp277
F2.0
aF1.0
aF2.0
aa(lp278
F1.0
aF2.0
aF1.0
aa(lp279
F2.0
aF1.0
aF2.0
aa(lp280
F1.0
aF2.0
aF2.0
aa(lp281
F2.0
aF2.0
aF1.0
aa(lp282
F2.0
aF1.0
aF2.0
aa(lp283
F1.0
aF1.0
aF1.0
aa(lp284
F12.0
aF12.0
aF12.0
aa(lp285
F12.0
aF11.0
aF12.0
aa(lp286
F1.0
aF1.0
aF1.0
aa(lp287
F1.0
aF1.0
aF1.0
aa(lp288
F12.0
aF12.0
aF12.0
aa(lp289
F1.0
aF1.0
aF1.0
aa(lp290
F1.0
aF1.0
aF1.0
aa(lp291
F1.0
aF1.0
aF1.0
aa(lp292
F1.0
aF1.0
aF1.0
aa(lp293
F1.0
aF1.0
aF1.0
aa(lp294
F1.0
aF1.0
aF1.0
aa(lp295
F1.0
aF1.0
aF1.0
aa(lp296
F1.0
aF1.0
aF1.0
aa(lp297
F1.0
aF1.0
aF1.0
aa(lp298
F14.0
aF2.0
aF2.0
aa(lp299
F9.0
aF1.0
aF2.0
aa(lp300
F1.0
aF2.0
aF1.0
aa(lp301
F1.0
aF1.0
aF1.0
aa(lp302
F2.0
aF12.0
aF2.0
aa(lp303
F12.0
aF2.0
aF2.0
aa(lp304
F1.0
aF1.0
aF1.0
aa(lp305
F11.0
aF11.0
aF11.0
aa(lp306
F8.0
aF1.0
aF1.0
aa(lp307
F11.0
aF1.0
aF1.0
aa(lp308
F1.0
aF1.0
aF1.0
aa(lp309
F31.0
aF2.0
aF2.0
aa(lp310
F2.0
aF2.0
aF2.0
aa(lp311
F2.0
aF2.0
aF2.0
aa(lp312
F2.0
aF2.0
aF2.0
aa(lp313
F12.0
aF12.0
aF12.0
aa(lp314
F12.0
aF12.0
aF12.0
aa(lp315
F12.0
aF12.0
aF12.0
aa(lp316
F12.0
aF12.0
aF12.0
aa(lp317
F12.0
aF12.0
aF12.0
aa(lp318
F12.0
aF12.0
aF12.0
aa(lp319
F12.0
aF12.0
aF12.0
aa(lp320
F12.0
aF12.0
aF12.0
aa(lp321
F12.0
aF12.0
aF12.0
aa(lp322
F12.0
aF12.0
aF12.0
aa(lp323
F12.0
aF12.0
aF12.0
aa(lp324
F12.0
aF12.0
aF12.0
aa(lp325
F12.0
aF12.0
aF12.0
aa(lp326
F12.0
aF12.0
aF12.0
aa(lp327
F1.0
aF1.0
aF1.0
aa(lp328
F1.0
aF1.0
aF1.0
aa(lp329
F11.0
aF11.0
aF2.0
aa(lp330
F11.0
aF2.0
aF2.0
aa(lp331
F2.0
aF2.0
aF9.0
aa(lp332
F1.0
aF1.0
aF1.0
aa(lp333
F1.0
aF1.0
aF1.0
aa(lp334
F1.0
aF1.0
aF1.0
aa(lp335
F1.0
aF1.0
aF1.0
aa(lp336
F1.0
aF1.0
aF1.0
aa(lp337
F1.0
aF1.0
aF1.0
aa(lp338
F1.0
aF1.0
aF1.0
aa(lp339
F1.0
aF1.0
aF1.0
aa(lp340
F15.0
aF15.0
aF15.0
aa(lp341
F2.0
aF2.0
aF2.0
aa(lp342
F2.0
aF2.0
aF2.0
aa(lp343
F1.0
aF1.0
aF2.0
aa(lp344
F1.0
aF2.0
aF2.0
aa(lp345
F2.0
aF2.0
aF9.0
aa(lp346
F9.0
aF2.0
aF2.0
aa(lp347
F1.0
aF1.0
aF1.0
aa(lp348
F1.0
aF1.0
aF1.0
aa(lp349
F1.0
aF1.0
aF1.0
aa(lp350
F1.0
aF1.0
aF1.0
aa(lp351
F8.0
aF9.0
aF9.0
aa(lp352
F9.0
aF9.0
aF9.0
aa(lp353
F1.0
aF1.0
aF1.0
aa(lp354
F14.0
aF56.0
aF26.0
aa(lp355
F56.0
aF26.0
aF14.0
aa(lp356
F26.0
aF14.0
aF14.0
aa(lp357
F1.0
aF1.0
aF1.0
aa(lp358
F2.0
aF1.0
aF1.0
aa(lp359
F3.0
aF53.0
aF3.0
aa(lp360
F53.0
aF3.0
aF3.0
aa(lp361
F1.0
aF1.0
aF1.0
aa(lp362
F1.0
aF1.0
aF1.0
aa(lp363
F1.0
aF1.0
aF1.0
aa(lp364
F16.0
aF16.0
aF47.0
aa(lp365
F16.0
aF47.0
aF59.0
aa(lp366
F1.0
aF1.0
aF1.0
aa(lp367
F61.0
aF14.0
aF56.0
aa(lp368
F14.0
aF56.0
aF14.0
aa(lp369
F56.0
aF14.0
aF61.0
aa(lp370
F14.0
aF61.0
aF14.0
aa(lp371
F2.0
aF2.0
aF2.0
aa(lp372
F1.0
aF1.0
aF1.0
aa(lp373
F12.0
aF12.0
aF12.0
aa(lp374
F2.0
aF2.0
aF2.0
aa(lp375
F1.0
aF1.0
aF1.0
aa(lp376
F1.0
aF1.0
aF1.0
aa(lp377
F1.0
aF1.0
aF1.0
aa(lp378
F1.0
aF1.0
aF1.0
aa(lp379
F2.0
aF2.0
aF2.0
aa(lp380
F59.0
aF12.0
aF12.0
aa(lp381
F12.0
aF12.0
aF12.0
aa(lp382
F12.0
aF12.0
aF12.0
aa(lp383
F12.0
aF12.0
aF12.0
aa(lp384
F12.0
aF12.0
aF12.0
aa(lp385
F12.0
aF12.0
aF12.0
aa(lp386
F12.0
aF12.0
aF12.0
aa(lp387
F12.0
aF12.0
aF28.0
aa(lp388
F1.0
aF1.0
aF1.0
aa(lp389
F1.0
aF1.0
aF1.0
aa(lp390
F9.0
aF9.0
aF9.0
aa(lp391
F9.0
aF9.0
aF9.0
aa(lp392
F18.0
aF14.0
aF14.0
aa(lp393
F14.0
aF14.0
aF21.0
aa(lp394
F11.0
aF11.0
aF9.0
aa(lp395
F1.0
aF2.0
aF1.0
aa(lp396
F2.0
aF1.0
aF1.0
aa(lp397
F1.0
aF1.0
aF1.0
aa(lp398
F1.0
aF1.0
aF1.0
aa(lp399
F12.0
aF63.0
aF12.0
aa(lp400
F11.0
aF11.0
aF11.0
aa(lp401
F11.0
aF11.0
aF65.0
aa(lp402
F11.0
aF65.0
aF65.0
aa(lp403
F65.0
aF65.0
aF11.0
aa(lp404
F2.0
aF2.0
aF2.0
aa(lp405
F2.0
aF2.0
aF2.0
aa(lp406
F1.0
aF1.0
aF1.0
aa(lp407
F1.0
aF1.0
aF1.0
aa(lp408
F23.0
aF2.0
aF2.0
aa(lp409
F1.0
aF1.0
aF1.0
aa(lp410
F1.0
aF1.0
aF1.0
aa(lp411
F1.0
aF1.0
aF1.0
aa(lp412
F1.0
aF1.0
aF1.0
aa(lp413
F1.0
aF1.0
aF1.0
aa(lp414
F1.0
aF1.0
aF1.0
aa(lp415
F56.0
aF21.0
aF21.0
aa(lp416
F21.0
aF21.0
aF21.0
aa(lp417
F34.0
aF16.0
aF16.0
aa(lp418
F1.0
aF1.0
aF1.0
aa(lp419
F1.0
aF1.0
aF1.0
aa(lp420
F2.0
aF2.0
aF2.0
aa(lp421
F20.0
aF20.0
aF2.0
aa(lp422
F20.0
aF2.0
aF2.0
aa(lp423
F2.0
aF2.0
aF20.0
aa(lp424
F2.0
aF20.0
aF20.0
aa(lp425
F20.0
aF20.0
aF2.0
aa(lp426
F20.0
aF2.0
aF2.0
aa(lp427
F2.0
aF2.0
aF2.0
aa(lp428
F2.0
aF2.0
aF20.0
aa(lp429
F9.0
aF2.0
aF2.0
aa(lp430
F1.0
aF1.0
aF1.0
aa(lp431
F1.0
aF1.0
aF12.0
aa(lp432
F9.0
aF9.0
aF9.0
aa(lp433
F9.0
aF9.0
aF9.0
aa(lp434
F9.0
aF9.0
aF9.0
aa(lp435
F12.0
aF12.0
aF16.0
aa(lp436
F8.0
aF15.0
aF8.0
aa(lp437
F15.0
aF8.0
aF8.0
aa(lp438
F20.0
aF2.0
aF2.0
aa(lp439
F2.0
aF2.0
aF2.0
aa(lp440
F2.0
aF2.0
aF2.0
aa.