(lp0
(lp1
F1.0
aF1.0233452553854454
aF1.2717381863416575
aa(lp2
F1.0
aF1.2427264206767192
aF1.4000927179542335
aa(lp3
F1.0
aF1.0155035678094484
aF1.0332325726112215
aa(lp4
F1.0
aF1.0432154187324594
aF1.0967022170072456
aa(lp5
F1.0
aF1.0512710963760241
aF1.0778841508846315
aa(lp6
F1.0
aF1.0253151205244289
aF1.1866733001020535
aa(lp7
F1.0
aF1.157374231928905
aF1.1730596074438278
aa(lp8
F1.0
aF1.0135525529100309
aF1.029266233642511
aa(lp9
F1.0
aF1.2619931140082739
aF1.368152840486748
aa(lp10
F1.0
aF1.0372141961042856
aF1.0432154187324594
aa(lp11
F1.0
aF1.0057859048311468
aF1.0116052863570086
aa(lp12
F1.0
aF1.0412111630215322
aF1.0903933051153287
aa(lp13
F1.0
aF1.019416871522534
aF1.0233452553854454
aa(lp14
F1.0
aF1.1889575598403304
aF1.3395151127330227
aa(lp15
F1.0
aF1.0472355117199024
aF1.2261095067134926
aa(lp16
F1.0
aF1.1708058913126627
aF1.2261095067134926
aa(lp17
F1.0
aF1.0472355117199024
aF1.057353650891391
aa(lp18
F1.0
aF1.0038535597876108
aF1.0452235324897632
aa(lp19
F1.0
aF1.019416871522534
aF1.0432154187324594
aa(lp20
F1.0
aF1.0372141961042856
aF1.053294716726511
aa(lp21
F1.0
aF1.0155035678094484
aF1.0213791748084837
aa(lp22
F1.0
aF1.0057859048311468
aF1.0253151205244289
aa(lp23
F1.0
aF1.019416871522534
aF1.0412111630215322
aa(lp24
F1.0
aF1.0778841508846315
aF1.1596020930932938
aa(lp25
F1.0
aF1.0332325726112215
aF1.039210757944791
aa(lp26
F1.0
aF1.0077219694982582
aF1.0155035678094484
aa(lp27
F1.0
aF1.0077219694982582
aF1.0135525529100309
aa(lp28
F1.0
aF1.0057859048311468
aF1.0096617609489498
aa(lp29
F1.0
aF1.0553222323988962
aF1.0696245427906141
aa(lp30
F1.0
aF1.1418985908584067
aF1.1843934289498188
aa(lp31
F1.0
aF1.0372141961042856
aF1.0988132889585343
aa(lp32
F1.0
aF1.0593889797166403
aF1.071683492189711
aa(lp33
F1.0
aF1.0116052863570086
aF1.021379174808484
aa(lp34
F1.0
aF1.0096617609489498
aF1.0135525529100309
aa(lp35
F1.0
aF1.329250679530152
aF1.3524571875397546
aa(lp36
F1.0
aF1.0412111630215322
aF1.191246216612358
aa(lp37
F1.0
aF1.1440966625400302
aF1.3734250992561532
aa(lp38
F1.0
aF1.2004449835619542
aF1.2073906439918713
aa(lp39
F1.0
aF1.0057859048311468
aF1.051271096376024
aa(lp40
F1.0
aF1.3216040045354474
aF1.3524571875397546
aa(lp41
F1.0
aF1.0135525529100309
aF1.0655185035324461
aa(lp42
F1.0
aF1.3787176749899421
aF1.3866948042464537
aa(lp43
F1.0
aF1.0057859048311466
aF1.0096617609489495
aa(lp44
F1.0
aF1.0512710963760241
aF1.071683492189711
aa(lp45
F1.0
aF1.0155035678094484
aF1.039210757944791
aa(lp46
F1.0
aF1.0233452553854452
aF1.0655185035324461
aa(lp47
F1.0
aF1.0019249272214015
aF1.0553222323988962
aa(lp48
F1.0
aF1.0820378419041834
aF1.094595200908601
aa(lp49
F1.0
aF1.296431363316154
aF1.3039323918044152
aa(lp50
F1.0
aF1.0452235324897632
aF1.0758132886002594
aa(lp51
F1.0
aF1.0292662336425111
aF1.0634713984883142
aa(lp52
F1.0
aF1.0332325726112215
aF1.0655185035324461
aa(lp53
F1.0
aF1.0312474962337188
aF1.0352214701162794
aa(lp54
F1.0
aF1.0038535597876108
aF1.0412111630215322
aa(lp55
F1.0
aF1.057353650891391
aF1.281558509826358
aa(lp56
F1.0
aF1.2120433960254957
aF1.3064423667602667
aa(lp57
F1.0
aF1.0778841508846315
aF1.0799589994281866
aa(lp58
F1.0
aF1.0019249272214015
aF1.0077219694982582
aa(lp59
F1.0
aF1.0233452553854454
aF1.0553222323988962
aa(lp60
F1.0
aF1.067569549104803
aF1.5414018702288472
aa(lp61
F1.0
aF1.0096617609489498
aF1.0253151205244289
aa(lp62
F1.0
aF1.0213791748084837
aF1.071683492189711
aa(lp63
F1.0
aF1.0096617609489498
aF1.031247496233719
aa(lp64
F1.0
aF1.2214027581601699
aF1.2332036596319012
aa(lp65
F1.0
aF1.0096617609489498
aF1.0253151205244289
aa(lp66
F1.0
aF1.0155035678094484
aF1.027288777510441
aa(lp67
F1.0
aF1.0116052863570084
aF1.0372141961042856
aa(lp68
F1.0
aF1.0077219694982582
aF1.2692948860634883
aa(lp69
F1.0
aF1.2595685362456337
aF1.3216040045354474
aa(lp70
F1.0
aF1.1440966625400302
aF1.16631144044593
aa(lp71
F1.0
aF1.0194168715225342
aF1.1115653318297845
aa(lp72
F1.0
aF1.0903933051153287
aF1.1223050103450638
aa(lp73
F1.0
aF1.0988132889585343
aF1.3039323918044152
aa(lp74
F1.0
aF1.0155035678094484
aF1.05938897971664
aa(lp75
F1.0
aF1.3216040045354474
aF1.4081935211750984
aa(lp76
F1.0
aF1.0655185035324464
aF1.071683492189711
aa(lp77
F1.0
aF1.0057859048311468
aF1.027288777510441
aa(lp78
F1.0
aF1.0213791748084837
aF1.0253151205244289
aa(lp79
F1.0
aF1.0038535597876108
aF1.0135525529100309
aa(lp80
F1.0
aF1.0096617609489498
aF1.094595200908601
aa(lp81
F1.0
aF1.0841206860006514
aF1.1244653658101922
aa(lp82
F1.0
aF1.0038535597876108
aF1.0096617609489498
aa(lp83
F1.0
aF1.161834242728283
aF1.2167140777172587
aa(lp84
F1.0
aF1.0472355117199021
aF1.055322232398896
aa(lp85
F1.0
aF1.0077219694982582
aF1.0372141961042856
aa(lp86
F1.0
aF1.0492513638636303
aF1.1935392788821069
aa(lp87
F1.0
aF1.1375151083789579
aF1.1440966625400302
aa(lp88
F1.0
aF1.0412111630215322
aF1.1072982916601528
aa(lp89
F1.0
aF1.0057859048311468
aF1.039210757944791
aa(lp90
F1.0
aF1.0332325726112215
aF1.0452235324897632
aa(lp91
F1.0
aF1.0116052863570086
aF1.017458338270555
aa(lp92
F1.0
aF1.3369415974586507
aF1.397402819228238
aa(lp93
F1.0
aF1.0988132889585343
aF1.1030476316629572
aa(lp94
F1.0
aF1.230834393003771
aF1.2355774869258587
aa(lp95
F1.0
aF1.0038535597876106
aF1.1137050141953897
aa(lp96
F1.0
aF1.1094297602839809
aF1.11370501419539
aa(lp97
F1.0
aF1.0038535597876108
aF1.0292662336425111
aa(lp98
F1.0
aF1.0253151205244289
aF1.1353296813700235
aa(lp99
F1.0
aF1.0233452553854454
aF1.0292662336425111
aa(lp100
F1.0
aF1.0077219694982582
aF1.031247496233719
aa(lp101
F1.0
aF1.0077219694982582
aF1.1287985603264394
aa(lp102
F1.0
aF1.0292662336425111
aF1.0634713984883142
aa(lp103
F1.0
aF1.0116052863570086
aF1.0233452553854454
aa(lp104
F1.0
aF1.0116052863570086
aF1.0253151205244289
aa(lp105
F1.0
aF1.0135525529100309
aF1.4081935211750984
aa(lp106
F1.0
aF1.0019249272214015
aF1.0038535597876108
aa(lp107
F1.0
aF1.0019249272214015
aF1.0634713984883142
aa(lp108
F1.0
aF1.0882984098811406
aF1.0903933051153287
aa(lp109
F1.0
aF1.0019249272214015
aF1.0292662336425111
aa(lp110
F1.0
aF1.0614282264017494
aF1.071683492189711
aa(lp111
F1.0
aF1.0096617609489498
aF1.1981386538521408
aa(lp112
F1.0
aF1.0057859048311468
aF1.0213791748084837
aa(lp113
F1.0
aF1.1708058913126629
aF1.2889734853997594
aa(lp114
F1.0
aF1.1009284245696882
aF1.1158488152938257
aa(lp115
F1.0
aF1.0135525529100309
aF1.1115653318297845
aa(lp116
F1.0
aF1.0096617609489498
aF1.017458338270555
aa(lp117
F1.0
aF1.0116052863570086
aF1.0553222323988962
aa(lp118
F1.0
aF1.0155035678094484
aF1.0799589994281866
aa(lp119
F1.0
aF1.0634713984883142
aF1.0758132886002594
aa(lp120
F1.0
aF1.0116052863570086
aF1.039210757944791
aa(lp121
F1.0
aF1.027288777510441
aF1.0614282264017496
aa(lp122
F1.0
aF1.0135525529100309
aF1.0452235324897632
aa(lp123
F1.0
aF1.017458338270555
aF1.0432154187324594
aa(lp124
F1.0
aF1.1730596074438278
aF1.3216040045354474
aa(lp125
F1.0
aF1.1266298798023635
aF1.161834242728283
aa(lp126
F1.0
aF1.0057859048311468
aF1.0924922328703792
aa(lp127
F1.0
aF1.0472355117199024
aF1.0882984098811406
aa(lp128
F1.0
aF1.0655185035324461
aF1.1137050141953897
aa(lp129
F1.0
aF1.0135525529100309
aF1.0155035678094484
aa(lp130
F1.0
aF1.0432154187324594
aF1.2451185785926346
aa(lp131
F1.0
aF1.1935392788821069
aF1.195836755129839
aa(lp132
F1.0
aF1.0292662336425111
aF1.0372141961042856
aa(lp133
F1.0
aF1.0077219694982582
aF1.0116052863570086
aa(lp134
F1.0
aF1.0038535597876108
aF1.0116052863570086
aa(lp135
F1.0
aF1.1640706890888672
aF1.2989268993380798
aa.