(lp0
(lp1
F0.0
aF0.2307692307692308
aF2.403846153846154
aa(lp2
F0.2307692307692308
aF2.403846153846154
aF3.596153846153846
aa(lp3
F0.0
aF0.1538461538461539
aF0.3269230769230769
aa(lp4
F0.0
aF0.4230769230769231
aF0.9230769230769231
aa(lp5
F0.4230769230769231
aF0.9230769230769231
aF1.173076923076923
aa(lp6
F0.9230769230769231
aF1.173076923076923
aF2.634615384615385
aa(lp7
F1.173076923076923
aF2.634615384615385
aF2.769230769230769
aa(lp8
F2.634615384615385
aF2.769230769230769
aF2.923076923076923
aa(lp9
F0.0
aF2.326923076923077
aF3.134615384615385
aa(lp10
F0.0
aF0.3653846153846154
aF0.4230769230769231
aa(lp11
F0.3653846153846154
aF0.4230769230769231
aF0.4807692307692308
aa(lp12
F0.0
aF0.4038461538461539
aF0.8653846153846154
aa(lp13
F0.0
aF0.1923076923076923
aF0.2307692307692308
aa(lp14
F0.0
aF1.730769230769231
aF2.923076923076923
aa(lp15
F0.0
aF0.4615384615384616
aF2.038461538461538
aa(lp16
F0.4615384615384616
aF2.038461538461538
aF2.5
aa(lp17
F2.038461538461538
aF2.5
aF2.596153846153846
aa(lp18
F0.0
aF0.03846153846153846
aF0.4423076923076923
aa(lp19
F0.0
aF0.1923076923076923
aF0.4230769230769231
aa(lp20
F0.0
aF0.3653846153846154
aF0.5192307692307693
aa(lp21
F0.0
aF0.1538461538461539
aF0.2115384615384615
aa(lp22
F0.1538461538461539
aF0.2115384615384615
aF0.4038461538461539
aa(lp23
F0.2115384615384615
aF0.4038461538461539
aF0.6153846153846154
aa(lp24
F0.0
aF0.75
aF1.480769230769231
aa(lp25
F0.0
aF0.3269230769230769
aF0.3846153846153846
aa(lp26
F0.0
aF0.07692307692307693
aF0.1538461538461539
aa(lp27
F0.07692307692307693
aF0.1538461538461539
aF0.2115384615384615
aa(lp28
F0.1538461538461539
aF0.2115384615384615
aF0.25
aa(lp29
F0.0
aF0.5384615384615384
aF0.6730769230769231
aa(lp30
F0.0
aF1.326923076923077
aF1.692307692307692
aa(lp31
F1.326923076923077
aF1.692307692307692
aF2.269230769230769
aa(lp32
F1.692307692307692
aF2.269230769230769
aF2.384615384615385
aa(lp33
F2.269230769230769
aF2.384615384615385
aF2.480769230769231
aa(lp34
F0.0
aF0.09615384615384616
aF0.1346153846153846
aa(lp35
F0.0
aF2.846153846153846
aF3.019230769230769
aa(lp36
F0.0
aF0.4038461538461539
aF1.75
aa(lp37
F0.4038461538461539
aF1.75
aF3.576923076923077
aa(lp38
F1.75
aF3.576923076923077
aF3.634615384615385
aa(lp39
F3.576923076923077
aF3.634615384615385
aF4.076923076923077
aa(lp40
F0.0
aF2.788461538461538
aF3.019230769230769
aa(lp41
F0.0
aF0.1346153846153846
aF0.6346153846153846
aa(lp42
F0.0
aF3.211538461538462
aF3.269230769230769
aa(lp43
F3.211538461538462
aF3.269230769230769
aF3.307692307692307
aa(lp44
F0.0
aF0.5
aF0.6923076923076923
aa(lp45
F0.0
aF0.1538461538461539
aF0.3846153846153846
aa(lp46
F0.1538461538461539
aF0.3846153846153846
aF0.7884615384615384
aa(lp47
F0.0
aF0.01923076923076923
aF0.5384615384615384
aa(lp48
F0.0
aF0.7884615384615384
aF0.9038461538461539
aa(lp49
F0.0
aF2.596153846153846
aF2.653846153846154
aa(lp50
F0.0
aF0.4423076923076923
aF0.7307692307692307
aa(lp51
F0.4423076923076923
aF0.7307692307692307
aF1.057692307692308
aa(lp52
F0.7307692307692307
aF1.057692307692308
aF1.365384615384615
aa(lp53
F1.057692307692308
aF1.365384615384615
aF1.403846153846154
aa(lp54
F1.365384615384615
aF1.403846153846154
aF1.769230769230769
aa(lp55
F0.0
aF0.5576923076923077
aF2.480769230769231
aa(lp56
F0.5576923076923077
aF2.480769230769231
aF3.230769230769231
aa(lp57
F2.480769230769231
aF3.230769230769231
aF3.25
aa(lp58
F3.230769230769231
aF3.25
aF3.307692307692307
aa(lp59
F0.0
aF0.2307692307692308
aF0.5384615384615384
aa(lp60
F0.0
aF0.6538461538461539
aF4.326923076923077
aa(lp61
F0.0
aF0.09615384615384616
aF0.25
aa(lp62
F0.0
aF0.2115384615384615
aF0.6923076923076923
aa(lp63
F0.0
aF0.09615384615384616
aF0.3076923076923077
aa(lp64
F0.0
aF2.0
aF2.096153846153846
aa(lp65
F2.0
aF2.096153846153846
aF2.25
aa(lp66
F2.096153846153846
aF2.25
aF2.365384615384615
aa(lp67
F2.25
aF2.365384615384615
aF2.615384615384615
aa(lp68
F0.0
aF0.07692307692307693
aF2.384615384615385
aa(lp69
F0.07692307692307693
aF2.384615384615385
aF2.865384615384615
aa(lp70
F0.0
aF1.346153846153846
aF1.538461538461539
aa(lp71
F1.346153846153846
aF1.538461538461539
aF2.403846153846154
aa(lp72
F1.538461538461539
aF2.403846153846154
aF2.692307692307693
aa(lp73
F0.0
aF0.9423076923076923
aF2.653846153846154
aa(lp74
F0.0
aF0.1538461538461539
aF0.5769230769230769
aa(lp75
F0.0
aF2.788461538461538
aF3.423076923076923
aa(lp76
F2.788461538461538
aF3.423076923076923
aF3.480769230769231
aa(lp77
F0.0
aF0.0576923076923077
aF0.2692307692307692
aa(lp78
F0.0576923076923077
aF0.2692307692307692
aF0.3076923076923077
aa(lp79
F0.2692307692307692
aF0.3076923076923077
aF0.4038461538461539
aa(lp80
F0.3076923076923077
aF0.4038461538461539
aF1.211538461538461
aa(lp81
F0.4038461538461539
aF1.211538461538461
aF1.576923076923077
aa(lp82
F0.0
aF0.03846153846153846
aF0.09615384615384616
aa(lp83
F0.0
aF1.5
aF1.961538461538461
aa(lp84
F1.5
aF1.961538461538461
aF2.038461538461538
aa(lp85
F1.961538461538461
aF2.038461538461538
aF2.326923076923077
aa(lp86
F0.0
aF0.4807692307692308
aF1.769230769230769
aa(lp87
F0.4807692307692308
aF1.769230769230769
aF1.826923076923077
aa(lp88
F0.0
aF0.4038461538461539
aF1.019230769230769
aa(lp89
F0.0
aF0.0576923076923077
aF0.3846153846153846
aa(lp90
F0.0576923076923077
aF0.3846153846153846
aF0.5
aa(lp91
F0.3846153846153846
aF0.5
aF0.5576923076923077
aa(lp92
F0.0
aF2.903846153846154
aF3.346153846153846
aa(lp93
F0.0
aF0.9423076923076923
aF0.9807692307692307
aa(lp94
F0.0
aF2.076923076923077
aF2.115384615384615
aa(lp95
F2.076923076923077
aF2.115384615384615
aF3.153846153846154
aa(lp96
F2.115384615384615
aF3.153846153846154
aF3.192307692307693
aa(lp97
F3.153846153846154
aF3.192307692307693
aF3.442307692307693
aa(lp98
F3.192307692307693
aF3.442307692307693
aF4.461538461538462
aa(lp99
F0.0
aF0.2307692307692308
aF0.2884615384615384
aa(lp100
F0.0
aF0.07692307692307693
aF0.3076923076923077
aa(lp101
F0.0
aF0.07692307692307693
aF1.211538461538461
aa(lp102
F0.0
aF0.2884615384615384
aF0.6153846153846154
aa(lp103
F0.0
aF0.1153846153846154
aF0.2307692307692308
aa(lp104
F0.1153846153846154
aF0.2307692307692308
aF0.3653846153846154
aa(lp105
F0.2307692307692308
aF0.3653846153846154
aF3.653846153846154
aa(lp106
F0.0
aF0.01923076923076923
aF0.03846153846153846
aa(lp107
F0.01923076923076923
aF0.03846153846153846
aF0.6346153846153846
aa(lp108
F0.0
aF0.8461538461538461
aF0.8653846153846154
aa(lp109
F0.8461538461538461
aF0.8653846153846154
aF1.134615384615385
aa(lp110
F0.0
aF0.5961538461538461
aF0.6923076923076923
aa(lp111
F0.5961538461538461
aF0.6923076923076923
aF2.403846153846154
aa(lp112
F0.0
aF0.0576923076923077
aF0.2115384615384615
aa(lp113
F0.0
aF1.576923076923077
aF2.538461538461538
aa(lp114
F1.576923076923077
aF2.538461538461538
aF2.673076923076923
aa(lp115
F2.538461538461538
aF2.673076923076923
aF3.596153846153846
aa(lp116
F0.0
aF0.09615384615384616
aF0.1730769230769231
aa(lp117
F0.0
aF0.1153846153846154
aF0.5384615384615384
aa(lp118
F0.0
aF0.1538461538461539
aF0.7692307692307693
aa(lp119
F0.1538461538461539
aF0.7692307692307693
aF0.8846153846153846
aa(lp120
F0.7692307692307693
aF0.8846153846153846
aF1.153846153846154
aa(lp121
F0.8846153846153846
aF1.153846153846154
aF1.480769230769231
aa(lp122
F0.0
aF0.1346153846153846
aF0.4423076923076923
aa(lp123
F0.0
aF0.1730769230769231
aF0.4230769230769231
aa(lp124
F0.0
aF1.596153846153846
aF2.788461538461538
aa(lp125
F1.596153846153846
aF2.788461538461538
aF3.096153846153846
aa(lp126
F0.0
aF0.0576923076923077
aF0.8846153846153846
aa(lp127
F0.0
aF0.4615384615384616
aF0.8461538461538461
aa(lp128
F0.0
aF0.6346153846153846
aF1.076923076923077
aa(lp129
F0.0
aF0.1346153846153846
aF0.1538461538461539
aa(lp130
F0.0
aF0.4230769230769231
aF2.192307692307693
aa(lp131
F0.4230769230769231
aF2.192307692307693
aF2.211538461538462
aa(lp132
F0.0
aF0.2884615384615384
aF0.3653846153846154
aa(lp133
F0.2884615384615384
aF0.3653846153846154
aF0.4038461538461539
aa(lp134
F0.3653846153846154
aF0.4038461538461539
aF0.4807692307692308
aa(lp135
F0.0
aF1.519230769230769
aF2.615384615384615
aa.