(lp0
(lp1
I3
aI3
aI3
aa(lp2
I3
aI3
aI4
aa(lp3
I2
aI2
aI6
aa(lp4
I1
aI1
aI2
aa(lp5
I1
aI2
aI2
aa(lp6
I2
aI2
aI1
aa(lp7
I2
aI2
aI2
aa(lp8
I2
aI2
aI2
aa(lp9
I2
aI2
aI2
aa(lp10
I12
aI12
aI12
aa(lp11
I12
aI12
aI12
aa(lp12
I14
aI2
aI2
aa(lp13
I15
aI15
aI15
aa(lp14
I15
aI15
aI15
aa(lp15
I17
aI8
aI8
aa(lp16
I8
aI8
aI8
aa(lp17
I1
aI1
aI1
aa(lp18
I18
aI18
aI18
aa(lp19
I1
aI19
aI1
aa(lp20
I8
aI8
aI20
aa(lp21
I21
aI11
aI22
aa(lp22
I11
aI22
aI14
aa(lp23
I22
aI14
aI21
aa(lp24
I14
aI21
aI12
aa(lp25
I21
aI12
aI21
aa(lp26
I12
aI21
aI16
aa(lp27
I21
aI16
aI12
aa(lp28
I16
aI12
aI23
aa(lp29
I12
aI23
aI11
aa(lp30
I23
aI11
aI24
aa(lp31
I11
aI24
aI11
aa(lp32
I24
aI11
aI12
aa(lp33
I11
aI12
aI21
aa(lp34
I12
aI21
aI12
aa(lp35
I21
aI12
aI12
aa(lp36
I12
aI12
aI11
aa(lp37
I3
aI3
aI3
aa(lp38
I26
aI2
aI2
aa(lp39
I1
aI1
aI1
aa(lp40
I1
aI2
aI1
aa(lp41
I1
aI11
aI1
aa(lp42
I2
aI2
aI2
aa(lp43
I28
aI11
aI11
aa(lp44
I11
aI11
aI11
aa(lp45
I14
aI14
aI14
aa(lp46
I7
aI7
aI8
aa(lp47
I7
aI8
aI7
aa(lp48
I1
aI1
aI1
aa(lp49
I1
aI1
aI1
aa(lp50
I1
aI1
aI2
aa(lp51
I1
aI2
aI2
aa(lp52
I2
aI2
aI1
aa(lp53
I2
aI1
aI2
aa(lp54
I1
aI2
aI2
aa(lp55
I2
aI2
aI2
aa(lp56
I2
aI2
aI2
aa(lp57
I2
aI2
aI2
aa(lp58
I2
aI2
aI1
aa(lp59
I2
aI1
aI1
aa(lp60
I1
aI1
aI1
aa(lp61
I1
aI1
aI1
aa(lp62
I1
aI1
aI2
aa(lp63
I1
aI2
aI1
aa(lp64
I2
aI1
aI1
aa(lp65
I1
aI1
aI1
aa(lp66
I30
aI17
aI17
aa(lp67
I14
aI2
aI2
aa(lp68
I2
aI2
aI2
aa(lp69
I15
aI2
aI1
aa(lp70
I2
aI1
aI1
aa(lp71
I9
aI9
aI9
aa(lp72
I26
aI8
aI8
aa(lp73
I1
aI2
aI1
aa(lp74
I1
aI1
aI1
aa(lp75
I1
aI1
aI1
aa(lp76
I1
aI1
aI1
aa(lp77
I1
aI1
aI1
aa(lp78
I1
aI1
aI1
aa(lp79
I1
aI1
aI1
aa(lp80
I1
aI1
aI1
aa(lp81
I1
aI1
aI1
aa(lp82
I1
aI1
aI1
aa(lp83
I1
aI1
aI1
aa(lp84
I1
aI1
aI1
aa(lp85
I1
aI1
aI1
aa(lp86
I1
aI1
aI1
aa(lp87
I1
aI1
aI1
aa(lp88
I1
aI1
aI1
aa(lp89
I1
aI1
aI1
aa(lp90
I15
aI15
aI2
aa(lp91
I11
aI2
aI2
aa(lp92
I20
aI2
aI2
aa(lp93
I1
aI1
aI1
aa(lp94
I1
aI1
aI1
aa(lp95
I1
aI1
aI1
aa(lp96
I1
aI1
aI1
aa(lp97
I1
aI1
aI1
aa(lp98
I2
aI2
aI2
aa(lp99
I2
aI2
aI2
aa(lp100
I2
aI2
aI2
aa(lp101
I2
aI2
aI2
aa(lp102
I9
aI9
aI9
aa(lp103
I9
aI9
aI9
aa(lp104
I1
aI1
aI1
aa(lp105
I1
aI1
aI1
aa(lp106
I1
aI1
aI1
aa(lp107
I1
aI1
aI1
aa(lp108
I1
aI1
aI1
aa(lp109
I1
aI1
aI1
aa(lp110
I1
aI1
aI1
aa(lp111
I1
aI1
aI1
aa(lp112
I1
aI1
aI1
aa(lp113
I1
aI1
aI1
aa(lp114
I1
aI1
aI1
aa(lp115
I1
aI1
aI1
aa(lp116
I1
aI1
aI1
aa(lp117
I1
aI1
aI1
aa(lp118
I1
aI1
aI1
aa(lp119
I1
aI1
aI1
aa(lp120
I1
aI1
aI1
aa(lp121
I1
aI1
aI1
aa(lp122
I1
aI1
aI1
aa(lp123
I1
aI1
aI1
aa(lp124
I1
aI1
aI1
aa(lp125
I1
aI1
aI1
aa(lp126
I1
aI1
aI1
aa(lp127
I1
aI1
aI1
aa(lp128
I1
aI1
aI1
aa(lp129
I1
aI1
aI1
aa(lp130
I1
aI1
aI1
aa(lp131
I1
aI1
aI1
aa(lp132
I1
aI1
aI1
aa(lp133
I1
aI1
aI1
aa(lp134
I1
aI1
aI1
aa(lp135
I9
aI9
aI9
aa(lp136
I9
aI9
aI9
aa(lp137
I9
aI9
aI9
aa(lp138
I12
aI1
aI1
aa(lp139
I8
aI7
aI7
aa(lp140
I7
aI7
aI14
aa(lp141
I1
aI1
aI1
aa(lp142
I2
aI2
aI2
aa(lp143
I1
aI1
aI1
aa(lp144
I2
aI1
aI1
aa(lp145
I1
aI1
aI1
aa(lp146
I1
aI1
aI1
aa(lp147
I12
aI12
aI12
aa(lp148
I12
aI12
aI12
aa(lp149
I12
aI12
aI12
aa(lp150
I9
aI2
aI2
aa(lp151
I2
aI2
aI2
aa(lp152
I2
aI2
aI2
aa(lp153
I9
aI9
aI9
aa(lp154
I2
aI1
aI1
aa(lp155
I19
aI2
aI19
aa(lp156
I2
aI19
aI2
aa(lp157
I9
aI2
aI2
aa(lp158
I33
aI35
aI35
aa(lp159
I2
aI2
aI2
aa(lp160
I2
aI2
aI11
aa(lp161
I12
aI12
aI12
aa(lp162
I1
aI1
aI1
aa(lp163
I14
aI2
aI2
aa(lp164
I2
aI2
aI2
aa(lp165
I2
aI2
aI2
aa(lp166
I1
aI1
aI1
aa(lp167
I1
aI1
aI1
aa(lp168
I1
aI1
aI1
aa(lp169
I1
aI1
aI1
aa(lp170
I1
aI1
aI1
aa(lp171
I1
aI1
aI1
aa(lp172
I1
aI1
aI1
aa(lp173
I1
aI1
aI1
aa(lp174
I1
aI1
aI1
aa(lp175
I1
aI1
aI1
aa(lp176
I1
aI2
aI1
aa(lp177
I2
aI1
aI1
aa(lp178
I1
aI1
aI1
aa(lp179
I1
aI1
aI15
aa(lp180
I1
aI15
aI1
aa(lp181
I1
aI1
aI1
aa(lp182
I1
aI1
aI1
aa(lp183
I1
aI1
aI1
aa(lp184
I2
aI1
aI1
aa(lp185
I1
aI1
aI1
aa(lp186
I2
aI9
aI2
aa(lp187
I8
aI8
aI8
aa(lp188
I8
aI8
aI8
aa(lp189
I1
aI1
aI1
aa(lp190
I1
aI1
aI1
aa(lp191
I1
aI1
aI1
aa(lp192
I2
aI2
aI2
aa(lp193
I2
aI2
aI2
aa(lp194
I2
aI2
aI2
aa(lp195
I2
aI2
aI2
aa(lp196
I2
aI2
aI2
aa(lp197
I33
aI23
aI14
aa(lp198
I23
aI14
aI33
aa(lp199
I2
aI2
aI2
aa(lp200
I1
aI1
aI1
aa(lp201
I2
aI2
aI2
aa(lp202
I2
aI2
aI2
aa(lp203
I1
aI1
aI1
aa(lp204
I1
aI1
aI1
aa(lp205
I1
aI1
aI1
aa(lp206
I16
aI2
aI2
aa(lp207
I2
aI2
aI9
aa(lp208
I15
aI2
aI1
aa(lp209
I2
aI1
aI1
aa(lp210
I1
aI1
aI1
aa(lp211
I1
aI1
aI1
aa(lp212
I1
aI1
aI1
aa(lp213
I1
aI1
aI1
aa(lp214
I1
aI1
aI1
aa(lp215
I1
aI1
aI1
aa(lp216
I1
aI1
aI1
aa(lp217
I2
aI9
aI2
aa(lp218
I9
aI2
aI9
aa(lp219
I2
aI9
aI9
aa(lp220
I2
aI2
aI2
aa(lp221
I2
aI2
aI2
aa(lp222
I2
aI2
aI2
aa(lp223
I2
aI2
aI2
aa(lp224
I41
aI42
aI28
aa(lp225
I42
aI28
aI28
aa(lp226
I2
aI2
aI2
aa(lp227
I2
aI2
aI2
aa(lp228
I12
aI2
aI2
aa(lp229
I2
aI2
aI2
aa(lp230
I2
aI2
aI2
aa(lp231
I45
aI7
aI7
aa(lp232
I7
aI7
aI7
aa(lp233
I1
aI1
aI1
aa(lp234
I1
aI1
aI1
aa(lp235
I1
aI1
aI1
aa(lp236
I1
aI1
aI1
aa(lp237
I1
aI1
aI1
aa(lp238
I1
aI1
aI1
aa(lp239
I12
aI2
aI2
aa(lp240
I9
aI1
aI1
aa(lp241
I1
aI1
aI1
aa(lp242
I9
aI12
aI9
aa(lp243
I12
aI9
aI12
aa(lp244
I9
aI9
aI9
aa(lp245
I12
aI2
aI2
aa(lp246
I2
aI2
aI2
aa(lp247
I2
aI2
aI14
aa(lp248
I2
aI14
aI2
aa(lp249
I49
aI50
aI50
aa(lp250
I2
aI2
aI2
aa(lp251
I2
aI2
aI2
aa(lp252
I2
aI2
aI2
aa(lp253
I16
aI11
aI16
aa(lp254
I14
aI11
aI11
aa(lp255
I1
aI1
aI1
aa(lp256
I1
aI1
aI1
aa(lp257
I1
aI1
aI1
aa(lp258
I1
aI1
aI1
aa(lp259
I1
aI1
aI1
aa(lp260
I1
aI1
aI1
aa(lp261
I1
aI1
aI1
aa(lp262
I1
aI1
aI1
aa(lp263
I1
aI1
aI1
aa(lp264
I1
aI1
aI1
aa(lp265
I1
aI1
aI1
aa(lp266
I1
aI1
aI1
aa(lp267
I1
aI1
aI1
aa(lp268
I1
aI1
aI1
aa(lp269
I1
aI1
aI1
aa(lp270
I1
aI1
aI1
aa(lp271
I1
aI1
aI1
aa(lp272
I1
aI1
aI1
aa(lp273
I1
aI1
aI1
aa(lp274
I1
aI1
aI1
aa(lp275
I1
aI1
aI1
aa(lp276
I1
aI1
aI1
aa(lp277
I2
aI1
aI2
aa(lp278
I1
aI2
aI1
aa(lp279
I2
aI1
aI2
aa(lp280
I1
aI2
aI2
aa(lp281
I2
aI2
aI1
aa(lp282
I2
aI1
aI2
aa(lp283
I1
aI1
aI1
aa(lp284
I12
aI12
aI12
aa(lp285
I12
aI11
aI12
aa(lp286
I1
aI1
aI1
aa(lp287
I1
aI1
aI1
aa(lp288
I12
aI12
aI12
aa(lp289
I1
aI1
aI1
aa(lp290
I1
aI1
aI1
aa(lp291
I1
aI1
aI1
aa(lp292
I1
aI1
aI1
aa(lp293
I1
aI1
aI1
aa(lp294
I1
aI1
aI1
aa(lp295
I1
aI1
aI1
aa(lp296
I1
aI1
aI1
aa(lp297
I1
aI1
aI1
aa(lp298
I14
aI2
aI2
aa(lp299
I9
aI1
aI2
aa(lp300
I1
aI2
aI1
aa(lp301
I1
aI1
aI1
aa(lp302
I2
aI12
aI2
aa(lp303
I12
aI2
aI2
aa(lp304
I1
aI1
aI1
aa(lp305
I11
aI11
aI11
aa(lp306
I8
aI1
aI1
aa(lp307
I11
aI1
aI1
aa(lp308
I1
aI1
aI1
aa(lp309
I31
aI2
aI2
aa(lp310
I2
aI2
aI2
aa(lp311
I2
aI2
aI2
aa(lp312
I2
aI2
aI2
aa(lp313
I12
aI12
aI12
aa(lp314
I12
aI12
aI12
aa(lp315
I12
aI12
aI12
aa(lp316
I12
aI12
aI12
aa(lp317
I12
aI12
aI12
aa(lp318
I12
aI12
aI12
aa(lp319
I12
aI12
aI12
aa(lp320
I12
aI12
aI12
aa(lp321
I12
aI12
aI12
aa(lp322
I12
aI12
aI12
aa(lp323
I12
aI12
aI12
aa(lp324
I12
aI12
aI12
aa(lp325
I12
aI12
aI12
aa(lp326
I12
aI12
aI12
aa(lp327
I1
aI1
aI1
aa(lp328
I1
aI1
aI1
aa(lp329
I11
aI11
aI2
aa(lp330
I11
aI2
aI2
aa(lp331
I2
aI2
aI9
aa(lp332
I1
aI1
aI1
aa(lp333
I1
aI1
aI1
aa(lp334
I1
aI1
aI1
aa(lp335
I1
aI1
aI1
aa(lp336
I1
aI1
aI1
aa(lp337
I1
aI1
aI1
aa(lp338
I1
aI1
aI1
aa(lp339
I1
aI1
aI1
aa(lp340
I15
aI15
aI15
aa(lp341
I2
aI2
aI2
aa(lp342
I2
aI2
aI2
aa(lp343
I1
aI1
aI2
aa(lp344
I1
aI2
aI2
aa(lp345
I2
aI2
aI9
aa(lp346
I9
aI2
aI2
aa(lp347
I1
aI1
aI1
aa(lp348
I1
aI1
aI1
aa(lp349
I1
aI1
aI1
aa(lp350
I1
aI1
aI1
aa(lp351
I8
aI9
aI9
aa(lp352
I9
aI9
aI9
aa(lp353
I1
aI1
aI1
aa(lp354
I14
aI56
aI26
aa(lp355
I56
aI26
aI14
aa(lp356
I26
aI14
aI14
aa(lp357
I1
aI1
aI1
aa(lp358
I2
aI1
aI1
aa(lp359
I3
aI53
aI3
aa(lp360
I53
aI3
aI3
aa(lp361
I1
aI1
aI1
aa(lp362
I1
aI1
aI1
aa(lp363
I1
aI1
aI1
aa(lp364
I16
aI16
aI47
aa(lp365
I16
aI47
aI59
aa(lp366
I1
aI1
aI1
aa(lp367
I61
aI14
aI56
aa(lp368
I14
aI56
aI14
aa(lp369
I56
aI14
aI61
aa(lp370
I14
aI61
aI14
aa(lp371
I2
aI2
aI2
aa(lp372
I1
aI1
aI1
aa(lp373
I12
aI12
aI12
aa(lp374
I2
aI2
aI2
aa(lp375
I1
aI1
aI1
aa(lp376
I1
aI1
aI1
aa(lp377
I1
aI1
aI1
aa(lp378
I1
aI1
aI1
aa(lp379
I2
aI2
aI2
aa(lp380
I59
aI12
aI12
aa(lp381
I12
aI12
aI12
aa(lp382
I12
aI12
aI12
aa(lp383
I12
aI12
aI12
aa(lp384
I12
aI12
aI12
aa(lp385
I12
aI12
aI12
aa(lp386
I12
aI12
aI12
aa(lp387
I12
aI12
aI28
aa(lp388
I1
aI1
aI1
aa(lp389
I1
aI1
aI1
aa(lp390
I9
aI9
aI9
aa(lp391
I9
aI9
aI9
aa(lp392
I18
aI14
aI14
aa(lp393
I14
aI14
aI21
aa(lp394
I11
aI11
aI9
aa(lp395
I1
aI2
aI1
aa(lp396
I2
aI1
aI1
aa(lp397
I1
aI1
aI1
aa(lp398
I1
aI1
aI1
aa(lp399
I12
aI63
aI12
aa(lp400
I11
aI11
aI11
aa(lp401
I11
aI11
aI65
aa(lp402
I11
aI65
aI65
aa(lp403
I65
aI65
aI11
aa(lp404
I2
aI2
aI2
aa(lp405
I2
aI2
aI2
aa(lp406
I1
aI1
aI1
aa(lp407
I1
aI1
aI1
aa(lp408
I23
aI2
aI2
aa(lp409
I1
aI1
aI1
aa(lp410
I1
aI1
aI1
aa(lp411
I1
aI1
aI1
aa(lp412
I1
aI1
aI1
aa(lp413
I1
aI1
aI1
aa(lp414
I1
aI1
aI1
aa(lp415
I56
aI21
aI21
aa(lp416
I21
aI21
aI21
aa(lp417
I34
aI16
aI16
aa(lp418
I1
aI1
aI1
aa(lp419
I1
aI1
aI1
aa(lp420
I2
aI2
aI2
aa(lp421
I20
aI20
aI2
aa(lp422
I20
aI2
aI2
aa(lp423
I2
aI2
aI20
aa(lp424
I2
aI20
aI20
aa(lp425
I20
aI20
aI2
aa(lp426
I20
aI2
aI2
aa(lp427
I2
aI2
aI2
aa(lp428
I2
aI2
aI20
aa(lp429
I9
aI2
aI2
aa(lp430
I1
aI1
aI1
aa(lp431
I1
aI1
aI12
aa(lp432
I9
aI9
aI9
aa(lp433
I9
aI9
aI9
aa(lp434
I9
aI9
aI9
aa(lp435
I12
aI12
aI16
aa(lp436
I8
aI15
aI8
aa(lp437
I15
aI8
aI8
aa(lp438
I20
aI2
aI2
aa(lp439
I2
aI2
aI2
aa(lp440
I2
aI2
aI2
aa.