(lp0
F15.0
aF15.0
aF1.0
aF1.0
aF1.0
aF1.0
aF1.0
aF1.0
aF1.0
aF1.0
aF1.0
aF26.0
aF2.0
aF14.0
aF2.0
aF2.0
aF2.0
aF1.0
aF8.0
aF68.0
aF1.0
aF1.0
aF1.0
aF4.0
aF15.0
aF2.0
aF2.0
aF2.0
aF1.0
aF1.0
aF1.0
aF1.0
aF1.0
aF2.0
aF1.0
aF1.0
aF1.0
aF1.0
aF1.0
aF1.0
aF1.0
aF1.0
aF1.0
aF12.0
aF1.0
aF1.0
aF2.0
aF9.0
aF2.0
aF26.0
aF14.0
aF26.0
aF26.0
aF14.0
aF1.0
aF1.0
aF1.0
aF1.0
aF72.0
aF1.0
aF33.0
aF42.0
aF2.0
aF1.0
aF1.0
aF1.0
aF1.0
aF1.0
aF1.0
aF1.0
aF1.0
aF1.0
aF11.0
aF1.0
aF12.0
aF9.0
aF1.0
aF1.0
aF1.0
aF1.0
aF1.0
aF11.0
aF12.0
aF12.0
aF7.0
aF38.0
aF16.0
aF1.0
aF12.0
aF12.0
aF20.0
aF1.0
aF2.0
aF2.0
aF2.0
aF2.0
aF2.0
aF2.0
aF2.0
aF1.0
aF7.0
aF1.0
aF1.0
aF1.0
aF1.0
aF19.0
aF46.0
aF15.0
aF15.0
aF1.0
aF1.0
aF26.0
aF2.0
aF1.0
aF1.0
aF9.0
aF1.0
aF1.0
aF1.0
aF1.0
aF1.0
aF1.0
aF9.0
aF2.0
aF2.0
aF2.0
aF1.0
aF2.0
aF2.0
aF3.0
aF3.0
aF1.0
aF1.0
aF1.0
aF9.0
a.