(lp0
(lp1
F0.0
aF1.326923076923077
aF2.576923076923077
aa(lp2
F0.0
aF1.25
aF1.73076923076923
aa(lp3
F0.0
aF1.519230769230769
aF1.711538461538461
aa(lp4
F0.0
aF1.365384615384615
aF2.461538461538462
aa(lp5
F0.0
aF0.9807692307692307
aF1.019230769230769
aa(lp6
F0.0
aF0.038461538461538214
aF2.903846153846154
aa(lp7
F0.0
aF0.0576923076923077
aF0.1538461538461539
aa(lp8
F0.0
aF0.0961538461538462
aF0.11538461538461539
aa(lp9
F0.0
aF0.01923076923076919
aF0.11538461538461531
aa(lp10
F0.0
aF2.519230769230769
aF4.211538461538462
aa(lp11
F0.0
aF0.0576923076923077
aF0.6730769230769231
aa(lp12
F0.0
aF2.192307692307693
aF2.923076923076923
aa(lp13
F0.0
aF0.4423076923076923
aF2.211538461538462
aa(lp14
F0.0
aF1.7692307692307698
aF1.9807692307692306
aa(lp15
F0.0
aF0.0576923076923077
aF0.7692307692307693
aa(lp16
F0.0
aF0.7115384615384616
aF1.0576923076923073
aa(lp17
F0.0
aF0.5384615384615384
aF2.673076923076923
aa(lp18
F0.0
aF0.07692307692307693
aF3.038461538461538
aa(lp19
F0.0
aF0.3846153846153846
aF1.269230769230769
aa(lp20
F0.0
aF1.269230769230769
aF1.365384615384615
aa(lp21
F0.0
aF0.1153846153846154
aF0.2307692307692308
aa(lp22
F0.0
aF0.1153846153846154
aF0.25
aa(lp23
F0.0
aF0.1346153846153846
aF0.6538461538461537
aa(lp24
F0.0
aF0.5192307692307692
aF0.6346153846153846
aa(lp25
F0.0
aF0.11538461538461542
aF0.5192307692307694
aa(lp26
F0.0
aF0.40384615384615397
aF1.3461538461538458
aa(lp27
F0.0
aF0.9423076923076918
aF1.153846153846153
aa(lp28
F0.0
aF0.21153846153846123
aF0.3653846153846163
aa(lp29
F0.0
aF0.15384615384615508
aF0.21153846153846212
aa(lp30
F0.0
aF0.05769230769230704
aF0.1730769230769229
aa(lp31
F0.0
aF0.11538461538461586
aF0.40384615384615374
aa(lp32
F0.0
aF0.2884615384615379
aF0.5384615384615379
aa(lp33
F0.0
aF0.25
aF0.9615384615384621
aa(lp34
F0.0
aF0.7115384615384621
aF0.7692307692307705
aa(lp35
F0.0
aF0.057692307692308376
aF0.32692307692307665
aa(lp36
F0.0
aF0.2692307692307683
aF0.4423076923076916
aa(lp37
F0.0
aF0.0576923076923077
aF0.1730769230769231
aa(lp38
F0.0
aF0.07692307692307693
aF0.2115384615384615
aa(lp39
F0.0
aF1.153846153846154
aF1.192307692307692
aa(lp40
F0.0
aF0.75
aF1.076923076923077
aa(lp41
F0.0
aF0.2115384615384615
aF0.4615384615384616
aa(lp42
F0.0
aF0.5384615384615384
aF0.75
aa(lp43
F0.0
aF0.03846153846153846
aF0.4230769230769231
aa(lp44
F0.0
aF0.38461538461538464
aF1.3653846153846154
aa(lp45
F0.0
aF0.1730769230769231
aF0.3461538461538461
aa(lp46
F0.0
aF0.5
aF2.211538461538462
aa(lp47
F0.0
aF1.7115384615384621
aF2.461538461538462
aa(lp48
F0.0
aF0.09615384615384616
aF1.423076923076923
aa(lp49
F0.0
aF0.07692307692307693
aF0.7115384615384616
aa(lp50
F0.0
aF0.6346153846153846
aF1.3653846153846152
aa(lp51
F0.0
aF0.7307692307692305
aF1.0384615384615383
aa(lp52
F0.0
aF0.30769230769230793
aF0.5192307692307689
aa(lp53
F0.0
aF0.211538461538461
aF0.5
aa(lp54
F0.0
aF0.288461538461539
aF0.538461538461539
aa(lp55
F0.0
aF0.25
aF0.5
aa(lp56
F0.0
aF0.25
aF0.3461538461538458
aa(lp57
F0.0
aF0.09615384615384581
aF0.26923076923076916
aa(lp58
F0.0
aF0.17307692307692335
aF0.26923076923076916
aa(lp59
F0.0
aF0.09615384615384581
aF0.1730769230769238
aa(lp60
F0.0
aF0.07692307692307798
aF0.326923076923078
aa(lp61
F0.0
aF0.25
aF0.40384615384615286
aa(lp62
F0.0
aF0.15384615384615286
aF0.26923076923076916
aa(lp63
F0.0
aF0.11538461538461631
aF0.4038461538461542
aa(lp64
F0.0
aF0.2884615384615379
aF0.3461538461538445
aa(lp65
F0.0
aF0.0576923076923066
aF0.75
aa(lp66
F0.0
aF0.09615384615384616
aF0.6538461538461539
aa(lp67
F0.0
aF1.865384615384615
aF1.903846153846154
aa(lp68
F0.0
aF0.03846153846153899
aF0.1538461538461542
aa(lp69
F0.0
aF0.0576923076923077
aF2.711538461538462
aa(lp70
F0.0
aF2.6538461538461546
aF2.7692307692307696
aa(lp71
F0.0
aF0.5192307692307693
aF0.8653846153846154
aa(lp72
F0.0
aF0.9230769230769231
aF0.9615384615384616
aa(lp73
F0.0
aF1.288461538461539
aF1.730769230769231
aa(lp74
F0.0
aF0.07692307692307693
aF0.1538461538461539
aa(lp75
F0.0
aF0.07692307692307698
aF0.11538461538461536
aa(lp76
F0.0
aF0.03846153846153838
aF0.0769230769230769
aa(lp77
F0.0
aF0.03846153846153852
aF0.05769230769230771
aa(lp78
F0.0
aF0.01923076923076919
aF0.40384615384615374
aa(lp79
F0.0
aF0.3846153846153846
aF0.46153846153846156
aa(lp80
F0.0
aF0.07692307692307698
aF0.11538461538461542
aa(lp81
F0.0
aF0.038461538461538436
aF0.21153846153846156
aa(lp82
F0.0
aF0.17307692307692313
aF0.26923076923076894
aa(lp83
F0.0
aF0.09615384615384581
aF0.26923076923076894
aa(lp84
F0.0
aF0.17307692307692313
aF0.3269230769230771
aa(lp85
F0.0
aF0.15384615384615397
aF0.5576923076923079
aa(lp86
F0.0
aF0.40384615384615397
aF0.7499999999999998
aa(lp87
F0.0
aF0.3461538461538458
aF0.557692307692307
aa(lp88
F0.0
aF0.21153846153846123
aF0.34615384615384714
aa(lp89
F0.0
aF0.1346153846153859
aF0.26923076923077005
aa(lp90
F0.0
aF0.1730769230769231
aF0.3653846153846154
aa(lp91
F0.0
aF0.07692307692307693
aF0.7692307692307693
aa(lp92
F0.0
aF3.134615384615385
aF4.230769230769231
aa(lp93
F0.0
aF0.3461538461538461
aF1.25
aa(lp94
F0.0
aF0.903846153846154
aF0.9615384615384619
aa(lp95
F0.0
aF0.05769230769230793
aF0.5
aa(lp96
F0.0
aF0.44230769230769207
aF0.48076923076923106
aa(lp97
F0.0
aF0.03846153846153899
aF0.5769230769230771
aa(lp98
F0.0
aF0.3846153846153846
aF0.6923076923076923
aa(lp99
F0.0
aF0.3653846153846154
aF0.7307692307692307
aa(lp100
F0.0
aF0.3653846153846153
aF0.3846153846153846
aa(lp101
F0.0
aF0.019230769230769273
aF0.7884615384615382
aa(lp102
F0.0
aF0.09615384615384616
aF1.019230769230769
aa(lp103
F0.0
aF0.9230769230769228
aF1.8653846153846148
aa(lp104
F0.0
aF0.0576923076923077
aF0.3269230769230769
aa(lp105
F0.0
aF0.09615384615384616
aF0.1346153846153846
aa(lp106
F0.0
aF0.03846153846153845
aF0.13461538461538464
aa(lp107
F0.0
aF0.0961538461538462
aF0.2307692307692308
aa(lp108
F0.0
aF0.1346153846153846
aF0.21153846153846148
aa(lp109
F0.0
aF0.07692307692307687
aF0.17307692307692302
aa(lp110
F0.0
aF0.09615384615384615
aF0.3076923076923077
aa(lp111
F0.0
aF0.21153846153846156
aF0.25
aa(lp112
F0.0
aF0.038461538461538436
aF0.26923076923076894
aa(lp113
F0.0
aF0.2307692307692305
aF0.32692307692307654
aa(lp114
F0.0
aF0.09615384615384603
aF0.13461538461538503
aa(lp115
F0.0
aF0.03846153846153899
aF0.05769230769230793
aa(lp116
F0.0
aF0.01923076923076894
aF0.5192307692307689
aa(lp117
F0.0
aF0.5
aF0.5192307692307692
aa(lp118
F0.0
aF0.019230769230769162
aF0.057692307692308153
aa(lp119
F0.0
aF0.03846153846153899
aF0.865384615384615
aa(lp120
F0.0
aF0.826923076923076
aF1.038461538461538
aa(lp121
F0.0
aF0.21153846153846212
aF0.576923076923078
aa(lp122
F0.0
aF0.36538461538461586
aF0.8461538461538458
aa(lp123
F0.0
aF0.48076923076922995
aF0.9615384615384608
aa(lp124
F0.0
aF0.48076923076923084
aF0.51923076923077
aa(lp125
F0.0
aF0.03846153846153921
aF0.07692307692307754
aa(lp126
F0.0
aF0.038461538461538325
aF0.09615384615384581
aa(lp127
F0.0
aF0.05769230769230749
aF0.09615384615384581
aa(lp128
F0.0
aF0.038461538461538325
aF0.11538461538461497
aa(lp129
F0.0
aF0.07692307692307665
aF0.11538461538461586
aa(lp130
F0.0
aF0.03846153846153921
aF0.057692307692308376
aa(lp131
F0.0
aF0.019230769230769162
aF0.057692307692308376
aa(lp132
F0.0
aF0.03846153846153921
aF0.09615384615384581
aa(lp133
F0.0
aF0.0576923076923066
aF0.1153846153846132
aa(lp134
F0.0
aF0.0576923076923066
aF0.07692307692307665
aa(lp135
F0.0
aF0.6538461538461539
aF0.75
aa(lp136
F0.0
aF0.09615384615384615
aF0.3076923076923077
aa(lp137
F0.0
aF0.21153846153846156
aF0.384615384615385
aa(lp138
F0.0
aF1.692307692307692
aF3.346153846153846
aa(lp139
F0.0
aF0.09615384615384616
aF0.1923076923076923
aa(lp140
F0.0
aF0.09615384615384613
aF0.6153846153846154
aa(lp141
F0.0
aF3.0
aF3.057692307692307
aa(lp142
F0.0
aF0.1923076923076923
aF0.4230769230769231
aa(lp143
F0.0
aF0.2115384615384615
aF0.5769230769230769
aa(lp144
F0.0
aF0.5769230769230769
aF0.6538461538461539
aa(lp145
F0.0
aF2.326923076923077
aF2.480769230769231
aa(lp146
F0.0
aF0.15384615384615374
aF0.5192307692307687
aa(lp147
F0.0
aF0.1153846153846154
aF2.25
aa(lp148
F0.0
aF2.1346153846153846
aF2.2692307692307696
aa(lp149
F0.0
aF0.01923076923076923
aF0.07692307692307693
aa(lp150
F0.0
aF2.538461538461538
aF2.692307692307693
aa(lp151
F0.0
aF0.15384615384615508
aF0.4615384615384621
aa(lp152
F0.0
aF0.30769230769230704
aF1.2692307692307692
aa(lp153
F0.0
aF0.01923076923076923
aF0.07692307692307693
aa(lp154
F0.0
aF0.1538461538461539
aF3.307692307692307
aa(lp155
F0.0
aF1.211538461538461
aF1.365384615384615
aa(lp156
F0.0
aF0.15384615384615397
aF0.51923076923077
aa(lp157
F0.0
aF0.2884615384615384
aF0.4038461538461539
aa(lp158
F0.0
aF0.7884615384615384
aF1.384615384615385
aa(lp159
F0.0
aF0.2115384615384615
aF1.403846153846154
aa(lp160
F0.0
aF1.1923076923076925
aF1.5192307692307696
aa(lp161
F0.0
aF0.5192307692307693
aF1.134615384615385
aa(lp162
F0.0
aF0.1153846153846154
aF0.25
aa(lp163
F0.0
aF0.25
aF0.5384615384615384
aa(lp164
F0.0
aF0.4423076923076923
aF0.4807692307692308
aa(lp165
F0.0
aF0.03846153846153849
aF0.21153846153846156
aa(lp166
F0.0
aF0.1730769230769231
aF1.057692307692308
aa(lp167
F0.0
aF0.8846153846153848
aF0.9230769230769229
aa(lp168
F0.0
aF0.0384615384615381
aF1.326923076923077
aa(lp169
F0.0
aF1.288461538461539
aF1.4230769230769231
aa(lp170
F0.0
aF0.13461538461538414
aF0.5
aa(lp171
F0.0
aF0.36538461538461586
aF0.8269230769230766
aa(lp172
F0.0
aF0.4615384615384608
aF0.5192307692307692
aa(lp173
F0.0
aF0.057692307692308376
aF0.21153846153846123
aa(lp174
F0.0
aF0.15384615384615286
aF0.28846153846153877
aa(lp175
F0.0
aF0.7692307692307693
aF0.9038461538461539
aa(lp176
F0.0
aF0.03846153846153846
aF2.346153846153846
aa(lp177
F0.0
aF2.3076923076923075
aF2.3269230769230766
aa(lp178
F0.0
aF0.03846153846153846
aF0.1153846153846154
aa(lp179
F0.0
aF0.07692307692307696
aF0.15384615384615383
aa(lp180
F0.0
aF0.07692307692307689
aF0.2115384615384615
aa(lp181
F0.0
aF0.3653846153846154
aF0.8846153846153846
aa(lp182
F0.0
aF0.5192307692307692
aF0.5961538461538461
aa(lp183
F0.0
aF0.07692307692307698
aF0.9423076923076925
aa(lp184
F0.0
aF0.8269230769230769
aF0.9423076923076923
aa(lp185
F0.0
aF0.11538461538461542
aF0.8653846153846152
aa(lp186
F0.0
aF0.9423076923076923
aF1.038461538461539
aa(lp187
F0.0
aF0.0576923076923077
aF0.1730769230769231
aa(lp188
F0.0
aF0.11538461538461539
aF1.4038461538461533
aa(lp189
F0.0
aF0.3653846153846154
aF0.4230769230769231
aa(lp190
F0.0
aF0.057692307692307654
aF0.21153846153846145
aa(lp191
F0.0
aF0.1538461538461538
aF1.153846153846154
aa(lp192
F0.0
aF1.461538461538461
aF1.538461538461539
aa(lp193
F0.0
aF0.07692307692307798
aF0.3461538461538469
aa(lp194
F0.0
aF0.26923076923076894
aF2.48076923076923
aa(lp195
F0.0
aF2.2115384615384612
aF2.4999999999999987
aa(lp196
F0.0
aF0.28846153846153744
aF0.6923076923076925
aa(lp197
F0.0
aF0.7884615384615384
aF1.019230769230769
aa(lp198
F0.0
aF0.2307692307692305
aF2.9999999999999996
aa(lp199
F0.0
aF1.134615384615385
aF3.153846153846154
aa(lp200
F0.0
aF1.134615384615385
aF1.461538461538461
aa(lp201
F0.0
aF1.192307692307692
aF1.346153846153846
aa(lp202
F0.0
aF0.15384615384615397
aF0.26923076923076894
aa(lp203
F0.0
aF0.09615384615384616
aF0.4038461538461539
aa(lp204
F0.0
aF0.5
aF1.788461538461539
aa(lp205
F0.0
aF1.288461538461539
aF1.384615384615385
aa(lp206
F0.0
aF1.865384615384615
aF3.346153846153846
aa(lp207
F0.0
aF0.6730769230769231
aF0.9807692307692307
aa(lp208
F0.0
aF0.1923076923076923
aF0.5384615384615384
aa(lp209
F0.0
aF0.34615384615384615
aF0.5192307692307693
aa(lp210
F0.0
aF0.17307692307692313
aF0.3653846153846154
aa(lp211
F0.0
aF0.1923076923076923
aF0.6153846153846155
aa(lp212
F0.0
aF0.42307692307692324
aF0.5000000000000001
aa(lp213
F0.0
aF0.07692307692307687
aF0.25
aa(lp214
F0.0
aF1.134615384615385
aF1.307692307692308
aa(lp215
F0.0
aF0.1730769230769229
aF0.40384615384615397
aa(lp216
F0.0
aF0.23076923076923106
aF0.25
aa(lp217
F0.0
aF0.1730769230769231
aF0.2884615384615384
aa(lp218
F0.0
aF0.11538461538461528
aF0.8076923076923076
aa(lp219
F0.0
aF0.6923076923076923
aF1.0769230769230766
aa(lp220
F0.0
aF0.1730769230769231
aF1.557692307692308
aa(lp221
F0.0
aF1.3846153846153848
aF1.5961538461538458
aa(lp222
F0.0
aF0.211538461538461
aF1.634615384615385
aa(lp223
F0.0
aF1.423076923076924
aF2.115384615384616
aa(lp224
F0.0
aF0.4038461538461539
aF0.5192307692307693
aa(lp225
F0.0
aF0.11538461538461536
aF0.2692307692307692
aa(lp226
F0.0
aF0.0576923076923077
aF0.5192307692307693
aa(lp227
F0.0
aF0.46153846153846156
aF0.5769230769230769
aa(lp228
F0.0
aF1.076923076923077
aF1.134615384615385
aa(lp229
F0.0
aF0.05769230769230793
aF0.26923076923076894
aa(lp230
F0.0
aF0.211538461538461
aF0.25
aa(lp231
F0.0
aF3.788461538461538
aF3.807692307692307
aa(lp232
F0.0
aF0.019230769230769162
aF0.21153846153846212
aa(lp233
F0.0
aF0.03846153846153846
aF0.5576923076923077
aa(lp234
F0.0
aF0.5192307692307693
aF0.7307692307692308
aa(lp235
F0.0
aF0.1153846153846154
aF0.1730769230769231
aa(lp236
F0.0
aF0.057692307692307696
aF0.07692307692307689
aa(lp237
F0.0
aF0.1346153846153846
aF0.5384615384615384
aa(lp238
F0.0
aF0.4615384615384616
aF1.769230769230769
aa(lp239
F0.0
aF0.8269230769230769
aF0.9423076923076923
aa(lp240
F0.0
aF2.0
aF4.057692307692307
aa(lp241
F0.0
aF2.0576923076923066
aF2.25
aa(lp242
F0.0
aF0.3076923076923077
aF1.115384615384615
aa(lp243
F0.0
aF0.8076923076923073
aF2.115384615384615
aa(lp244
F0.0
aF0.03846153846153846
aF3.692307692307693
aa(lp245
F0.0
aF0.1153846153846154
aF0.25
aa(lp246
F0.0
aF0.13461538461538458
aF0.7307692307692307
aa(lp247
F0.0
aF1.384615384615385
aF1.557692307692308
aa(lp248
F0.0
aF0.1730769230769229
aF3.1923076923076916
aa(lp249
F0.0
aF0.2884615384615384
aF1.365384615384615
aa(lp250
F0.0
aF1.634615384615385
aF1.730769230769231
aa(lp251
F0.0
aF0.09615384615384603
aF0.25
aa(lp252
F0.0
aF0.15384615384615397
aF0.3846153846153839
aa(lp253
F0.0
aF0.07692307692307693
aF0.4807692307692308
aa(lp254
F0.0
aF0.01923076923076923
aF3.942307692307693
aa(lp255
F0.0
aF0.8076923076923077
aF0.8653846153846154
aa(lp256
F0.0
aF0.1730769230769231
aF1.576923076923077
aa(lp257
F0.0
aF1.403846153846154
aF1.769230769230769
aa(lp258
F0.0
aF0.365384615384615
aF0.3846153846153839
aa(lp259
F0.0
aF0.01923076923076894
aF0.23076923076923084
aa(lp260
F0.0
aF0.2115384615384619
aF0.2500000000000011
aa(lp261
F0.0
aF0.03846153846153921
aF0.23076923076923128
aa(lp262
F0.0
aF0.19230769230769207
aF0.3461538461538449
aa(lp263
F0.0
aF0.15384615384615286
aF0.28846153846153877
aa(lp264
F0.0
aF0.1346153846153859
aF0.25
aa(lp265
F0.0
aF0.11538461538461409
aF0.3653846153846141
aa(lp266
F0.0
aF0.25
aF0.34615384615384714
aa(lp267
F0.0
aF0.09615384615384714
aF0.30769230769230793
aa(lp268
F0.0
aF0.2115384615384608
aF0.30769230769230793
aa(lp269
F0.0
aF0.09615384615384714
aF0.19230769230769207
aa(lp270
F0.0
aF0.09615384615384492
aF0.11538461538461497
aa(lp271
F0.0
aF0.01923076923077005
aF0.09615384615384714
aa(lp272
F0.0
aF0.0769230769230771
aF0.1730769230769229
aa(lp273
F0.0
aF0.09615384615384581
aF0.1346153846153837
aa(lp274
F0.0
aF0.03846153846153788
aF0.0769230769230771
aa(lp275
F0.0
aF0.03846153846153921
aF0.11538461538461631
aa(lp276
F0.0
aF0.0769230769230771
aF0.1730769230769229
aa(lp277
F0.0
aF0.7307692307692307
aF1.634615384615385
aa(lp278
F0.0
aF0.9038461538461543
aF1.076923076923077
aa(lp279
F0.0
aF0.1730769230769229
aF0.30769230769230704
aa(lp280
F0.0
aF0.13461538461538414
aF0.2499999999999991
aa(lp281
F0.0
aF0.11538461538461497
aF0.19230769230769296
aa(lp282
F0.0
aF0.07692307692307798
aF1.134615384615386
aa(lp283
F0.0
aF0.4038461538461539
aF1.057692307692308
aa(lp284
F0.0
aF0.03846153846153846
aF0.09615384615384616
aa(lp285
F0.0
aF0.8076923076923077
aF0.9615384615384616
aa(lp286
F0.0
aF0.2115384615384615
aF1.403846153846154
aa(lp287
F0.0
aF1.1923076923076925
aF1.3461538461538465
aa(lp288
F0.0
aF3.884615384615385
aF4.307692307692307
aa(lp289
F0.0
aF0.03846153846153846
aF0.07692307692307693
aa(lp290
F0.0
aF0.03846153846153847
aF0.9038461538461539
aa(lp291
F0.0
aF0.8653846153846154
aF0.9807692307692311
aa(lp292
F0.0
aF0.11538461538461564
aF0.28846153846153877
aa(lp293
F0.0
aF0.17307692307692313
aF0.34615384615384603
aa(lp294
F0.0
aF0.1730769230769229
aF0.32692307692307687
aa(lp295
F0.0
aF0.15384615384615397
aF0.5
aa(lp296
F0.0
aF0.34615384615384603
aF0.38461538461538414
aa(lp297
F0.0
aF0.0384615384615381
aF2.6538461538461524
aa(lp298
F0.0
aF0.2692307692307692
aF1.711538461538461
aa(lp299
F0.0
aF0.1730769230769231
aF1.461538461538461
aa(lp300
F0.0
aF1.2884615384615379
aF3.307692307692308
aa(lp301
F0.0
aF0.8846153846153846
aF1.057692307692308
aa(lp302
F0.0
aF1.115384615384615
aF1.153846153846154
aa(lp303
F0.0
aF0.03846153846153899
aF0.09615384615384603
aa(lp304
F0.0
aF0.03846153846153846
aF0.07692307692307693
aa(lp305
F0.0
aF0.1153846153846154
aF0.4807692307692308
aa(lp306
F0.0
aF0.2307692307692308
aF1.673076923076923
aa(lp307
F0.0
aF0.1153846153846154
aF0.25
aa(lp308
F0.0
aF0.13461538461538458
aF0.9038461538461535
aa(lp309
F0.0
aF0.07692307692307693
aF0.1730769230769231
aa(lp310
F0.0
aF0.09615384615384617
aF0.26923076923076916
aa(lp311
F0.0
aF0.173076923076923
aF0.5192307692307692
aa(lp312
F0.0
aF0.3461538461538462
aF0.5576923076923077
aa(lp313
F0.0
aF0.03846153846153846
aF0.1538461538461539
aa(lp314
F0.0
aF0.11538461538461545
aF1.0769230769230764
aa(lp315
F0.0
aF0.961538461538461
aF1.0
aa(lp316
F0.0
aF0.03846153846153899
aF0.288461538461539
aa(lp317
F0.0
aF0.25
aF0.9807692307692311
aa(lp318
F0.0
aF0.7307692307692311
aF0.7692307692307689
aa(lp319
F0.0
aF0.03846153846153788
aF0.09615384615384581
aa(lp320
F0.0
aF0.05769230769230793
aF0.1730769230769229
aa(lp321
F0.0
aF0.11538461538461497
aF0.1538461538461542
aa(lp322
F0.0
aF0.03846153846153921
aF0.13461538461538503
aa(lp323
F0.0
aF0.09615384615384581
aF0.15384615384615286
aa(lp324
F0.0
aF0.05769230769230704
aF0.09615384615384626
aa(lp325
F0.0
aF0.03846153846153921
aF0.2884615384615392
aa(lp326
F0.0
aF0.25
aF1.2115384615384608
aa(lp327
F0.0
aF0.7692307692307693
aF1.230769230769231
aa(lp328
F0.0
aF1.442307692307692
aF2.153846153846154
aa(lp329
F0.0
aF0.3269230769230769
aF0.3846153846153846
aa(lp330
F0.0
aF0.057692307692307654
aF0.19230769230769235
aa(lp331
F0.0
aF0.8461538461538461
aF3.461538461538462
aa(lp332
F0.0
aF0.1923076923076923
aF0.3846153846153846
aa(lp333
F0.0
aF0.1923076923076923
aF0.26923076923076933
aa(lp334
F0.0
aF0.07692307692307704
aF0.3076923076923077
aa(lp335
F0.0
aF0.23076923076923067
aF0.6923076923076923
aa(lp336
F0.0
aF0.4615384615384617
aF0.5769230769230766
aa(lp337
F0.0
aF0.11538461538461497
aF1.8076923076923082
aa(lp338
F0.0
aF0.0576923076923077
aF0.1153846153846154
aa(lp339
F0.0
aF0.0576923076923077
aF1.0769230769230773
aa(lp340
F0.0
aF4.019230769230769
aF5.384615384615385
aa(lp341
F0.0
aF0.3461538461538461
aF1.019230769230769
aa(lp342
F0.0
aF0.6730769230769229
aF0.9615384615384619
aa(lp343
F0.0
aF0.0576923076923077
aF2.038461538461538
aa(lp344
F0.0
aF1.9807692307692302
aF2.1923076923076925
aa(lp345
F0.0
aF0.21153846153846212
aF3.2692307692307687
aa(lp346
F0.0
aF1.576923076923077
aF1.673076923076923
aa(lp347
F0.0
aF2.134615384615385
aF3.865384615384615
aa(lp348
F0.0
aF1.73076923076923
aF2.846153846153846
aa(lp349
F0.0
aF0.09615384615384616
aF0.1346153846153846
aa(lp350
F0.0
aF0.03846153846153845
aF0.09615384615384613
aa(lp351
F0.0
aF0.07692307692307693
aF2.596153846153846
aa(lp352
F0.0
aF2.5192307692307687
aF3.5
aa(lp353
F0.0
aF1.942307692307692
aF2.096153846153846
aa(lp354
F0.0
aF0.4615384615384616
aF0.8461538461538461
aa(lp355
F0.0
aF0.3846153846153845
aF0.7307692307692304
aa(lp356
F0.0
aF0.3461538461538459
aF2.6923076923076916
aa(lp357
F0.0
aF0.1153846153846154
aF0.1538461538461539
aa(lp358
F0.0
aF0.8076923076923077
aF2.365384615384615
aa(lp359
F0.0
aF1.5
aF3.0
aa(lp360
F0.0
aF1.5
aF1.75
aa(lp361
F0.0
aF1.134615384615385
aF3.288461538461538
aa(lp362
F0.0
aF2.153846153846153
aF3.1923076923076916
aa(lp363
F0.0
aF1.0384615384615388
aF1.2500000000000004
aa(lp364
F0.0
aF0.4038461538461539
aF0.6153846153846154
aa(lp365
F0.0
aF0.2115384615384615
aF3.826923076923077
aa(lp366
F0.0
aF0.25
aF1.365384615384615
aa(lp367
F0.0
aF0.01923076923076923
aF0.4423076923076923
aa(lp368
F0.0
aF0.4230769230769231
aF0.5192307692307692
aa(lp369
F0.0
aF0.09615384615384615
aF0.3076923076923077
aa(lp370
F0.0
aF0.21153846153846156
aF0.8846153846153845
aa(lp371
F0.0
aF2.788461538461538
aF2.903846153846154
aa(lp372
F0.0
aF0.25
aF3.423076923076923
aa(lp373
F0.0
aF0.09615384615384616
aF0.1153846153846154
aa(lp374
F0.0
aF0.3269230769230769
aF0.4038461538461539
aa(lp375
F0.0
aF2.5
aF2.557692307692307
aa(lp376
F0.0
aF0.05769230769230704
aF0.09615384615384581
aa(lp377
F0.0
aF0.03846153846153877
aF0.09615384615384714
aa(lp378
F0.0
aF0.07692307692307693
aF0.25
aa(lp379
F0.0
aF0.1730769230769231
aF0.1923076923076923
aa(lp380
F0.0
aF0.8461538461538461
aF1.769230769230769
aa(lp381
F0.0
aF0.9230769230769228
aF2.230769230769231
aa(lp382
F0.0
aF1.3076923076923082
aF1.5576923076923082
aa(lp383
F0.0
aF0.25
aF0.7692307692307687
aa(lp384
F0.0
aF0.5192307692307687
aF0.6923076923076921
aa(lp385
F0.0
aF0.17307692307692335
aF0.23076923076923084
aa(lp386
F0.0
aF0.05769230769230749
aF0.25
aa(lp387
F0.0
aF0.5384615384615384
aF1.076923076923077
aa(lp388
F0.0
aF1.423076923076923
aF1.634615384615385
aa(lp389
F0.0
aF0.21153846153846212
aF0.4615384615384621
aa(lp390
F0.0
aF0.07692307692307693
aF0.1538461538461539
aa(lp391
F0.0
aF0.07692307692307698
aF0.13461538461538458
aa(lp392
F0.0
aF0.7115384615384616
aF1.153846153846154
aa(lp393
F0.0
aF0.4423076923076924
aF0.9807692307692305
aa(lp394
F0.0
aF0.1538461538461539
aF0.6346153846153846
aa(lp395
F0.0
aF0.2307692307692308
aF1.923076923076923
aa(lp396
F0.0
aF1.692307692307692
aF2.307692307692307
aa(lp397
F0.0
aF0.615384615384615
aF0.9615384615384621
aa(lp398
F0.0
aF0.34615384615384714
aF0.5576923076923079
aa(lp399
F0.0
aF0.1346153846153846
aF0.5961538461538461
aa(lp400
F0.0
aF0.1538461538461539
aF0.1730769230769231
aa(lp401
F0.0
aF0.01923076923076919
aF0.0576923076923076
aa(lp402
F0.0
aF0.03846153846153841
aF0.15384615384615383
aa(lp403
F0.0
aF0.11538461538461542
aF0.13461538461538458
aa(lp404
F0.0
aF0.4807692307692308
aF0.5961538461538461
aa(lp405
F0.0
aF0.11538461538461536
aF0.13461538461538464
aa(lp406
F0.0
aF0.8461538461538461
aF1.326923076923077
aa(lp407
F0.0
aF0.48076923076923095
aF1.3653846153846159
aa(lp408
F0.0
aF0.03846153846153846
aF0.09615384615384616
aa(lp409
F0.0
aF2.692307692307693
aF3.326923076923077
aa(lp410
F0.0
aF0.6346153846153841
aF0.9615384615384612
aa(lp411
F0.0
aF0.3269230769230771
aF0.5192307692307687
aa(lp412
F0.0
aF0.1153846153846154
aF0.1923076923076923
aa(lp413
F0.0
aF0.07692307692307689
aF1.6346153846153846
aa(lp414
F0.0
aF1.5576923076923077
aF1.5961538461538467
aa(lp415
F0.0
aF0.03846153846153846
aF0.4615384615384616
aa(lp416
F0.0
aF0.4230769230769232
aF0.576923076923077
aa(lp417
F0.0
aF1.326923076923077
aF1.5
aa(lp418
F0.0
aF0.9615384615384616
aF1.153846153846154
aa(lp419
F0.0
aF0.1923076923076924
aF0.28846153846153844
aa(lp420
F0.0
aF0.5769230769230769
aF0.7884615384615384
aa(lp421
F0.0
aF0.03846153846153846
aF0.2115384615384615
aa(lp422
F0.0
aF0.17307692307692304
aF0.40384615384615385
aa(lp423
F0.0
aF0.23076923076923078
aF0.2884615384615385
aa(lp424
F0.0
aF0.05769230769230771
aF0.09615384615384615
aa(lp425
F0.0
aF0.038461538461538436
aF0.13461538461538458
aa(lp426
F0.0
aF0.09615384615384615
aF0.1346153846153847
aa(lp427
F0.0
aF0.03846153846153855
aF0.42307692307692335
aa(lp428
F0.0
aF0.3846153846153848
aF0.4615384615384619
aa(lp429
F0.0
aF0.8076923076923077
aF3.634615384615385
aa(lp430
F0.0
aF0.2115384615384615
aF2.096153846153846
aa(lp431
F0.0
aF0.03846153846153846
aF0.2307692307692308
aa(lp432
F0.0
aF0.7692307692307693
aF0.9807692307692307
aa(lp433
F0.0
aF0.21153846153846145
aF0.32692307692307676
aa(lp434
F0.0
aF0.11538461538461531
aF0.23076923076923028
aa(lp435
F0.0
aF0.0576923076923077
aF0.09615384615384616
aa(lp436
F0.0
aF0.1923076923076923
aF0.5384615384615384
aa(lp437
F0.0
aF0.34615384615384615
aF1.5384615384615388
aa(lp438
F0.0
aF0.1346153846153846
aF0.1730769230769231
aa(lp439
F0.0
aF0.03846153846153849
aF0.2692307692307693
aa(lp440
F0.0
aF0.2307692307692308
aF0.5961538461538461
aa.