(lp0
(lp1
F1.0
aF1.1418985908584067
aF1.2939406217903926
aa(lp2
F1.0
aF1.1331484530668263
aF1.1889575598403301
aa(lp3
F1.0
aF1.1640706890888672
aF1.1866733001020535
aa(lp4
F1.0
aF1.146298965349668
aF1.2790963424579656
aa(lp5
F1.0
aF1.1030476316629572
aF1.1072982916601528
aa(lp6
F1.0
aF1.0038535597876108
aF1.3369415974586507
aa(lp7
F1.0
aF1.0057859048311468
aF1.0155035678094484
aa(lp8
F1.0
aF1.0096617609489498
aF1.0116052863570086
aa(lp9
F1.0
aF1.0019249272214015
aF1.0116052863570086
aa(lp10
F1.0
aF1.286497072165295
aF1.5237186786357566
aa(lp11
F1.0
aF1.0057859048311468
aF1.0696245427906141
aa(lp12
F1.0
aF1.2451185785926346
aF1.3395151127330227
aa(lp13
F1.0
aF1.0452235324897632
aF1.2475153412384405
aa(lp14
F1.0
aF1.1935392788821069
aF1.219056163766119
aa(lp15
F1.0
aF1.0057859048311468
aF1.0799589994281866
aa(lp16
F1.0
aF1.0737464049165535
aF1.1115653318297845
aa(lp17
F1.0
aF1.0553222323988962
aF1.3064423667602667
aa(lp18
F1.0
aF1.0077219694982582
aF1.3550605691958302
aa(lp19
F1.0
aF1.039210757944791
aF1.1353296813700235
aa(lp20
F1.0
aF1.1353296813700235
aF1.146298965349668
aa(lp21
F1.0
aF1.0116052863570086
aF1.0233452553854454
aa(lp22
F1.0
aF1.0116052863570086
aF1.0253151205244289
aa(lp23
F1.0
aF1.0135525529100309
aF1.067569549104803
aa(lp24
F1.0
aF1.0532947167265108
aF1.0655185035324461
aa(lp25
F1.0
aF1.0116052863570086
aF1.053294716726511
aa(lp26
F1.0
aF1.0412111630215322
aF1.1440966625400302
aa(lp27
F1.0
aF1.0988132889585343
aF1.1223050103450636
aa(lp28
F1.0
aF1.0213791748084837
aF1.0372141961042858
aa(lp29
F1.0
aF1.0155035678094486
aF1.021379174808484
aa(lp30
F1.0
aF1.0057859048311466
aF1.017458338270555
aa(lp31
F1.0
aF1.0116052863570086
aF1.0412111630215322
aa(lp32
F1.0
aF1.029266233642511
aF1.055322232398896
aa(lp33
F1.0
aF1.0253151205244289
aF1.1009284245696882
aa(lp34
F1.0
aF1.0737464049165535
aF1.0799589994281868
aa(lp35
F1.0
aF1.0057859048311468
aF1.0332325726112213
aa(lp36
F1.0
aF1.027288777510441
aF1.0452235324897632
aa(lp37
F1.0
aF1.0057859048311468
aF1.017458338270555
aa(lp38
F1.0
aF1.0077219694982582
aF1.0213791748084837
aa(lp39
F1.0
aF1.1223050103450638
aF1.1266298798023635
aa(lp40
F1.0
aF1.0778841508846315
aF1.1137050141953897
aa(lp41
F1.0
aF1.0213791748084837
aF1.0472355117199024
aa(lp42
F1.0
aF1.0553222323988962
aF1.0778841508846315
aa(lp43
F1.0
aF1.0038535597876108
aF1.0432154187324594
aa(lp44
F1.0
aF1.039210757944791
aF1.1462989653496682
aa(lp45
F1.0
aF1.017458338270555
aF1.0352214701162794
aa(lp46
F1.0
aF1.0512710963760241
aF1.2475153412384405
aa(lp47
F1.0
aF1.1866733001020535
aF1.2790963424579656
aa(lp48
F1.0
aF1.0096617609489498
aF1.1529313420712233
aa(lp49
F1.0
aF1.0077219694982582
aF1.0737464049165535
aa(lp50
F1.0
aF1.0655185035324461
aF1.146298965349668
aa(lp51
F1.0
aF1.0758132886002594
aF1.1094297602839809
aa(lp52
F1.0
aF1.031247496233719
aF1.0532947167265108
aa(lp53
F1.0
aF1.0213791748084837
aF1.0512710963760241
aa(lp54
F1.0
aF1.0292662336425111
aF1.0553222323988962
aa(lp55
F1.0
aF1.0253151205244289
aF1.0512710963760241
aa(lp56
F1.0
aF1.0253151205244289
aF1.0352214701162794
aa(lp57
F1.0
aF1.0096617609489498
aF1.027288777510441
aa(lp58
F1.0
aF1.017458338270555
aF1.027288777510441
aa(lp59
F1.0
aF1.0096617609489498
aF1.0174583382705553
aa(lp60
F1.0
aF1.0077219694982582
aF1.0332325726112215
aa(lp61
F1.0
aF1.0253151205244289
aF1.041211163021532
aa(lp62
F1.0
aF1.0155035678094484
aF1.027288777510441
aa(lp63
F1.0
aF1.0116052863570086
aF1.0412111630215322
aa(lp64
F1.0
aF1.029266233642511
aF1.0352214701162792
aa(lp65
F1.0
aF1.0057859048311466
aF1.0778841508846315
aa(lp66
F1.0
aF1.0096617609489498
aF1.067569549104803
aa(lp67
F1.0
aF1.2050709700778475
aF1.2097147831093567
aa(lp68
F1.0
aF1.0038535597876108
aF1.0155035678094484
aa(lp69
F1.0
aF1.0057859048311468
aF1.311476820529645
aa(lp70
F1.0
aF1.3039323918044152
aF1.3190649006014845
aa(lp71
F1.0
aF1.053294716726511
aF1.0903933051153287
aa(lp72
F1.0
aF1.0967022170072456
aF1.1009284245696882
aa(lp73
F1.0
aF1.137515108378958
aF1.1889575598403304
aa(lp74
F1.0
aF1.0077219694982582
aF1.0155035678094484
aa(lp75
F1.0
aF1.0077219694982582
aF1.0116052863570086
aa(lp76
F1.0
aF1.0038535597876108
aF1.0077219694982582
aa(lp77
F1.0
aF1.0038535597876108
aF1.0057859048311468
aa(lp78
F1.0
aF1.0019249272214015
aF1.0412111630215322
aa(lp79
F1.0
aF1.039210757944791
aF1.0472355117199024
aa(lp80
F1.0
aF1.0077219694982582
aF1.0116052863570086
aa(lp81
F1.0
aF1.0038535597876108
aF1.0213791748084837
aa(lp82
F1.0
aF1.017458338270555
aF1.027288777510441
aa(lp83
F1.0
aF1.0096617609489498
aF1.027288777510441
aa(lp84
F1.0
aF1.017458338270555
aF1.0332325726112215
aa(lp85
F1.0
aF1.0155035678094484
aF1.057353650891391
aa(lp86
F1.0
aF1.0412111630215322
aF1.0778841508846315
aa(lp87
F1.0
aF1.0352214701162794
aF1.057353650891391
aa(lp88
F1.0
aF1.0213791748084837
aF1.0352214701162796
aa(lp89
F1.0
aF1.0135525529100309
aF1.027288777510441
aa(lp90
F1.0
aF1.017458338270555
aF1.0372141961042856
aa(lp91
F1.0
aF1.0077219694982582
aF1.0799589994281866
aa(lp92
F1.0
aF1.368152840486748
aF1.5266517261980206
aa(lp93
F1.0
aF1.0352214701162794
aF1.1331484530668263
aa(lp94
F1.0
aF1.094595200908601
aF1.1009284245696882
aa(lp95
F1.0
aF1.0057859048311468
aF1.0512710963760241
aa(lp96
F1.0
aF1.0452235324897632
aF1.0492513638636303
aa(lp97
F1.0
aF1.0038535597876108
aF1.0593889797166403
aa(lp98
F1.0
aF1.039210757944791
aF1.071683492189711
aa(lp99
F1.0
aF1.0372141961042856
aF1.0758132886002594
aa(lp100
F1.0
aF1.0372141961042856
aF1.039210757944791
aa(lp101
F1.0
aF1.0019249272214015
aF1.0820378419041834
aa(lp102
F1.0
aF1.0096617609489498
aF1.1072982916601528
aa(lp103
F1.0
aF1.0967022170072456
aF1.2050709700778475
aa(lp104
F1.0
aF1.0057859048311468
aF1.0332325726112215
aa(lp105
F1.0
aF1.0096617609489498
aF1.0135525529100309
aa(lp106
F1.0
aF1.0038535597876108
aF1.0135525529100309
aa(lp107
F1.0
aF1.0096617609489498
aF1.0233452553854454
aa(lp108
F1.0
aF1.0135525529100309
aF1.0213791748084837
aa(lp109
F1.0
aF1.0077219694982582
aF1.017458338270555
aa(lp110
F1.0
aF1.0096617609489498
aF1.031247496233719
aa(lp111
F1.0
aF1.0213791748084837
aF1.0253151205244289
aa(lp112
F1.0
aF1.0038535597876108
aF1.027288777510441
aa(lp113
F1.0
aF1.0233452553854452
aF1.0332325726112213
aa(lp114
F1.0
aF1.0096617609489498
aF1.0135525529100309
aa(lp115
F1.0
aF1.0038535597876108
aF1.0057859048311468
aa(lp116
F1.0
aF1.0019249272214015
aF1.0532947167265108
aa(lp117
F1.0
aF1.0512710963760241
aF1.0532947167265108
aa(lp118
F1.0
aF1.0019249272214015
aF1.0057859048311468
aa(lp119
F1.0
aF1.0038535597876108
aF1.0903933051153287
aa(lp120
F1.0
aF1.0862075394204185
aF1.1094297602839807
aa(lp121
F1.0
aF1.021379174808484
aF1.0593889797166403
aa(lp122
F1.0
aF1.0372141961042856
aF1.0882984098811406
aa(lp123
F1.0
aF1.0492513638636303
aF1.1009284245696882
aa(lp124
F1.0
aF1.0492513638636303
aF1.053294716726511
aa(lp125
F1.0
aF1.0038535597876108
aF1.0077219694982582
aa(lp126
F1.0
aF1.0038535597876108
aF1.0096617609489498
aa(lp127
F1.0
aF1.0057859048311468
aF1.0096617609489498
aa(lp128
F1.0
aF1.0038535597876108
aF1.0116052863570084
aa(lp129
F1.0
aF1.0077219694982582
aF1.0116052863570086
aa(lp130
F1.0
aF1.0038535597876108
aF1.0057859048311468
aa(lp131
F1.0
aF1.0019249272214015
aF1.0057859048311468
aa(lp132
F1.0
aF1.0038535597876108
aF1.0096617609489498
aa(lp133
F1.0
aF1.0057859048311466
aF1.0116052863570084
aa(lp134
F1.0
aF1.0057859048311466
aF1.0077219694982582
aa(lp135
F1.0
aF1.067569549104803
aF1.0778841508846315
aa(lp136
F1.0
aF1.0096617609489498
aF1.031247496233719
aa(lp137
F1.0
aF1.0213791748084837
aF1.039210757944791
aa(lp138
F1.0
aF1.1843934289498188
aF1.397402819228238
aa(lp139
F1.0
aF1.0096617609489498
aF1.019416871522534
aa(lp140
F1.0
aF1.0096617609489498
aF1.0634713984883142
aa(lp141
F1.0
aF1.3498588075760032
aF1.357668962172123
aa(lp142
F1.0
aF1.019416871522534
aF1.0432154187324594
aa(lp143
F1.0
aF1.0213791748084837
aF1.05938897971664
aa(lp144
F1.0
aF1.05938897971664
aF1.067569549104803
aa(lp145
F1.0
aF1.2619931140082739
aF1.281558509826358
aa(lp146
F1.0
aF1.0155035678094484
aF1.0532947167265108
aa(lp147
F1.0
aF1.0116052863570086
aF1.2523227161918644
aa(lp148
F1.0
aF1.2379558836645932
aF1.2547333462782415
aa(lp149
F1.0
aF1.0019249272214015
aF1.0077219694982582
aa(lp150
F1.0
aF1.2889734853997594
aF1.3089571732352359
aa(lp151
F1.0
aF1.0155035678094486
aF1.0472355117199024
aa(lp152
F1.0
aF1.0312474962337188
aF1.1353296813700238
aa(lp153
F1.0
aF1.0019249272214015
aF1.0077219694982582
aa(lp154
F1.0
aF1.0155035678094484
aF1.3920385155817865
aa(lp155
F1.0
aF1.1287985603264394
aF1.146298965349668
aa(lp156
F1.0
aF1.0155035678094484
aF1.053294716726511
aa(lp157
F1.0
aF1.0292662336425111
aF1.0412111630215322
aa(lp158
F1.0
aF1.0820378419041834
aF1.1485055074319341
aa(lp159
F1.0
aF1.0213791748084837
aF1.1507162969471194
aa(lp160
F1.0
aF1.1266298798023635
aF1.1640706890888672
aa(lp161
F1.0
aF1.053294716726511
aF1.1201488054174953
aa(lp162
F1.0
aF1.0116052863570086
aF1.0253151205244289
aa(lp163
F1.0
aF1.0253151205244289
aF1.0553222323988962
aa(lp164
F1.0
aF1.0452235324897632
aF1.0492513638636303
aa(lp165
F1.0
aF1.0038535597876108
aF1.0213791748084837
aa(lp166
F1.0
aF1.017458338270555
aF1.1115653318297845
aa(lp167
F1.0
aF1.0924922328703792
aF1.0967022170072456
aa(lp168
F1.0
aF1.0038535597876108
aF1.1418985908584067
aa(lp169
F1.0
aF1.137515108378958
aF1.1529313420712233
aa(lp170
F1.0
aF1.0135525529100309
aF1.0512710963760241
aa(lp171
F1.0
aF1.0372141961042856
aF1.0862075394204185
aa(lp172
F1.0
aF1.0472355117199021
aF1.0532947167265108
aa(lp173
F1.0
aF1.0057859048311468
aF1.0213791748084837
aa(lp174
F1.0
aF1.0155035678094484
aF1.0292662336425111
aa(lp175
F1.0
aF1.0799589994281866
aF1.094595200908601
aa(lp176
F1.0
aF1.0038535597876108
aF1.2644223589066494
aa(lp177
F1.0
aF1.2595685362456337
aF1.2619931140082736
aa(lp178
F1.0
aF1.0038535597876108
aF1.0116052863570086
aa(lp179
F1.0
aF1.0077219694982582
aF1.0155035678094484
aa(lp180
F1.0
aF1.0077219694982582
aF1.0213791748084837
aa(lp181
F1.0
aF1.0372141961042856
aF1.0924922328703792
aa(lp182
F1.0
aF1.0532947167265108
aF1.0614282264017494
aa(lp183
F1.0
aF1.0077219694982582
aF1.0988132889585343
aa(lp184
F1.0
aF1.0862075394204185
aF1.0988132889585343
aa(lp185
F1.0
aF1.0116052863570086
aF1.0903933051153287
aa(lp186
F1.0
aF1.0988132889585343
aF1.1094297602839809
aa(lp187
F1.0
aF1.0057859048311468
aF1.017458338270555
aa(lp188
F1.0
aF1.0116052863570086
aF1.1507162969471194
aa(lp189
F1.0
aF1.0372141961042856
aF1.0432154187324594
aa(lp190
F1.0
aF1.0057859048311468
aF1.0213791748084837
aa(lp191
F1.0
aF1.0155035678094484
aF1.1223050103450638
aa(lp192
F1.0
aF1.1573742319289049
aF1.16631144044593
aa(lp193
F1.0
aF1.0077219694982582
aF1.0352214701162796
aa(lp194
F1.0
aF1.027288777510441
aF1.2815585098263578
aa(lp195
F1.0
aF1.2475153412384403
aF1.2840254166877414
aa(lp196
F1.0
aF1.029266233642511
aF1.071683492189711
aa(lp197
F1.0
aF1.0820378419041834
aF1.1072982916601528
aa(lp198
F1.0
aF1.0233452553854452
aF1.349858807576003
aa(lp199
F1.0
aF1.1201488054174953
aF1.3707864351324388
aa(lp200
F1.0
aF1.1201488054174953
aF1.1573742319289049
aa(lp201
F1.0
aF1.1266298798023635
aF1.1440966625400302
aa(lp202
F1.0
aF1.0155035678094484
aF1.027288777510441
aa(lp203
F1.0
aF1.0096617609489498
aF1.0412111630215322
aa(lp204
F1.0
aF1.0512710963760241
aF1.195836755129839
aa(lp205
F1.0
aF1.137515108378958
aF1.1485055074319341
aa(lp206
F1.0
aF1.2050709700778475
aF1.397402819228238
aa(lp207
F1.0
aF1.0696245427906141
aF1.1030476316629572
aa(lp208
F1.0
aF1.019416871522534
aF1.0553222323988962
aa(lp209
F1.0
aF1.0352214701162794
aF1.053294716726511
aa(lp210
F1.0
aF1.017458338270555
aF1.0372141961042856
aa(lp211
F1.0
aF1.019416871522534
aF1.0634713984883142
aa(lp212
F1.0
aF1.0432154187324594
aF1.0512710963760241
aa(lp213
F1.0
aF1.0077219694982582
aF1.0253151205244289
aa(lp214
F1.0
aF1.1201488054174953
aF1.1397047421758322
aa(lp215
F1.0
aF1.017458338270555
aF1.0412111630215322
aa(lp216
F1.0
aF1.0233452553854454
aF1.0253151205244289
aa(lp217
F1.0
aF1.017458338270555
aF1.0292662336425111
aa(lp218
F1.0
aF1.0116052863570086
aF1.0841206860006514
aa(lp219
F1.0
aF1.071683492189711
aF1.1137050141953897
aa(lp220
F1.0
aF1.017458338270555
aF1.1685565050862765
aa(lp221
F1.0
aF1.1485055074319341
aF1.1730596074438278
aa(lp222
F1.0
aF1.0213791748084837
aF1.177580062775544
aa(lp223
F1.0
aF1.1529313420712235
aF1.2355774869258587
aa(lp224
F1.0
aF1.0412111630215322
aF1.053294716726511
aa(lp225
F1.0
aF1.0116052863570086
aF1.027288777510441
aa(lp226
F1.0
aF1.0057859048311468
aF1.053294716726511
aa(lp227
F1.0
aF1.0472355117199024
aF1.05938897971664
aa(lp228
F1.0
aF1.1137050141953897
aF1.1201488054174953
aa(lp229
F1.0
aF1.0057859048311468
aF1.027288777510441
aa(lp230
F1.0
aF1.0213791748084837
aF1.0253151205244289
aa(lp231
F1.0
aF1.4605983110248928
aF1.4634098564733178
aa(lp232
F1.0
aF1.0019249272214015
aF1.021379174808484
aa(lp233
F1.0
aF1.0038535597876108
aF1.057353650891391
aa(lp234
F1.0
aF1.053294716726511
aF1.0758132886002594
aa(lp235
F1.0
aF1.0116052863570086
aF1.017458338270555
aa(lp236
F1.0
aF1.0057859048311468
aF1.0077219694982582
aa(lp237
F1.0
aF1.0135525529100309
aF1.0553222323988962
aa(lp238
F1.0
aF1.0472355117199024
aF1.1935392788821069
aa(lp239
F1.0
aF1.0862075394204185
aF1.0988132889585343
aa(lp240
F1.0
aF1.2214027581601699
aF1.5004562533665768
aa(lp241
F1.0
aF1.2284696782793845
aF1.2523227161918644
aa(lp242
F1.0
aF1.031247496233719
aF1.1179967430533535
aa(lp243
F1.0
aF1.0841206860006514
aF1.2355774869258587
aa(lp244
F1.0
aF1.0038535597876108
aF1.44662140086609
aa(lp245
F1.0
aF1.0116052863570086
aF1.0253151205244289
aa(lp246
F1.0
aF1.0135525529100309
aF1.0758132886002594
aa(lp247
F1.0
aF1.1485055074319341
aF1.1685565050862765
aa(lp248
F1.0
aF1.017458338270555
aF1.3760688426162673
aa(lp249
F1.0
aF1.0292662336425111
aF1.146298965349668
aa(lp250
F1.0
aF1.177580062775544
aF1.1889575598403304
aa(lp251
F1.0
aF1.0096617609489498
aF1.0253151205244289
aa(lp252
F1.0
aF1.0155035678094484
aF1.0392107579447907
aa(lp253
F1.0
aF1.0077219694982582
aF1.0492513638636303
aa(lp254
F1.0
aF1.0019249272214015
aF1.4832427959822332
aa(lp255
F1.0
aF1.0841206860006514
aF1.0903933051153287
aa(lp256
F1.0
aF1.017458338270555
aF1.1708058913126629
aa(lp257
F1.0
aF1.1507162969471194
aF1.1935392788821069
aa(lp258
F1.0
aF1.0372141961042856
aF1.0392107579447907
aa(lp259
F1.0
aF1.0019249272214015
aF1.0233452553854454
aa(lp260
F1.0
aF1.021379174808484
aF1.0253151205244289
aa(lp261
F1.0
aF1.0038535597876108
aF1.0233452553854454
aa(lp262
F1.0
aF1.019416871522534
aF1.0352214701162794
aa(lp263
F1.0
aF1.0155035678094484
aF1.0292662336425111
aa(lp264
F1.0
aF1.0135525529100309
aF1.0253151205244289
aa(lp265
F1.0
aF1.0116052863570084
aF1.0372141961042856
aa(lp266
F1.0
aF1.0253151205244289
aF1.0352214701162796
aa(lp267
F1.0
aF1.0096617609489498
aF1.031247496233719
aa(lp268
F1.0
aF1.0213791748084837
aF1.031247496233719
aa(lp269
F1.0
aF1.0096617609489498
aF1.019416871522534
aa(lp270
F1.0
aF1.0096617609489495
aF1.0116052863570084
aa(lp271
F1.0
aF1.0019249272214017
aF1.0096617609489498
aa(lp272
F1.0
aF1.0077219694982582
aF1.017458338270555
aa(lp273
F1.0
aF1.0096617609489498
aF1.0135525529100307
aa(lp274
F1.0
aF1.0038535597876106
aF1.0077219694982582
aa(lp275
F1.0
aF1.0038535597876108
aF1.0116052863570086
aa(lp276
F1.0
aF1.0077219694982582
aF1.017458338270555
aa(lp277
F1.0
aF1.0758132886002594
aF1.177580062775544
aa(lp278
F1.0
aF1.094595200908601
aF1.1137050141953897
aa(lp279
F1.0
aF1.017458338270555
aF1.0312474962337188
aa(lp280
F1.0
aF1.0135525529100309
aF1.0253151205244289
aa(lp281
F1.0
aF1.0116052863570084
aF1.0194168715225342
aa(lp282
F1.0
aF1.0077219694982582
aF1.1201488054174953
aa(lp283
F1.0
aF1.0412111630215322
aF1.1115653318297845
aa(lp284
F1.0
aF1.0038535597876108
aF1.0096617609489498
aa(lp285
F1.0
aF1.0841206860006514
aF1.1009284245696882
aa(lp286
F1.0
aF1.0213791748084837
aF1.1507162969471194
aa(lp287
F1.0
aF1.1266298798023635
aF1.1440966625400302
aa(lp288
F1.0
aF1.4747102627484552
aF1.5384404842621846
aa(lp289
F1.0
aF1.0038535597876108
aF1.0077219694982582
aa(lp290
F1.0
aF1.0038535597876108
aF1.094595200908601
aa(lp291
F1.0
aF1.0903933051153287
aF1.1030476316629572
aa(lp292
F1.0
aF1.0116052863570086
aF1.0292662336425111
aa(lp293
F1.0
aF1.017458338270555
aF1.0352214701162794
aa(lp294
F1.0
aF1.017458338270555
aF1.0332325726112215
aa(lp295
F1.0
aF1.0155035678094484
aF1.0512710963760241
aa(lp296
F1.0
aF1.0352214701162794
aF1.0392107579447907
aa(lp297
F1.0
aF1.0038535597876108
aF1.3039323918044148
aa(lp298
F1.0
aF1.027288777510441
aF1.1866733001020535
aa(lp299
F1.0
aF1.017458338270555
aF1.1573742319289049
aa(lp300
F1.0
aF1.1375151083789579
aF1.3920385155817867
aa(lp301
F1.0
aF1.0924922328703792
aF1.1115653318297845
aa(lp302
F1.0
aF1.1179967430533535
aF1.1223050103450638
aa(lp303
F1.0
aF1.0038535597876108
aF1.0096617609489498
aa(lp304
F1.0
aF1.0038535597876108
aF1.0077219694982582
aa(lp305
F1.0
aF1.0116052863570086
aF1.0492513638636303
aa(lp306
F1.0
aF1.0233452553854454
aF1.1821179379521478
aa(lp307
F1.0
aF1.0116052863570086
aF1.0253151205244289
aa(lp308
F1.0
aF1.0135525529100309
aF1.094595200908601
aa(lp309
F1.0
aF1.0077219694982582
aF1.017458338270555
aa(lp310
F1.0
aF1.0096617609489498
aF1.027288777510441
aa(lp311
F1.0
aF1.017458338270555
aF1.0532947167265108
aa(lp312
F1.0
aF1.0352214701162794
aF1.057353650891391
aa(lp313
F1.0
aF1.0038535597876108
aF1.0155035678094484
aa(lp314
F1.0
aF1.0116052863570086
aF1.1137050141953897
aa(lp315
F1.0
aF1.1009284245696882
aF1.1051709180756477
aa(lp316
F1.0
aF1.0038535597876108
aF1.0292662336425111
aa(lp317
F1.0
aF1.0253151205244289
aF1.1030476316629572
aa(lp318
F1.0
aF1.0758132886002594
aF1.0799589994281866
aa(lp319
F1.0
aF1.0038535597876106
aF1.0096617609489498
aa(lp320
F1.0
aF1.0057859048311468
aF1.017458338270555
aa(lp321
F1.0
aF1.0116052863570084
aF1.0155035678094484
aa(lp322
F1.0
aF1.0038535597876108
aF1.0135525529100309
aa(lp323
F1.0
aF1.0096617609489498
aF1.0155035678094484
aa(lp324
F1.0
aF1.0057859048311466
aF1.0096617609489498
aa(lp325
F1.0
aF1.0038535597876108
aF1.0292662336425111
aa(lp326
F1.0
aF1.0253151205244289
aF1.1287985603264394
aa(lp327
F1.0
aF1.0799589994281866
aF1.1309714154026906
aa(lp328
F1.0
aF1.1551506509959832
aF1.2403388586439534
aa(lp329
F1.0
aF1.0332325726112215
aF1.039210757944791
aa(lp330
F1.0
aF1.0057859048311468
aF1.019416871522534
aa(lp331
F1.0
aF1.0882984098811406
aF1.4136200791014728
aa(lp332
F1.0
aF1.019416871522534
aF1.039210757944791
aa(lp333
F1.0
aF1.019416871522534
aF1.027288777510441
aa(lp334
F1.0
aF1.0077219694982582
aF1.031247496233719
aa(lp335
F1.0
aF1.0233452553854452
aF1.071683492189711
aa(lp336
F1.0
aF1.0472355117199024
aF1.05938897971664
aa(lp337
F1.0
aF1.0116052863570084
aF1.1981386538521408
aa(lp338
F1.0
aF1.0057859048311468
aF1.0116052863570086
aa(lp339
F1.0
aF1.0057859048311468
aF1.1137050141953897
aa(lp340
F1.0
aF1.4946963516113192
aF1.713368881363979
aa(lp341
F1.0
aF1.0352214701162794
aF1.1072982916601528
aa(lp342
F1.0
aF1.0696245427906141
aF1.1009284245696882
aa(lp343
F1.0
aF1.0057859048311468
aF1.2261095067134926
aa(lp344
F1.0
aF1.219056163766119
aF1.2451185785926346
aa(lp345
F1.0
aF1.021379174808484
aF1.3866948042464535
aa(lp346
F1.0
aF1.1708058913126629
aF1.1821179379521478
aa(lp347
F1.0
aF1.2379558836645932
aF1.4718770066318345
aa(lp348
F1.0
aF1.1889575598403301
aF1.329250679530152
aa(lp349
F1.0
aF1.0096617609489498
aF1.0135525529100309
aa(lp350
F1.0
aF1.0038535597876108
aF1.0096617609489498
aa(lp351
F1.0
aF1.0077219694982582
aF1.296431363316154
aa(lp352
F1.0
aF1.286497072165295
aF1.4190675485932571
aa(lp353
F1.0
aF1.2143764913520252
aF1.2332036596319012
aa(lp354
F1.0
aF1.0472355117199024
aF1.0882984098811406
aa(lp355
F1.0
aF1.039210757944791
aF1.0758132886002594
aa(lp356
F1.0
aF1.0352214701162794
aF1.3089571732352356
aa(lp357
F1.0
aF1.0116052863570086
aF1.0155035678094484
aa(lp358
F1.0
aF1.0841206860006514
aF1.2668562799246577
aa(lp359
F1.0
aF1.161834242728283
aF1.3498588075760032
aa(lp360
F1.0
aF1.161834242728283
aF1.191246216612358
aa(lp361
F1.0
aF1.1201488054174953
aF1.3893640908229237
aa(lp362
F1.0
aF1.2403388586439532
aF1.3760688426162673
aa(lp363
F1.0
aF1.1094297602839809
aF1.1331484530668263
aa(lp364
F1.0
aF1.0412111630215322
aF1.0634713984883142
aa(lp365
F1.0
aF1.0213791748084837
aF1.4662268139421106
aa(lp366
F1.0
aF1.0253151205244289
aF1.146298965349668
aa(lp367
F1.0
aF1.0019249272214015
aF1.0452235324897632
aa(lp368
F1.0
aF1.0432154187324594
aF1.0532947167265108
aa(lp369
F1.0
aF1.0096617609489498
aF1.031247496233719
aa(lp370
F1.0
aF1.0213791748084837
aF1.0924922328703792
aa(lp371
F1.0
aF1.3216040045354474
aF1.3369415974586507
aa(lp372
F1.0
aF1.0253151205244289
aF1.4081935211750984
aa(lp373
F1.0
aF1.0096617609489498
aF1.0116052863570086
aa(lp374
F1.0
aF1.0332325726112215
aF1.0412111630215322
aa(lp375
F1.0
aF1.2840254166877414
aF1.2914546655494703
aa(lp376
F1.0
aF1.0057859048311466
aF1.0096617609489498
aa(lp377
F1.0
aF1.0038535597876108
aF1.0096617609489498
aa(lp378
F1.0
aF1.0077219694982582
aF1.0253151205244289
aa(lp379
F1.0
aF1.017458338270555
aF1.019416871522534
aa(lp380
F1.0
aF1.0882984098811406
aF1.1935392788821069
aa(lp381
F1.0
aF1.0967022170072456
aF1.2499167174779062
aa(lp382
F1.0
aF1.1397047421758322
aF1.1685565050862765
aa(lp383
F1.0
aF1.0253151205244289
aF1.0799589994281866
aa(lp384
F1.0
aF1.0532947167265108
aF1.071683492189711
aa(lp385
F1.0
aF1.017458338270555
aF1.0233452553854454
aa(lp386
F1.0
aF1.0057859048311468
aF1.0253151205244289
aa(lp387
F1.0
aF1.0553222323988962
aF1.1137050141953897
aa(lp388
F1.0
aF1.1529313420712233
aF1.177580062775544
aa(lp389
F1.0
aF1.021379174808484
aF1.0472355117199024
aa(lp390
F1.0
aF1.0077219694982582
aF1.0155035678094484
aa(lp391
F1.0
aF1.0077219694982582
aF1.0135525529100309
aa(lp392
F1.0
aF1.0737464049165535
aF1.1223050103450638
aa(lp393
F1.0
aF1.0452235324897632
aF1.1030476316629572
aa(lp394
F1.0
aF1.0155035678094484
aF1.0655185035324461
aa(lp395
F1.0
aF1.0233452553854454
aF1.2120433960254957
aa(lp396
F1.0
aF1.1843934289498188
aF1.2595685362456335
aa(lp397
F1.0
aF1.0634713984883142
aF1.1009284245696882
aa(lp398
F1.0
aF1.0352214701162796
aF1.057353650891391
aa(lp399
F1.0
aF1.0135525529100309
aF1.0614282264017494
aa(lp400
F1.0
aF1.0155035678094484
aF1.017458338270555
aa(lp401
F1.0
aF1.0019249272214015
aF1.0057859048311468
aa(lp402
F1.0
aF1.0038535597876108
aF1.0155035678094484
aa(lp403
F1.0
aF1.0116052863570086
aF1.0135525529100309
aa(lp404
F1.0
aF1.0492513638636303
aF1.0614282264017494
aa(lp405
F1.0
aF1.0116052863570086
aF1.0135525529100309
aa(lp406
F1.0
aF1.0882984098811406
aF1.1418985908584067
aa(lp407
F1.0
aF1.0492513638636303
aF1.1462989653496682
aa(lp408
F1.0
aF1.0038535597876108
aF1.0096617609489498
aa(lp409
F1.0
aF1.3089571732352359
aF1.3947180884136694
aa(lp410
F1.0
aF1.0655185035324461
aF1.1009284245696882
aa(lp411
F1.0
aF1.0332325726112215
aF1.0532947167265108
aa(lp412
F1.0
aF1.0116052863570086
aF1.019416871522534
aa(lp413
F1.0
aF1.0077219694982582
aF1.1775800627755437
aa(lp414
F1.0
aF1.1685565050862765
aF1.173059607443828
aa(lp415
F1.0
aF1.0038535597876108
aF1.0472355117199024
aa(lp416
F1.0
aF1.0432154187324594
aF1.05938897971664
aa(lp417
F1.0
aF1.1418985908584067
aF1.161834242728283
aa(lp418
F1.0
aF1.1009284245696882
aF1.1223050103450638
aa(lp419
F1.0
aF1.019416871522534
aF1.0292662336425111
aa(lp420
F1.0
aF1.05938897971664
aF1.0820378419041834
aa(lp421
F1.0
aF1.0038535597876108
aF1.0213791748084837
aa(lp422
F1.0
aF1.017458338270555
aF1.0412111630215322
aa(lp423
F1.0
aF1.0233452553854454
aF1.0292662336425111
aa(lp424
F1.0
aF1.0057859048311468
aF1.0096617609489498
aa(lp425
F1.0
aF1.0038535597876108
aF1.0135525529100309
aa(lp426
F1.0
aF1.0096617609489498
aF1.0135525529100309
aa(lp427
F1.0
aF1.0038535597876108
aF1.0432154187324594
aa(lp428
F1.0
aF1.039210757944791
aF1.0472355117199024
aa(lp429
F1.0
aF1.0841206860006514
aF1.4382995366284752
aa(lp430
F1.0
aF1.0213791748084837
aF1.2332036596319012
aa(lp431
F1.0
aF1.0038535597876108
aF1.0233452553854454
aa(lp432
F1.0
aF1.0799589994281866
aF1.1030476316629572
aa(lp433
F1.0
aF1.0213791748084837
aF1.0332325726112215
aa(lp434
F1.0
aF1.0116052863570086
aF1.0233452553854452
aa(lp435
F1.0
aF1.0057859048311468
aF1.0096617609489498
aa(lp436
F1.0
aF1.019416871522534
aF1.0553222323988962
aa(lp437
F1.0
aF1.0352214701162794
aF1.16631144044593
aa(lp438
F1.0
aF1.0135525529100309
aF1.017458338270555
aa(lp439
F1.0
aF1.0038535597876108
aF1.027288777510441
aa(lp440
F1.0
aF1.0233452553854454
aF1.0614282264017494
aa.