(lp0
(lp1
F0.0
aF1.326923076923077
aF2.576923076923077
aa(lp2
F1.326923076923077
aF2.576923076923077
aF3.057692307692307
aa(lp3
F0.0
aF1.519230769230769
aF1.711538461538461
aa(lp4
F0.0
aF1.365384615384615
aF2.461538461538462
aa(lp5
F0.0
aF0.9807692307692307
aF1.019230769230769
aa(lp6
F0.9807692307692307
aF1.019230769230769
aF3.884615384615385
aa(lp7
F0.0
aF0.0576923076923077
aF0.1538461538461539
aa(lp8
F0.0576923076923077
aF0.1538461538461539
aF0.1730769230769231
aa(lp9
F0.1538461538461539
aF0.1730769230769231
aF0.2692307692307692
aa(lp10
F0.0
aF2.519230769230769
aF4.211538461538462
aa(lp11
F0.0
aF0.0576923076923077
aF0.6730769230769231
aa(lp12
F0.0
aF2.192307692307693
aF2.923076923076923
aa(lp13
F0.0
aF0.4423076923076923
aF2.211538461538462
aa(lp14
F0.4423076923076923
aF2.211538461538462
aF2.423076923076923
aa(lp15
F0.0
aF0.0576923076923077
aF0.7692307692307693
aa(lp16
F0.0576923076923077
aF0.7692307692307693
aF1.115384615384615
aa(lp17
F0.0
aF0.5384615384615384
aF2.673076923076923
aa(lp18
F0.0
aF0.07692307692307693
aF3.038461538461538
aa(lp19
F0.0
aF0.3846153846153846
aF1.269230769230769
aa(lp20
F0.0
aF1.269230769230769
aF1.365384615384615
aa(lp21
F0.0
aF0.1153846153846154
aF0.2307692307692308
aa(lp22
F0.1153846153846154
aF0.2307692307692308
aF0.3653846153846154
aa(lp23
F0.2307692307692308
aF0.3653846153846154
aF0.8846153846153846
aa(lp24
F0.3653846153846154
aF0.8846153846153846
aF1.0
aa(lp25
F0.8846153846153846
aF1.0
aF1.403846153846154
aa(lp26
F1.0
aF1.403846153846154
aF2.346153846153846
aa(lp27
F1.403846153846154
aF2.346153846153846
aF2.557692307692307
aa(lp28
F2.346153846153846
aF2.557692307692307
aF2.711538461538462
aa(lp29
F2.557692307692307
aF2.711538461538462
aF2.769230769230769
aa(lp30
F2.711538461538462
aF2.769230769230769
aF2.884615384615385
aa(lp31
F2.769230769230769
aF2.884615384615385
aF3.173076923076923
aa(lp32
F2.884615384615385
aF3.173076923076923
aF3.423076923076923
aa(lp33
F3.173076923076923
aF3.423076923076923
aF4.134615384615385
aa(lp34
F3.423076923076923
aF4.134615384615385
aF4.192307692307693
aa(lp35
F4.134615384615385
aF4.192307692307693
aF4.461538461538462
aa(lp36
F4.192307692307693
aF4.461538461538462
aF4.634615384615385
aa(lp37
F0.0
aF0.0576923076923077
aF0.1730769230769231
aa(lp38
F0.0
aF0.07692307692307693
aF0.2115384615384615
aa(lp39
F0.0
aF1.153846153846154
aF1.192307692307692
aa(lp40
F0.0
aF0.75
aF1.076923076923077
aa(lp41
F0.0
aF0.2115384615384615
aF0.4615384615384616
aa(lp42
F0.0
aF0.5384615384615384
aF0.75
aa(lp43
F0.0
aF0.03846153846153846
aF0.4230769230769231
aa(lp44
F0.03846153846153846
aF0.4230769230769231
aF1.403846153846154
aa(lp45
F0.0
aF0.1730769230769231
aF0.3461538461538461
aa(lp46
F0.0
aF0.5
aF2.211538461538462
aa(lp47
F0.5
aF2.211538461538462
aF2.961538461538462
aa(lp48
F0.0
aF0.09615384615384616
aF1.423076923076923
aa(lp49
F0.0
aF0.07692307692307693
aF0.7115384615384616
aa(lp50
F0.07692307692307693
aF0.7115384615384616
aF1.442307692307692
aa(lp51
F0.7115384615384616
aF1.442307692307692
aF1.75
aa(lp52
F1.442307692307692
aF1.75
aF1.961538461538461
aa(lp53
F1.75
aF1.961538461538461
aF2.25
aa(lp54
F1.961538461538461
aF2.25
aF2.5
aa(lp55
F2.25
aF2.5
aF2.75
aa(lp56
F2.5
aF2.75
aF2.846153846153846
aa(lp57
F2.75
aF2.846153846153846
aF3.019230769230769
aa(lp58
F2.846153846153846
aF3.019230769230769
aF3.115384615384615
aa(lp59
F3.019230769230769
aF3.115384615384615
aF3.192307692307693
aa(lp60
F3.115384615384615
aF3.192307692307693
aF3.442307692307693
aa(lp61
F3.192307692307693
aF3.442307692307693
aF3.596153846153846
aa(lp62
F3.442307692307693
aF3.596153846153846
aF3.711538461538462
aa(lp63
F3.596153846153846
aF3.711538461538462
aF4.0
aa(lp64
F3.711538461538462
aF4.0
aF4.057692307692307
aa(lp65
F4.0
aF4.057692307692307
aF4.75
aa(lp66
F0.0
aF0.09615384615384616
aF0.6538461538461539
aa(lp67
F0.0
aF1.865384615384615
aF1.903846153846154
aa(lp68
F1.865384615384615
aF1.903846153846154
aF2.019230769230769
aa(lp69
F0.0
aF0.0576923076923077
aF2.711538461538462
aa(lp70
F0.0576923076923077
aF2.711538461538462
aF2.826923076923077
aa(lp71
F0.0
aF0.5192307692307693
aF0.8653846153846154
aa(lp72
F0.0
aF0.9230769230769231
aF0.9615384615384616
aa(lp73
F0.0
aF1.288461538461539
aF1.730769230769231
aa(lp74
F0.0
aF0.07692307692307693
aF0.1538461538461539
aa(lp75
F0.07692307692307693
aF0.1538461538461539
aF0.1923076923076923
aa(lp76
F0.1538461538461539
aF0.1923076923076923
aF0.2307692307692308
aa(lp77
F0.1923076923076923
aF0.2307692307692308
aF0.25
aa(lp78
F0.2307692307692308
aF0.25
aF0.6346153846153846
aa(lp79
F0.25
aF0.6346153846153846
aF0.7115384615384616
aa(lp80
F0.6346153846153846
aF0.7115384615384616
aF0.75
aa(lp81
F0.7115384615384616
aF0.75
aF0.9230769230769231
aa(lp82
F0.75
aF0.9230769230769231
aF1.019230769230769
aa(lp83
F0.9230769230769231
aF1.019230769230769
aF1.192307692307692
aa(lp84
F1.019230769230769
aF1.192307692307692
aF1.346153846153846
aa(lp85
F1.192307692307692
aF1.346153846153846
aF1.75
aa(lp86
F1.346153846153846
aF1.75
aF2.096153846153846
aa(lp87
F1.75
aF2.096153846153846
aF2.307692307692307
aa(lp88
F2.096153846153846
aF2.307692307692307
aF2.442307692307693
aa(lp89
F2.307692307692307
aF2.442307692307693
aF2.576923076923077
aa(lp90
F0.0
aF0.1730769230769231
aF0.3653846153846154
aa(lp91
F0.0
aF0.07692307692307693
aF0.7692307692307693
aa(lp92
F0.0
aF3.134615384615385
aF4.230769230769231
aa(lp93
F0.0
aF0.3461538461538461
aF1.25
aa(lp94
F0.3461538461538461
aF1.25
aF1.307692307692308
aa(lp95
F1.25
aF1.307692307692308
aF1.75
aa(lp96
F1.307692307692308
aF1.75
aF1.788461538461539
aa(lp97
F1.75
aF1.788461538461539
aF2.326923076923077
aa(lp98
F0.0
aF0.3846153846153846
aF0.6923076923076923
aa(lp99
F0.0
aF0.3653846153846154
aF0.7307692307692307
aa(lp100
F0.3653846153846154
aF0.7307692307692307
aF0.75
aa(lp101
F0.7307692307692307
aF0.75
aF1.519230769230769
aa(lp102
F0.0
aF0.09615384615384616
aF1.019230769230769
aa(lp103
F0.09615384615384616
aF1.019230769230769
aF1.961538461538461
aa(lp104
F0.0
aF0.0576923076923077
aF0.3269230769230769
aa(lp105
F0.0
aF0.09615384615384616
aF0.1346153846153846
aa(lp106
F0.09615384615384616
aF0.1346153846153846
aF0.2307692307692308
aa(lp107
F0.1346153846153846
aF0.2307692307692308
aF0.3653846153846154
aa(lp108
F0.2307692307692308
aF0.3653846153846154
aF0.4423076923076923
aa(lp109
F0.3653846153846154
aF0.4423076923076923
aF0.5384615384615384
aa(lp110
F0.4423076923076923
aF0.5384615384615384
aF0.75
aa(lp111
F0.5384615384615384
aF0.75
aF0.7884615384615384
aa(lp112
F0.75
aF0.7884615384615384
aF1.019230769230769
aa(lp113
F0.7884615384615384
aF1.019230769230769
aF1.115384615384615
aa(lp114
F1.019230769230769
aF1.115384615384615
aF1.153846153846154
aa(lp115
F1.115384615384615
aF1.153846153846154
aF1.173076923076923
aa(lp116
F1.153846153846154
aF1.173076923076923
aF1.673076923076923
aa(lp117
F1.173076923076923
aF1.673076923076923
aF1.692307692307692
aa(lp118
F1.673076923076923
aF1.692307692307692
aF1.730769230769231
aa(lp119
F1.692307692307692
aF1.730769230769231
aF2.557692307692307
aa(lp120
F1.730769230769231
aF2.557692307692307
aF2.769230769230769
aa(lp121
F2.557692307692307
aF2.769230769230769
aF3.134615384615385
aa(lp122
F2.769230769230769
aF3.134615384615385
aF3.615384615384615
aa(lp123
F3.134615384615385
aF3.615384615384615
aF4.096153846153846
aa(lp124
F3.615384615384615
aF4.096153846153846
aF4.134615384615385
aa(lp125
F4.096153846153846
aF4.134615384615385
aF4.173076923076923
aa(lp126
F4.134615384615385
aF4.173076923076923
aF4.230769230769231
aa(lp127
F4.173076923076923
aF4.230769230769231
aF4.269230769230769
aa(lp128
F4.230769230769231
aF4.269230769230769
aF4.346153846153846
aa(lp129
F4.269230769230769
aF4.346153846153846
aF4.384615384615385
aa(lp130
F4.346153846153846
aF4.384615384615385
aF4.403846153846154
aa(lp131
F4.384615384615385
aF4.403846153846154
aF4.442307692307693
aa(lp132
F4.403846153846154
aF4.442307692307693
aF4.5
aa(lp133
F4.442307692307693
aF4.5
aF4.557692307692307
aa(lp134
F4.5
aF4.557692307692307
aF4.576923076923077
aa(lp135
F0.0
aF0.6538461538461539
aF0.75
aa(lp136
F0.6538461538461539
aF0.75
aF0.9615384615384616
aa(lp137
F0.75
aF0.9615384615384616
aF1.134615384615385
aa(lp138
F0.0
aF1.692307692307692
aF3.346153846153846
aa(lp139
F0.0
aF0.09615384615384616
aF0.1923076923076923
aa(lp140
F0.09615384615384616
aF0.1923076923076923
aF0.7115384615384616
aa(lp141
F0.0
aF3.0
aF3.057692307692307
aa(lp142
F0.0
aF0.1923076923076923
aF0.4230769230769231
aa(lp143
F0.0
aF0.2115384615384615
aF0.5769230769230769
aa(lp144
F0.0
aF0.5769230769230769
aF0.6538461538461539
aa(lp145
F0.0
aF2.326923076923077
aF2.480769230769231
aa(lp146
F2.326923076923077
aF2.480769230769231
aF2.846153846153846
aa(lp147
F0.0
aF0.1153846153846154
aF2.25
aa(lp148
F0.1153846153846154
aF2.25
aF2.384615384615385
aa(lp149
F0.0
aF0.01923076923076923
aF0.07692307692307693
aa(lp150
F0.0
aF2.538461538461538
aF2.692307692307693
aa(lp151
F2.538461538461538
aF2.692307692307693
aF3.0
aa(lp152
F2.692307692307693
aF3.0
aF3.961538461538462
aa(lp153
F0.0
aF0.01923076923076923
aF0.07692307692307693
aa(lp154
F0.0
aF0.1538461538461539
aF3.307692307692307
aa(lp155
F0.0
aF1.211538461538461
aF1.365384615384615
aa(lp156
F1.211538461538461
aF1.365384615384615
aF1.730769230769231
aa(lp157
F0.0
aF0.2884615384615384
aF0.4038461538461539
aa(lp158
F0.0
aF0.7884615384615384
aF1.384615384615385
aa(lp159
F0.0
aF0.2115384615384615
aF1.403846153846154
aa(lp160
F0.2115384615384615
aF1.403846153846154
aF1.730769230769231
aa(lp161
F0.0
aF0.5192307692307693
aF1.134615384615385
aa(lp162
F0.0
aF0.1153846153846154
aF0.25
aa(lp163
F0.0
aF0.25
aF0.5384615384615384
aa(lp164
F0.0
aF0.4423076923076923
aF0.4807692307692308
aa(lp165
F0.4423076923076923
aF0.4807692307692308
aF0.6538461538461539
aa(lp166
F0.0
aF0.1730769230769231
aF1.057692307692308
aa(lp167
F0.1730769230769231
aF1.057692307692308
aF1.096153846153846
aa(lp168
F1.057692307692308
aF1.096153846153846
aF2.384615384615385
aa(lp169
F1.096153846153846
aF2.384615384615385
aF2.519230769230769
aa(lp170
F2.384615384615385
aF2.519230769230769
aF2.884615384615385
aa(lp171
F2.519230769230769
aF2.884615384615385
aF3.346153846153846
aa(lp172
F2.884615384615385
aF3.346153846153846
aF3.403846153846154
aa(lp173
F3.346153846153846
aF3.403846153846154
aF3.557692307692307
aa(lp174
F3.403846153846154
aF3.557692307692307
aF3.692307692307693
aa(lp175
F0.0
aF0.7692307692307693
aF0.9038461538461539
aa(lp176
F0.0
aF0.03846153846153846
aF2.346153846153846
aa(lp177
F0.03846153846153846
aF2.346153846153846
aF2.365384615384615
aa(lp178
F0.0
aF0.03846153846153846
aF0.1153846153846154
aa(lp179
F0.03846153846153846
aF0.1153846153846154
aF0.1923076923076923
aa(lp180
F0.1153846153846154
aF0.1923076923076923
aF0.3269230769230769
aa(lp181
F0.0
aF0.3653846153846154
aF0.8846153846153846
aa(lp182
F0.3653846153846154
aF0.8846153846153846
aF0.9615384615384616
aa(lp183
F0.8846153846153846
aF0.9615384615384616
aF1.826923076923077
aa(lp184
F0.0
aF0.8269230769230769
aF0.9423076923076923
aa(lp185
F0.8269230769230769
aF0.9423076923076923
aF1.692307692307692
aa(lp186
F0.0
aF0.9423076923076923
aF1.038461538461539
aa(lp187
F0.0
aF0.0576923076923077
aF0.1730769230769231
aa(lp188
F0.0576923076923077
aF0.1730769230769231
aF1.461538461538461
aa(lp189
F0.0
aF0.3653846153846154
aF0.4230769230769231
aa(lp190
F0.3653846153846154
aF0.4230769230769231
aF0.5769230769230769
aa(lp191
F0.4230769230769231
aF0.5769230769230769
aF1.576923076923077
aa(lp192
F0.0
aF1.461538461538461
aF1.538461538461539
aa(lp193
F1.461538461538461
aF1.538461538461539
aF1.807692307692308
aa(lp194
F1.538461538461539
aF1.807692307692308
aF4.019230769230769
aa(lp195
F1.807692307692308
aF4.019230769230769
aF4.307692307692307
aa(lp196
F4.019230769230769
aF4.307692307692307
aF4.711538461538462
aa(lp197
F0.0
aF0.7884615384615384
aF1.019230769230769
aa(lp198
F0.7884615384615384
aF1.019230769230769
aF3.788461538461538
aa(lp199
F0.0
aF1.134615384615385
aF3.153846153846154
aa(lp200
F0.0
aF1.134615384615385
aF1.461538461538461
aa(lp201
F0.0
aF1.192307692307692
aF1.346153846153846
aa(lp202
F1.192307692307692
aF1.346153846153846
aF1.461538461538461
aa(lp203
F0.0
aF0.09615384615384616
aF0.4038461538461539
aa(lp204
F0.0
aF0.5
aF1.788461538461539
aa(lp205
F0.5
aF1.788461538461539
aF1.884615384615385
aa(lp206
F0.0
aF1.865384615384615
aF3.346153846153846
aa(lp207
F0.0
aF0.6730769230769231
aF0.9807692307692307
aa(lp208
F0.0
aF0.1923076923076923
aF0.5384615384615384
aa(lp209
F0.1923076923076923
aF0.5384615384615384
aF0.7115384615384616
aa(lp210
F0.5384615384615384
aF0.7115384615384616
aF0.9038461538461539
aa(lp211
F0.7115384615384616
aF0.9038461538461539
aF1.326923076923077
aa(lp212
F0.9038461538461539
aF1.326923076923077
aF1.403846153846154
aa(lp213
F1.326923076923077
aF1.403846153846154
aF1.576923076923077
aa(lp214
F0.0
aF1.134615384615385
aF1.307692307692308
aa(lp215
F1.134615384615385
aF1.307692307692308
aF1.538461538461539
aa(lp216
F1.307692307692308
aF1.538461538461539
aF1.557692307692308
aa(lp217
F0.0
aF0.1730769230769231
aF0.2884615384615384
aa(lp218
F0.1730769230769231
aF0.2884615384615384
aF0.9807692307692307
aa(lp219
F0.2884615384615384
aF0.9807692307692307
aF1.365384615384615
aa(lp220
F0.0
aF0.1730769230769231
aF1.557692307692308
aa(lp221
F0.1730769230769231
aF1.557692307692308
aF1.769230769230769
aa(lp222
F1.557692307692308
aF1.769230769230769
aF3.192307692307693
aa(lp223
F1.769230769230769
aF3.192307692307693
aF3.884615384615385
aa(lp224
F0.0
aF0.4038461538461539
aF0.5192307692307693
aa(lp225
F0.4038461538461539
aF0.5192307692307693
aF0.6730769230769231
aa(lp226
F0.0
aF0.0576923076923077
aF0.5192307692307693
aa(lp227
F0.0576923076923077
aF0.5192307692307693
aF0.6346153846153846
aa(lp228
F0.0
aF1.076923076923077
aF1.134615384615385
aa(lp229
F1.076923076923077
aF1.134615384615385
aF1.346153846153846
aa(lp230
F1.134615384615385
aF1.346153846153846
aF1.384615384615385
aa(lp231
F0.0
aF3.788461538461538
aF3.807692307692307
aa(lp232
F3.788461538461538
aF3.807692307692307
aF4.0
aa(lp233
F0.0
aF0.03846153846153846
aF0.5576923076923077
aa(lp234
F0.03846153846153846
aF0.5576923076923077
aF0.7692307692307693
aa(lp235
F0.0
aF0.1153846153846154
aF0.1730769230769231
aa(lp236
F0.1153846153846154
aF0.1730769230769231
aF0.1923076923076923
aa(lp237
F0.0
aF0.1346153846153846
aF0.5384615384615384
aa(lp238
F0.0
aF0.4615384615384616
aF1.769230769230769
aa(lp239
F0.0
aF0.8269230769230769
aF0.9423076923076923
aa(lp240
F0.0
aF2.0
aF4.057692307692307
aa(lp241
F2.0
aF4.057692307692307
aF4.25
aa(lp242
F0.0
aF0.3076923076923077
aF1.115384615384615
aa(lp243
F0.3076923076923077
aF1.115384615384615
aF2.423076923076923
aa(lp244
F0.0
aF0.03846153846153846
aF3.692307692307693
aa(lp245
F0.0
aF0.1153846153846154
aF0.25
aa(lp246
F0.1153846153846154
aF0.25
aF0.8461538461538461
aa(lp247
F0.0
aF1.384615384615385
aF1.557692307692308
aa(lp248
F1.384615384615385
aF1.557692307692308
aF4.576923076923077
aa(lp249
F0.0
aF0.2884615384615384
aF1.365384615384615
aa(lp250
F0.0
aF1.634615384615385
aF1.730769230769231
aa(lp251
F1.634615384615385
aF1.730769230769231
aF1.884615384615385
aa(lp252
F1.730769230769231
aF1.884615384615385
aF2.115384615384615
aa(lp253
F0.0
aF0.07692307692307693
aF0.4807692307692308
aa(lp254
F0.0
aF0.01923076923076923
aF3.942307692307693
aa(lp255
F0.0
aF0.8076923076923077
aF0.8653846153846154
aa(lp256
F0.0
aF0.1730769230769231
aF1.576923076923077
aa(lp257
F0.1730769230769231
aF1.576923076923077
aF1.942307692307692
aa(lp258
F1.576923076923077
aF1.942307692307692
aF1.961538461538461
aa(lp259
F1.942307692307692
aF1.961538461538461
aF2.173076923076923
aa(lp260
F1.961538461538461
aF2.173076923076923
aF2.211538461538462
aa(lp261
F2.173076923076923
aF2.211538461538462
aF2.403846153846154
aa(lp262
F2.211538461538462
aF2.403846153846154
aF2.557692307692307
aa(lp263
F2.403846153846154
aF2.557692307692307
aF2.692307692307693
aa(lp264
F2.557692307692307
aF2.692307692307693
aF2.807692307692307
aa(lp265
F2.692307692307693
aF2.807692307692307
aF3.057692307692307
aa(lp266
F2.807692307692307
aF3.057692307692307
aF3.153846153846154
aa(lp267
F3.057692307692307
aF3.153846153846154
aF3.365384615384615
aa(lp268
F3.153846153846154
aF3.365384615384615
aF3.461538461538462
aa(lp269
F3.365384615384615
aF3.461538461538462
aF3.557692307692307
aa(lp270
F3.461538461538462
aF3.557692307692307
aF3.576923076923077
aa(lp271
F3.557692307692307
aF3.576923076923077
aF3.653846153846154
aa(lp272
F3.576923076923077
aF3.653846153846154
aF3.75
aa(lp273
F3.653846153846154
aF3.75
aF3.788461538461538
aa(lp274
F3.75
aF3.788461538461538
aF3.826923076923077
aa(lp275
F3.788461538461538
aF3.826923076923077
aF3.903846153846154
aa(lp276
F3.826923076923077
aF3.903846153846154
aF4.0
aa(lp277
F0.0
aF0.7307692307692307
aF1.634615384615385
aa(lp278
F0.7307692307692307
aF1.634615384615385
aF1.807692307692308
aa(lp279
F1.634615384615385
aF1.807692307692308
aF1.942307692307692
aa(lp280
F1.807692307692308
aF1.942307692307692
aF2.057692307692307
aa(lp281
F1.942307692307692
aF2.057692307692307
aF2.134615384615385
aa(lp282
F2.057692307692307
aF2.134615384615385
aF3.192307692307693
aa(lp283
F0.0
aF0.4038461538461539
aF1.057692307692308
aa(lp284
F0.0
aF0.03846153846153846
aF0.09615384615384616
aa(lp285
F0.0
aF0.8076923076923077
aF0.9615384615384616
aa(lp286
F0.0
aF0.2115384615384615
aF1.403846153846154
aa(lp287
F0.2115384615384615
aF1.403846153846154
aF1.557692307692308
aa(lp288
F0.0
aF3.884615384615385
aF4.307692307692307
aa(lp289
F0.0
aF0.03846153846153846
aF0.07692307692307693
aa(lp290
F0.03846153846153846
aF0.07692307692307693
aF0.9423076923076923
aa(lp291
F0.07692307692307693
aF0.9423076923076923
aF1.057692307692308
aa(lp292
F0.9423076923076923
aF1.057692307692308
aF1.230769230769231
aa(lp293
F1.057692307692308
aF1.230769230769231
aF1.403846153846154
aa(lp294
F1.230769230769231
aF1.403846153846154
aF1.557692307692308
aa(lp295
F1.403846153846154
aF1.557692307692308
aF1.903846153846154
aa(lp296
F1.557692307692308
aF1.903846153846154
aF1.942307692307692
aa(lp297
F1.903846153846154
aF1.942307692307692
aF4.557692307692307
aa(lp298
F0.0
aF0.2692307692307692
aF1.711538461538461
aa(lp299
F0.0
aF0.1730769230769231
aF1.461538461538461
aa(lp300
F0.1730769230769231
aF1.461538461538461
aF3.480769230769231
aa(lp301
F0.0
aF0.8846153846153846
aF1.057692307692308
aa(lp302
F0.0
aF1.115384615384615
aF1.153846153846154
aa(lp303
F1.115384615384615
aF1.153846153846154
aF1.211538461538461
aa(lp304
F0.0
aF0.03846153846153846
aF0.07692307692307693
aa(lp305
F0.0
aF0.1153846153846154
aF0.4807692307692308
aa(lp306
F0.0
aF0.2307692307692308
aF1.673076923076923
aa(lp307
F0.0
aF0.1153846153846154
aF0.25
aa(lp308
F0.1153846153846154
aF0.25
aF1.019230769230769
aa(lp309
F0.0
aF0.07692307692307693
aF0.1730769230769231
aa(lp310
F0.07692307692307693
aF0.1730769230769231
aF0.3461538461538461
aa(lp311
F0.1730769230769231
aF0.3461538461538461
aF0.6923076923076923
aa(lp312
F0.3461538461538461
aF0.6923076923076923
aF0.9038461538461539
aa(lp313
F0.0
aF0.03846153846153846
aF0.1538461538461539
aa(lp314
F0.03846153846153846
aF0.1538461538461539
aF1.115384615384615
aa(lp315
F0.1538461538461539
aF1.115384615384615
aF1.153846153846154
aa(lp316
F1.115384615384615
aF1.153846153846154
aF1.403846153846154
aa(lp317
F1.153846153846154
aF1.403846153846154
aF2.134615384615385
aa(lp318
F1.403846153846154
aF2.134615384615385
aF2.173076923076923
aa(lp319
F2.134615384615385
aF2.173076923076923
aF2.230769230769231
aa(lp320
F2.173076923076923
aF2.230769230769231
aF2.346153846153846
aa(lp321
F2.230769230769231
aF2.346153846153846
aF2.384615384615385
aa(lp322
F2.346153846153846
aF2.384615384615385
aF2.480769230769231
aa(lp323
F2.384615384615385
aF2.480769230769231
aF2.538461538461538
aa(lp324
F2.480769230769231
aF2.538461538461538
aF2.576923076923077
aa(lp325
F2.538461538461538
aF2.576923076923077
aF2.826923076923077
aa(lp326
F2.576923076923077
aF2.826923076923077
aF3.788461538461538
aa(lp327
F0.0
aF0.7692307692307693
aF1.230769230769231
aa(lp328
F0.0
aF1.442307692307692
aF2.153846153846154
aa(lp329
F0.0
aF0.3269230769230769
aF0.3846153846153846
aa(lp330
F0.3269230769230769
aF0.3846153846153846
aF0.5192307692307693
aa(lp331
F0.0
aF0.8461538461538461
aF3.461538461538462
aa(lp332
F0.0
aF0.1923076923076923
aF0.3846153846153846
aa(lp333
F0.1923076923076923
aF0.3846153846153846
aF0.4615384615384616
aa(lp334
F0.3846153846153846
aF0.4615384615384616
aF0.6923076923076923
aa(lp335
F0.4615384615384616
aF0.6923076923076923
aF1.153846153846154
aa(lp336
F0.6923076923076923
aF1.153846153846154
aF1.269230769230769
aa(lp337
F1.153846153846154
aF1.269230769230769
aF2.961538461538462
aa(lp338
F0.0
aF0.0576923076923077
aF0.1153846153846154
aa(lp339
F0.0576923076923077
aF0.1153846153846154
aF1.134615384615385
aa(lp340
F0.0
aF4.019230769230769
aF5.384615384615385
aa(lp341
F0.0
aF0.3461538461538461
aF1.019230769230769
aa(lp342
F0.3461538461538461
aF1.019230769230769
aF1.307692307692308
aa(lp343
F0.0
aF0.0576923076923077
aF2.038461538461538
aa(lp344
F0.0576923076923077
aF2.038461538461538
aF2.25
aa(lp345
F2.038461538461538
aF2.25
aF5.307692307692307
aa(lp346
F0.0
aF1.576923076923077
aF1.673076923076923
aa(lp347
F0.0
aF2.134615384615385
aF3.865384615384615
aa(lp348
F2.134615384615385
aF3.865384615384615
aF4.980769230769231
aa(lp349
F0.0
aF0.09615384615384616
aF0.1346153846153846
aa(lp350
F0.09615384615384616
aF0.1346153846153846
aF0.1923076923076923
aa(lp351
F0.0
aF0.07692307692307693
aF2.596153846153846
aa(lp352
F0.07692307692307693
aF2.596153846153846
aF3.576923076923077
aa(lp353
F0.0
aF1.942307692307692
aF2.096153846153846
aa(lp354
F0.0
aF0.4615384615384616
aF0.8461538461538461
aa(lp355
F0.4615384615384616
aF0.8461538461538461
aF1.192307692307692
aa(lp356
F0.8461538461538461
aF1.192307692307692
aF3.538461538461538
aa(lp357
F0.0
aF0.1153846153846154
aF0.1538461538461539
aa(lp358
F0.0
aF0.8076923076923077
aF2.365384615384615
aa(lp359
F0.0
aF1.5
aF3.0
aa(lp360
F1.5
aF3.0
aF3.25
aa(lp361
F0.0
aF1.134615384615385
aF3.288461538461538
aa(lp362
F1.134615384615385
aF3.288461538461538
aF4.326923076923077
aa(lp363
F3.288461538461538
aF4.326923076923077
aF4.538461538461538
aa(lp364
F0.0
aF0.4038461538461539
aF0.6153846153846154
aa(lp365
F0.4038461538461539
aF0.6153846153846154
aF4.230769230769231
aa(lp366
F0.0
aF0.25
aF1.365384615384615
aa(lp367
F0.0
aF0.01923076923076923
aF0.4423076923076923
aa(lp368
F0.01923076923076923
aF0.4423076923076923
aF0.5384615384615384
aa(lp369
F0.4423076923076923
aF0.5384615384615384
aF0.75
aa(lp370
F0.5384615384615384
aF0.75
aF1.423076923076923
aa(lp371
F0.0
aF2.788461538461538
aF2.903846153846154
aa(lp372
F0.0
aF0.25
aF3.423076923076923
aa(lp373
F0.0
aF0.09615384615384616
aF0.1153846153846154
aa(lp374
F0.0
aF0.3269230769230769
aF0.4038461538461539
aa(lp375
F0.0
aF2.5
aF2.557692307692307
aa(lp376
F2.5
aF2.557692307692307
aF2.596153846153846
aa(lp377
F2.557692307692307
aF2.596153846153846
aF2.653846153846154
aa(lp378
F0.0
aF0.07692307692307693
aF0.25
aa(lp379
F0.0
aF0.1730769230769231
aF0.1923076923076923
aa(lp380
F0.0
aF0.8461538461538461
aF1.769230769230769
aa(lp381
F0.8461538461538461
aF1.769230769230769
aF3.076923076923077
aa(lp382
F1.769230769230769
aF3.076923076923077
aF3.326923076923077
aa(lp383
F3.076923076923077
aF3.326923076923077
aF3.846153846153846
aa(lp384
F3.326923076923077
aF3.846153846153846
aF4.019230769230769
aa(lp385
F3.846153846153846
aF4.019230769230769
aF4.076923076923077
aa(lp386
F4.019230769230769
aF4.076923076923077
aF4.269230769230769
aa(lp387
F0.0
aF0.5384615384615384
aF1.076923076923077
aa(lp388
F0.0
aF1.423076923076923
aF1.634615384615385
aa(lp389
F1.423076923076923
aF1.634615384615385
aF1.884615384615385
aa(lp390
F0.0
aF0.07692307692307693
aF0.1538461538461539
aa(lp391
F0.07692307692307693
aF0.1538461538461539
aF0.2115384615384615
aa(lp392
F0.0
aF0.7115384615384616
aF1.153846153846154
aa(lp393
F0.7115384615384616
aF1.153846153846154
aF1.692307692307692
aa(lp394
F0.0
aF0.1538461538461539
aF0.6346153846153846
aa(lp395
F0.0
aF0.2307692307692308
aF1.923076923076923
aa(lp396
F0.2307692307692308
aF1.923076923076923
aF2.538461538461538
aa(lp397
F1.923076923076923
aF2.538461538461538
aF2.884615384615385
aa(lp398
F2.538461538461538
aF2.884615384615385
aF3.096153846153846
aa(lp399
F0.0
aF0.1346153846153846
aF0.5961538461538461
aa(lp400
F0.0
aF0.1538461538461539
aF0.1730769230769231
aa(lp401
F0.1538461538461539
aF0.1730769230769231
aF0.2115384615384615
aa(lp402
F0.1730769230769231
aF0.2115384615384615
aF0.3269230769230769
aa(lp403
F0.2115384615384615
aF0.3269230769230769
aF0.3461538461538461
aa(lp404
F0.0
aF0.4807692307692308
aF0.5961538461538461
aa(lp405
F0.4807692307692308
aF0.5961538461538461
aF0.6153846153846154
aa(lp406
F0.0
aF0.8461538461538461
aF1.326923076923077
aa(lp407
F0.8461538461538461
aF1.326923076923077
aF2.211538461538462
aa(lp408
F0.0
aF0.03846153846153846
aF0.09615384615384616
aa(lp409
F0.0
aF2.692307692307693
aF3.326923076923077
aa(lp410
F2.692307692307693
aF3.326923076923077
aF3.653846153846154
aa(lp411
F3.326923076923077
aF3.653846153846154
aF3.846153846153846
aa(lp412
F0.0
aF0.1153846153846154
aF0.1923076923076923
aa(lp413
F0.1153846153846154
aF0.1923076923076923
aF1.75
aa(lp414
F0.1923076923076923
aF1.75
aF1.788461538461539
aa(lp415
F0.0
aF0.03846153846153846
aF0.4615384615384616
aa(lp416
F0.03846153846153846
aF0.4615384615384616
aF0.6153846153846154
aa(lp417
F0.0
aF1.326923076923077
aF1.5
aa(lp418
F0.0
aF0.9615384615384616
aF1.153846153846154
aa(lp419
F0.9615384615384616
aF1.153846153846154
aF1.25
aa(lp420
F0.0
aF0.5769230769230769
aF0.7884615384615384
aa(lp421
F0.0
aF0.03846153846153846
aF0.2115384615384615
aa(lp422
F0.03846153846153846
aF0.2115384615384615
aF0.4423076923076923
aa(lp423
F0.2115384615384615
aF0.4423076923076923
aF0.5
aa(lp424
F0.4423076923076923
aF0.5
aF0.5384615384615384
aa(lp425
F0.5
aF0.5384615384615384
aF0.6346153846153846
aa(lp426
F0.5384615384615384
aF0.6346153846153846
aF0.6730769230769231
aa(lp427
F0.6346153846153846
aF0.6730769230769231
aF1.057692307692308
aa(lp428
F0.6730769230769231
aF1.057692307692308
aF1.134615384615385
aa(lp429
F0.0
aF0.8076923076923077
aF3.634615384615385
aa(lp430
F0.0
aF0.2115384615384615
aF2.096153846153846
aa(lp431
F0.0
aF0.03846153846153846
aF0.2307692307692308
aa(lp432
F0.0
aF0.7692307692307693
aF0.9807692307692307
aa(lp433
F0.7692307692307693
aF0.9807692307692307
aF1.096153846153846
aa(lp434
F0.9807692307692307
aF1.096153846153846
aF1.211538461538461
aa(lp435
F0.0
aF0.0576923076923077
aF0.09615384615384616
aa(lp436
F0.0
aF0.1923076923076923
aF0.5384615384615384
aa(lp437
F0.1923076923076923
aF0.5384615384615384
aF1.730769230769231
aa(lp438
F0.0
aF0.1346153846153846
aF0.1730769230769231
aa(lp439
F0.1346153846153846
aF0.1730769230769231
aF0.4038461538461539
aa(lp440
F0.1730769230769231
aF0.4038461538461539
aF0.7692307692307693
aa.