(lp0
F4.0
aF4.0
aF2.0
aF1.0
aF1.0
aF1.0
aF2.0
aF2.0
aF2.0
aF12.0
aF12.0
aF2.0
aF15.0
aF16.0
aF8.0
aF17.0
aF1.0
aF18.0
aF1.0
aF8.0
aF14.0
aF21.0
aF12.0
aF21.0
aF16.0
aF12.0
aF23.0
aF11.0
aF24.0
aF11.0
aF12.0
aF21.0
aF12.0
aF12.0
aF11.0
aF21.0
aF25.0
aF2.0
aF1.0
aF1.0
aF1.0
aF2.0
aF11.0
aF28.0
aF14.0
aF7.0
aF7.0
aF1.0
aF2.0
aF2.0
aF1.0
aF2.0
aF2.0
aF2.0
aF2.0
aF2.0
aF1.0
aF1.0
aF1.0
aF1.0
aF2.0
aF1.0
aF1.0
aF1.0
aF1.0
aF17.0
aF2.0
aF2.0
aF1.0
aF1.0
aF9.0
aF8.0
aF1.0
aF1.0
aF1.0
aF1.0
aF1.0
aF1.0
aF1.0
aF1.0
aF1.0
aF1.0
aF1.0
aF1.0
aF1.0
aF1.0
aF1.0
aF1.0
aF1.0
aF2.0
aF2.0
aF2.0
aF1.0
aF1.0
aF1.0
aF1.0
aF1.0
aF2.0
aF2.0
aF2.0
aF2.0
aF9.0
aF9.0
aF33.0
aF1.0
aF1.0
aF1.0
aF1.0
aF1.0
aF1.0
aF1.0
aF1.0
aF1.0
aF1.0
aF1.0
aF1.0
aF1.0
aF1.0
aF1.0
aF1.0
aF1.0
aF1.0
aF1.0
aF1.0
aF1.0
aF1.0
aF1.0
aF1.0
aF1.0
aF1.0
aF1.0
aF1.0
aF1.0
aF1.0
aF9.0
aF9.0
aF9.0
aF1.0
aF14.0
aF7.0
aF1.0
aF2.0
aF1.0
aF1.0
aF1.0
aF1.0
aF12.0
aF12.0
aF12.0
aF2.0
aF2.0
aF2.0
aF9.0
aF1.0
aF2.0
aF2.0
aF2.0
aF35.0
aF11.0
aF2.0
aF12.0
aF1.0
aF2.0
aF2.0
aF2.0
aF1.0
aF1.0
aF1.0
aF1.0
aF1.0
aF1.0
aF1.0
aF1.0
aF2.0
aF1.0
aF1.0
aF1.0
aF15.0
aF1.0
aF1.0
aF1.0
aF1.0
aF1.0
aF1.0
aF1.0
aF2.0
aF8.0
aF8.0
aF1.0
aF1.0
aF1.0
aF2.0
aF2.0
aF2.0
aF2.0
aF2.0
aF33.0
aF33.0
aF2.0
aF1.0
aF2.0
aF2.0
aF8.0
aF1.0
aF1.0
aF2.0
aF2.0
aF1.0
aF1.0
aF1.0
aF1.0
aF1.0
aF1.0
aF1.0
aF1.0
aF1.0
aF9.0
aF9.0
aF2.0
aF2.0
aF2.0
aF2.0
aF2.0
aF28.0
aF28.0
aF2.0
aF2.0
aF2.0
aF2.0
aF2.0
aF7.0
aF7.0
aF1.0
aF1.0
aF1.0
aF1.0
aF1.0
aF1.0
aF2.0
aF1.0
aF1.0
aF12.0
aF9.0
aF9.0
aF2.0
aF2.0
aF2.0
aF2.0
aF49.0
aF2.0
aF2.0
aF2.0
aF16.0
aF11.0
aF1.0
aF1.0
aF1.0
aF1.0
aF1.0
aF1.0
aF1.0
aF1.0
aF1.0
aF1.0
aF1.0
aF1.0
aF1.0
aF1.0
aF1.0
aF1.0
aF1.0
aF1.0
aF1.0
aF1.0
aF1.0
aF1.0
aF1.0
aF2.0
aF2.0
aF1.0
aF2.0
aF1.0
aF1.0
aF12.0
aF12.0
aF1.0
aF1.0
aF12.0
aF1.0
aF1.0
aF1.0
aF1.0
aF1.0
aF1.0
aF1.0
aF1.0
aF1.0
aF2.0
aF1.0
aF1.0
aF2.0
aF2.0
aF2.0
aF1.0
aF11.0
aF1.0
aF1.0
aF52.0
aF2.0
aF2.0
aF2.0
aF3.0
aF12.0
aF12.0
aF12.0
aF12.0
aF12.0
aF12.0
aF12.0
aF12.0
aF12.0
aF12.0
aF12.0
aF12.0
aF12.0
aF12.0
aF1.0
aF1.0
aF2.0
aF28.0
aF2.0
aF1.0
aF1.0
aF1.0
aF1.0
aF1.0
aF1.0
aF1.0
aF1.0
aF15.0
aF2.0
aF2.0
aF2.0
aF9.0
aF1.0
aF2.0
aF1.0
aF1.0
aF1.0
aF1.0
aF9.0
aF9.0
aF1.0
aF14.0
aF14.0
aF14.0
aF1.0
aF1.0
aF3.0
aF53.0
aF1.0
aF1.0
aF1.0
aF59.0
aF16.0
aF1.0
aF14.0
aF61.0
aF14.0
aF26.0
aF2.0
aF1.0
aF12.0
aF2.0
aF1.0
aF1.0
aF1.0
aF1.0
aF2.0
aF12.0
aF12.0
aF12.0
aF12.0
aF12.0
aF12.0
aF12.0
aF12.0
aF1.0
aF1.0
aF9.0
aF3.0
aF21.0
aF14.0
aF9.0
aF1.0
aF1.0
aF1.0
aF1.0
aF12.0
aF65.0
aF65.0
aF11.0
aF43.0
aF2.0
aF2.0
aF1.0
aF1.0
aF2.0
aF1.0
aF1.0
aF1.0
aF1.0
aF1.0
aF1.0
aF21.0
aF56.0
aF16.0
aF1.0
aF1.0
aF2.0
aF2.0
aF20.0
aF20.0
aF2.0
aF2.0
aF2.0
aF20.0
aF2.0
aF2.0
aF1.0
aF1.0
aF9.0
aF9.0
aF9.0
aF12.0
aF8.0
aF8.0
aF2.0
aF2.0
aF2.0
a.