(lp0
F3.596153846153846
aF3.9615384615384626
aF0.5192307692307693
aF1.173076923076923
aF2.211538461538462
aF1.846153846153846
aF1.75
aF0.3461538461538458
aF3.192307692307693
aF0.4807692307692308
aF0.13461538461538458
aF1.865384615384615
aF0.3076923076923077
aF3.192307692307693
aF2.5
aF2.134615384615384
aF0.7307692307692313
aF1.75
aF0.8461538461538461
aF1.230769230769231
aF0.4038461538461539
aF0.4615384615384615
aF0.5769230769230769
aF2.0
aF0.5
aF0.2115384615384615
aF0.17307692307692307
aF0.25
aF4.461538461538462
aF2.269230769230769
aF1.057692307692308
aF0.7884615384615388
aF0.2692307692307687
aF0.2115384615384615
aF3.230769230769231
aF3.576923076923077
aF3.2307692307692313
aF2.3269230769230766
aF0.5961538461538463
aF3.288461538461538
aF0.7115384615384616
aF3.307692307692307
aF0.23076923076923084
aF0.9423076923076923
aF0.7884615384615384
aF0.6923076923076923
aF0.6153846153846154
aF1.307692307692308
aF2.846153846153846
aF1.057692307692308
aF0.9230769230769227
aF0.6730769230769232
aF0.711538461538461
aF0.538461538461539
aF3.230769230769231
aF2.6923076923076925
aF0.8269230769230762
aF1.0384615384615383
aF0.6346153846153846
aF5.0
aF1.057692307692308
aF0.9615384615384616
aF1.326923076923077
aF2.25
aF0.365384615384615
aF0.5192307692307692
aF0.48076923076923084
aF2.865384615384615
aF3.0
aF2.403846153846154
aF1.346153846153847
aF1.596153846153846
aF3.076923076923077
aF1.711538461538461
aF3.480769230769231
aF0.942307692307693
aF0.3076923076923077
aF0.3461538461538462
aF0.9423076923076918
aF1.2692307692307694
aF1.346153846153846
aF1.807692307692308
aF2.038461538461538
aF0.8269230769230771
aF0.653846153846154
aF1.826923076923077
aF1.5769230769230762
aF1.384615384615385
aF0.5
aF0.5
aF0.40384615384615385
aF4.384615384615385
aF1.153846153846154
aF3.153846153846154
aF1.1153846153846159
aF1.326923076923078
aF1.3076923076923075
aF1.3846153846153837
aF0.3461538461538461
aF0.3653846153846154
aF1.307692307692308
aF0.7307692307692307
aF0.3653846153846154
aF3.5384615384615388
aF3.9230769230769234
aF0.6346153846153846
aF0.7115384615384615
aF1.134615384615385
aF0.48076923076923095
aF2.403846153846154
aF2.3846153846153846
aF0.4038461538461539
aF2.673076923076923
aF2.0192307692307687
aF2.557692307692308
aF0.3076923076923077
aF0.5961538461538461
aF0.8846153846153846
aF1.0
aF0.7115384615384618
aF0.7884615384615383
aF0.5192307692307693
aF0.8846153846153846
aF3.096153846153846
aF1.615384615384616
aF0.9038461538461539
aF1.038461538461539
aF2.269230769230769
aF0.4038461538461539
aF2.211538461538462
aF1.8076923076923077
aF0.4038461538461539
aF0.1923076923076924
aF0.5
aF4.519230769230769
a.