(lp0
(lp1
I15
aI16
aI15
aa(lp2
I16
aI15
aI15
aa(lp3
I1
aI1
aI1
aa(lp4
I2
aI1
aI1
aa(lp5
I1
aI1
aI1
aa(lp6
I1
aI1
aI1
aa(lp7
I1
aI1
aI1
aa(lp8
I1
aI1
aI1
aa(lp9
I12
aI1
aI1
aa(lp10
I1
aI1
aI1
aa(lp11
I1
aI1
aI1
aa(lp12
I26
aI26
aI26
aa(lp13
I2
aI2
aI2
aa(lp14
I14
aI67
aI14
aa(lp15
I2
aI2
aI2
aa(lp16
I2
aI2
aI2
aa(lp17
I2
aI2
aI2
aa(lp18
I2
aI1
aI1
aa(lp19
I11
aI8
aI8
aa(lp20
I68
aI58
aI68
aa(lp21
I1
aI1
aI1
aa(lp22
I1
aI1
aI1
aa(lp23
I1
aI1
aI1
aa(lp24
I9
aI9
aI9
aa(lp25
I11
aI15
aI15
aa(lp26
I2
aI2
aI12
aa(lp27
I2
aI12
aI2
aa(lp28
I12
aI2
aI2
aa(lp29
I11
aI1
aI1
aa(lp30
I1
aI1
aI1
aa(lp31
I1
aI1
aI1
aa(lp32
I1
aI1
aI1
aa(lp33
I1
aI1
aI1
aa(lp34
I2
aI2
aI2
aa(lp35
I1
aI1
aI1
aa(lp36
I1
aI1
aI1
aa(lp37
I1
aI1
aI1
aa(lp38
I1
aI1
aI1
aa(lp39
I1
aI1
aI1
aa(lp40
I1
aI1
aI1
aa(lp41
I1
aI1
aI1
aa(lp42
I1
aI1
aI1
aa(lp43
I1
aI1
aI1
aa(lp44
I12
aI12
aI12
aa(lp45
I1
aI1
aI2
aa(lp46
I1
aI2
aI1
aa(lp47
I2
aI2
aI7
aa(lp48
I70
aI12
aI9
aa(lp49
I14
aI2
aI2
aa(lp50
I14
aI26
aI26
aa(lp51
I26
aI26
aI26
aa(lp52
I26
aI26
aI14
aa(lp53
I26
aI14
aI26
aa(lp54
I14
aI26
aI26
aa(lp55
I1
aI20
aI1
aa(lp56
I20
aI1
aI1
aa(lp57
I1
aI1
aI1
aa(lp58
I1
aI1
aI1
aa(lp59
I71
aI71
aI72
aa(lp60
I1
aI1
aI1
aa(lp61
I33
aI17
aI33
aa(lp62
I12
aI12
aI12
aa(lp63
I1
aI1
aI1
aa(lp64
I1
aI1
aI1
aa(lp65
I1
aI1
aI1
aa(lp66
I1
aI1
aI1
aa(lp67
I1
aI1
aI1
aa(lp68
I1
aI1
aI1
aa(lp69
I1
aI1
aI1
aa(lp70
I1
aI9
aI1
aa(lp71
I9
aI1
aI1
aa(lp72
I1
aI1
aI1
aa(lp73
I11
aI14
aI11
aa(lp74
I1
aI1
aI1
aa(lp75
I9
aI9
aI9
aa(lp76
I9
aI9
aI12
aa(lp77
I1
aI1
aI1
aa(lp78
I1
aI1
aI1
aa(lp79
I1
aI1
aI1
aa(lp80
I1
aI1
aI1
aa(lp81
I1
aI1
aI1
aa(lp82
I16
aI16
aI16
aa(lp83
I7
aI7
aI12
aa(lp84
I7
aI12
aI12
aa(lp85
I12
aI12
aI12
aa(lp86
I43
aI16
aI16
aa(lp87
I16
aI16
aI38
aa(lp88
I1
aI1
aI1
aa(lp89
I14
aI12
aI12
aa(lp90
I12
aI12
aI12
aa(lp91
I12
aI12
aI12
aa(lp92
I12
aI1
aI1
aa(lp93
I2
aI2
aI2
aa(lp94
I15
aI2
aI2
aa(lp95
I2
aI2
aI2
aa(lp96
I2
aI2
aI2
aa(lp97
I2
aI2
aI2
aa(lp98
I2
aI2
aI2
aa(lp99
I2
aI2
aI2
aa(lp100
I1
aI1
aI1
aa(lp101
I17
aI11
aI7
aa(lp102
I1
aI1
aI1
aa(lp103
I1
aI1
aI1
aa(lp104
I1
aI1
aI1
aa(lp105
I1
aI1
aI1
aa(lp106
I19
aI19
aI19
aa(lp107
I19
aI19
aI19
aa(lp108
I15
aI15
aI15
aa(lp109
I15
aI15
aI15
aa(lp110
I1
aI1
aI1
aa(lp111
I1
aI1
aI1
aa(lp112
I26
aI26
aI26
aa(lp113
I2
aI2
aI1
aa(lp114
I2
aI1
aI2
aa(lp115
I1
aI2
aI1
aa(lp116
I9
aI9
aI9
aa(lp117
I1
aI1
aI1
aa(lp118
I1
aI1
aI1
aa(lp119
I1
aI1
aI1
aa(lp120
I1
aI1
aI1
aa(lp121
I1
aI1
aI1
aa(lp122
I1
aI1
aI1
aa(lp123
I9
aI9
aI9
aa(lp124
I9
aI9
aI2
aa(lp125
I9
aI2
aI2
aa(lp126
I2
aI2
aI2
aa(lp127
I1
aI1
aI1
aa(lp128
I2
aI9
aI2
aa(lp129
I2
aI2
aI2
aa(lp130
I3
aI3
aI3
aa(lp131
I3
aI3
aI3
aa(lp132
I1
aI1
aI1
aa(lp133
I1
aI1
aI1
aa(lp134
I1
aI1
aI1
aa(lp135
I9
aI27
aI9
aa.