(lp0
F0.048076923076922996
aF0.044230769230769296
aF0.0019230769230770051
aF0.0557692307692307
aF0.2865384615384616
aF0.007692307692307709
aF0.001923076923076919
aF0.009615384615384612
aF0.0019230769230769162
aF0.0038461538461538325
aF0.08076923076923079
aF0.14615384615384622
aF0.02115384615384608
aF0.011538461538461497
aF0.03461538461538457
aF0.009615384615384604
aF0.005769230769230793
aF0.015384615384615507
aF0.009615384615384604
aF0.005769230769230793
aF0.01346153846153846
aF0.05192307692307692
aF0.011538461538461543
aF0.040384615384615394
aF0.09423076923076919
aF0.021153846153846124
aF0.015384615384615507
aF0.0057692307692307045
aF0.011538461538461586
aF0.02884615384615379
aF0.025
aF0.0711538461538462
aF0.005769230769230837
aF0.026923076923076827
aF0.017307692307692336
aF0.013461538461538414
aF0.00769230769230769
aF0.04230769230769231
aF0.0076923076923076875
aF0.19038461538461537
aF0.06923076923076923
aF0.009615384615384614
aF0.09807692307692309
aF0.023076923076923106
aF0.1096153846153846
aF0.075
aF0.011538461538461497
aF0.03653846153846161
aF0.07307692307692305
aF0.030769230769230792
aF0.0211538461538461
aF0.0288461538461539
aF0.025
aF0.025
aF0.009615384615384581
aF0.017307692307692336
aF0.009615384615384581
aF0.0076923076923077986
aF0.025
aF0.015384615384615285
aF0.011538461538461631
aF0.02884615384615379
aF0.00576923076923066
aF0.06923076923076935
aF0.0365384615384615
aF0.0653846153846154
aF0.01153846153846152
aF0.007692307692307665
aF0.011538461538461497
aF0.007692307692307709
aF0.0076923076923076875
aF0.04807692307692305
aF0.02884615384615381
aF0.003846153846153838
aF0.003846153846153852
aF0.001923076923076919
aF0.03846153846153846
aF0.007692307692307698
aF0.0038461538461538438
aF0.017307692307692312
aF0.009615384615384581
aF0.017307692307692312
aF0.015384615384615396
aF0.040384615384615394
aF0.03461538461538458
aF0.021153846153846124
aF0.01346153846153859
aF0.013461538461538414
aF0.023076923076922995
aF0.0019230769230769162
aF0.0076923076923076875
aF0.025
aF0.005769230769230793
aF0.044230769230769205
aF0.0038461538461538993
aF0.05384615384615381
aF0.05192307692307687
aF0.01923076923076923
aF0.0019230769230769273
aF0.0769230769230769
aF0.059615384615384605
aF0.0942307692307692
aF0.02115384615384619
aF0.003846153846153849
aF0.00961538461538462
aF0.01346153846153846
aF0.0076923076923076875
aF0.009615384615384614
aF0.021153846153846155
aF0.0038461538461538438
aF0.02307692307692305
aF0.009615384615384604
aF0.0038461538461538993
aF0.0019230769230768941
aF0.05
aF0.0019230769230769162
aF0.0038461538461538993
aF0.08269230769230759
aF0.02115384615384621
aF0.03653846153846159
aF0.048076923076922996
aF0.04807692307692309
aF0.0038461538461539214
aF0.0038461538461538325
aF0.005769230769230749
aF0.0038461538461538325
aF0.007692307692307665
aF0.0038461538461539214
aF0.0019230769230769162
aF0.0038461538461539214
aF0.00576923076923066
aF0.00576923076923066
aF0.0019230769230770051
aF0.00961538461538467
aF0.021153846153846155
aF0.017307692307692347
aF0.14038461538461527
aF0.015384615384615418
aF0.051923076923076926
aF0.07692307692307696
aF0.011538461538461586
aF0.007692307692307693
aF0.017307692307692312
aF0.042307692307692324
aF0.0365384615384615
aF0.08846153846153851
aF0.013461538461538502
aF0.1557692307692308
aF0.1384615384615384
aF0.030769230769230705
aF0.09615384615384621
aF0.059615384615384445
aF0.025
aF0.023076923076923085
aF0.03653846153846161
aF0.011538461538461497
aF0.3288461538461539
aF0.013461538461538391
aF0.03269230769230771
aF0.06730769230769232
aF0.0365384615384615
aF0.1211538461538461
aF0.13846153846153847
aF0.01730769230769231
aF0.026923076923076928
aF0.0038461538461538104
aF0.1288461538461539
aF0.013461538461538414
aF0.03653846153846159
aF0.04615384615384608
aF0.005769230769230837
aF0.015384615384615285
aF0.01346153846153859
aF0.0057692307692307045
aF0.04038461538461541
aF0.0019230769230769162
aF0.025
aF0.007692307692307688
aF0.013461538461538464
aF0.005769230769230765
aF0.007692307692307698
aF0.08653846153846155
aF0.07884615384615379
aF0.07499999999999998
aF0.0288461538461539
aF0.026923076923076893
aF0.12884615384615378
aF0.08269230769230769
aF0.01538461538461538
aF0.10000000000000002
aF0.0076923076923076875
aF0.026923076923076893
aF0.22115384615384612
aF0.028846153846153744
aF0.040384615384615505
aF0.013461538461538414
aF0.27692307692307694
aF0.0942307692307693
aF0.10192307692307692
aF0.009615384615384692
aF0.011538461538461497
aF0.22115384615384617
aF0.03269230769230768
aF0.009615384615384604
aF0.007692307692307598
aF0.055769230769230835
aF0.10769230769230762
aF0.017307692307692312
aF0.01923076923076923
aF0.042307692307692324
aF0.0076923076923076875
aF0.017307692307692312
aF0.0038461538461537883
aF0.023076923076923106
aF0.0019230769230768941
aF0.04999999999999991
aF0.06923076923076923
aF0.03846153846153842
aF0.05576923076923079
aF0.0211538461538461
aF0.1423076923076924
aF0.0692307692307692
aF0.013461538461538414
aF0.015384615384615385
aF0.00576923076923076
aF0.01153846153846153
aF0.0038461538461538546
aF0.0211538461538461
aF0.0038461538461538993
aF0.0019230769230768941
aF0.019230769230769294
aF0.015384615384615418
aF0.021153846153846155
aF0.01153846153846153
aF0.001923076923076919
aF0.003846153846153852
aF0.0019230769230769273
aF0.0038461538461538993
aF0.05192307692307687
aF0.01923076923076934
aF0.009615384615384581
aF0.1307692307692308
aF0.005769230769230793
aF0.04807692307692304
aF0.05961538461538461
aF0.0038461538461538438
aF0.30192307692307685
aF0.0038461538461538325
aF0.251923076923077
aF0.015384615384615396
aF0.023076923076922995
aF0.030769230769230792
aF0.01730769230769231
aF0.015384615384615285
aF0.019230769230769253
aF0.0365384615384615
aF0.0019230769230768941
aF0.02115384615384619
aF0.0038461538461539214
aF0.019230769230769208
aF0.015384615384615285
aF0.01346153846153859
aF0.011538461538461409
aF0.025
aF0.009615384615384715
aF0.02115384615384608
aF0.009615384615384715
aF0.009615384615384493
aF0.0019230769230770051
aF0.007692307692307709
aF0.009615384615384581
aF0.0038461538461537883
aF0.0038461538461539214
aF0.007692307692307709
aF0.009615384615384581
aF0.025
aF0.01730769230769229
aF0.013461538461538414
aF0.011538461538461497
aF0.0076923076923077986
aF0.1057692307692308
aF0.12500000000000006
aF0.07307692307692311
aF0.009615384615384612
aF0.009615384615384637
aF0.015384615384615396
aF0.0346153846153846
aF0.011538461538461674
aF0.08653846153846154
aF0.011538461538461563
aF0.017307692307692312
aF0.01730769230769229
aF0.015384615384615396
aF0.0346153846153846
aF0.0038461538461538104
aF0.26153846153846144
aF0.06346153846153868
aF0.1326923076923077
aF0.201923076923077
aF0.14615384615384625
aF0.11538461538461542
aF0.0057692307692307045
aF0.015384615384615396
aF0.15769230769230771
aF0.049999999999999996
aF0.05384615384615392
aF0.0769230769230769
aF0.030769230769230816
aF0.017307692307692298
aF0.03461538461538462
aF0.021153846153846155
aF0.04038461538461541
aF0.0961538461538461
aF0.0038461538461538993
aF0.025
aF0.07307692307692311
aF0.0038461538461537883
aF0.005769230769230793
aF0.011538461538461497
aF0.0038461538461539214
aF0.009615384615384581
aF0.0057692307692307045
aF0.0038461538461539214
aF0.025
aF0.09615384615384608
aF0.028846153846153876
aF0.1846153846153846
aF0.24423076923076917
aF0.01346153846153847
aF0.04999999999999997
aF0.0076923076923075765
aF0.007692307692307704
aF0.023076923076923068
aF0.04615384615384617
aF0.011538461538461497
aF0.16923076923076932
aF0.09230769230769229
aF0.10192307692307696
aF0.0057692307692307045
aF0.0038461538461538325
aF0.0288461538461539
aF0.073076923076923
aF0.02115384615384621
aF0.3057692307692307
aF0.05769230769230784
aF0.038461538461538415
aF0.11153846153846159
aF0.0038461538461538325
aF0.005769230769230768
aF0.09423076923076927
aF0.09807692307692313
aF0.007692307692307709
aF0.03653846153846163
aF0.03461538461538459
aF0.2346153846153846
aF0.019230769230769294
aF0.00576923076923076
aF0.026923076923077004
aF0.025
aF0.13076923076923067
aF0.10384615384615388
aF0.02115384615384617
aF0.026923076923076827
aF0.36153846153846153
aF0.07884615384615383
aF0.005769230769230793
aF0.009615384615384614
aF0.021153846153846155
aF0.06730769230769229
aF0.009615384615384604
aF0.0038461538461538767
aF0.09807692307692313
aF0.07307692307692307
aF0.0019230769230769162
aF0.0038461538461538767
aF0.005769230769230837
aF0.019230769230769162
aF0.005769230769230771
aF0.0019230769230769219
aF0.1307692307692308
aF0.025
aF0.05192307692307687
aF0.017307692307692336
aF0.005769230769230749
aF0.019230769230769253
aF0.026923076923076918
aF0.009615384615384581
aF0.025
aF0.009615384615384604
aF0.00576923076923076
aF0.00961538461538462
aF0.05384615384615381
aF0.019230769230769294
aF0.43076923076923085
aF0.0615384615384615
aF0.034615384615384714
aF0.02115384615384608
aF0.015384615384615418
aF0.011538461538461543
aF0.0038461538461538407
aF0.011538461538461543
aF0.0019230769230769162
aF0.001923076923076933
aF0.0019230769230769273
aF0.31153846153846154
aF0.08846153846153851
aF0.02115384615384608
aF0.0076923076923076945
aF0.03269230769230771
aF0.019230769230769162
aF0.013461538461538502
aF0.15576923076923077
aF0.0038461538461538993
aF0.04999999999999989
aF0.01538461538461538
aF0.33653846153846156
aF0.12692307692307692
aF0.009615384615384604
aF0.0538461538461539
aF0.007692307692307698
aF0.023076923076923078
aF0.005769230769230771
aF0.0038461538461538438
aF0.009615384615384614
aF0.0038461538461538546
aF0.03846153846153848
aF0.007692307692307709
aF0.0038461538461537883
aF0.019230769230769208
aF0.08461538461538472
aF0.005769230769230757
aF0.01153846153846153
aF0.011538461538461497
aF0.017307692307692402
aF0.005769230769230775
aF0.11923076923076925
aF0.07115384615384619
aF0.02307692307692308
aF0.036538461538461534
aF0.051923076923076975
a.