(lp0
(lp1
I0
aF0.13269230769230772
aF0.125
aa(lp2
F0.13269230769230772
aF0.125
aF0.048076923076922996
aa(lp3
I0
aF0.15192307692307688
aF0.019230769230769208
aa(lp4
I0
aF0.1365384615384615
aF0.10961538461538471
aa(lp5
I0
aF0.09807692307692308
aF0.003846153846153821
aa(lp6
F0.09807692307692308
aF0.003846153846153821
aF0.2865384615384616
aa(lp7
I0
aF0.00576923076923077
aF0.00961538461538462
aa(lp8
F0.00576923076923077
aF0.00961538461538462
aF0.001923076923076919
aa(lp9
F0.00961538461538462
aF0.001923076923076919
aF0.009615384615384612
aa(lp10
I0
aF0.2519230769230769
aF0.16923076923076924
aa(lp11
I0
aF0.00576923076923077
aF0.06153846153846154
aa(lp12
I0
aF0.21923076923076928
aF0.073076923076923
aa(lp13
I0
aF0.044230769230769226
aF0.176923076923077
aa(lp14
F0.044230769230769226
aF0.176923076923077
aF0.02115384615384608
aa(lp15
I0
aF0.00576923076923077
aF0.07115384615384615
aa(lp16
F0.00576923076923077
aF0.07115384615384615
aF0.03461538461538457
aa(lp17
I0
aF0.05384615384615384
aF0.21346153846153845
aa(lp18
I0
aF0.007692307692307693
aF0.2961538461538461
aa(lp19
I0
aF0.03846153846153846
aF0.08846153846153844
aa(lp20
I0
aF0.1269230769230769
aF0.009615384615384604
aa(lp21
I0
aF0.01153846153846154
aF0.01153846153846154
aa(lp22
F0.01153846153846154
aF0.01153846153846154
aF0.01346153846153846
aa(lp23
F0.01153846153846154
aF0.01346153846153846
aF0.05192307692307692
aa(lp24
F0.01346153846153846
aF0.05192307692307692
aF0.011538461538461543
aa(lp25
F0.05192307692307692
aF0.011538461538461543
aF0.040384615384615394
aa(lp26
F0.011538461538461543
aF0.040384615384615394
aF0.09423076923076919
aa(lp27
F0.040384615384615394
aF0.09423076923076919
aF0.021153846153846124
aa(lp28
F0.09423076923076919
aF0.021153846153846124
aF0.015384615384615507
aa(lp29
F0.021153846153846124
aF0.015384615384615507
aF0.0057692307692307045
aa(lp30
F0.015384615384615507
aF0.0057692307692307045
aF0.011538461538461586
aa(lp31
F0.0057692307692307045
aF0.011538461538461586
aF0.02884615384615379
aa(lp32
F0.011538461538461586
aF0.02884615384615379
aF0.025
aa(lp33
F0.02884615384615379
aF0.025
aF0.0711538461538462
aa(lp34
F0.025
aF0.0711538461538462
aF0.005769230769230837
aa(lp35
F0.0711538461538462
aF0.005769230769230837
aF0.026923076923076827
aa(lp36
F0.005769230769230837
aF0.026923076923076827
aF0.017307692307692336
aa(lp37
I0
aF0.00576923076923077
aF0.011538461538461539
aa(lp38
I0
aF0.007692307692307693
aF0.013461538461538459
aa(lp39
I0
aF0.11538461538461539
aF0.0038461538461538104
aa(lp40
I0
aF0.075
aF0.03269230769230771
aa(lp41
I0
aF0.02115384615384615
aF0.025000000000000012
aa(lp42
I0
aF0.05384615384615384
aF0.021153846153846155
aa(lp43
I0
aF0.0038461538461538455
aF0.038461538461538464
aa(lp44
F0.0038461538461538455
aF0.038461538461538464
aF0.09807692307692309
aa(lp45
I0
aF0.01730769230769231
aF0.017307692307692298
aa(lp46
I0
aF0.05
aF0.1711538461538462
aa(lp47
F0.05
aF0.1711538461538462
aF0.075
aa(lp48
I0
aF0.009615384615384616
aF0.13269230769230766
aa(lp49
I0
aF0.007692307692307693
aF0.06346153846153846
aa(lp50
F0.007692307692307693
aF0.06346153846153846
aF0.07307692307692305
aa(lp51
F0.06346153846153846
aF0.07307692307692305
aF0.030769230769230792
aa(lp52
F0.07307692307692305
aF0.030769230769230792
aF0.0211538461538461
aa(lp53
F0.030769230769230792
aF0.0211538461538461
aF0.0288461538461539
aa(lp54
F0.0211538461538461
aF0.0288461538461539
aF0.025
aa(lp55
F0.0288461538461539
aF0.025
aF0.025
aa(lp56
F0.025
aF0.025
aF0.009615384615384581
aa(lp57
F0.025
aF0.009615384615384581
aF0.017307692307692336
aa(lp58
F0.009615384615384581
aF0.017307692307692336
aF0.009615384615384581
aa(lp59
F0.017307692307692336
aF0.009615384615384581
aF0.0076923076923077986
aa(lp60
F0.009615384615384581
aF0.0076923076923077986
aF0.025
aa(lp61
F0.0076923076923077986
aF0.025
aF0.015384615384615285
aa(lp62
F0.025
aF0.015384615384615285
aF0.011538461538461631
aa(lp63
F0.015384615384615285
aF0.011538461538461631
aF0.02884615384615379
aa(lp64
F0.011538461538461631
aF0.02884615384615379
aF0.00576923076923066
aa(lp65
F0.02884615384615379
aF0.00576923076923066
aF0.06923076923076935
aa(lp66
I0
aF0.009615384615384616
aF0.05576923076923077
aa(lp67
I0
aF0.1865384615384615
aF0.0038461538461538993
aa(lp68
F0.1865384615384615
aF0.0038461538461538993
aF0.01153846153846152
aa(lp69
I0
aF0.00576923076923077
aF0.26538461538461544
aa(lp70
F0.00576923076923077
aF0.26538461538461544
aF0.011538461538461497
aa(lp71
I0
aF0.051923076923076926
aF0.03461538461538462
aa(lp72
I0
aF0.09230769230769231
aF0.0038461538461538438
aa(lp73
I0
aF0.1288461538461539
aF0.044230769230769205
aa(lp74
I0
aF0.007692307692307693
aF0.007692307692307698
aa(lp75
F0.007692307692307693
aF0.007692307692307698
aF0.003846153846153838
aa(lp76
F0.007692307692307698
aF0.003846153846153838
aF0.003846153846153852
aa(lp77
F0.003846153846153838
aF0.003846153846153852
aF0.001923076923076919
aa(lp78
F0.003846153846153852
aF0.001923076923076919
aF0.03846153846153846
aa(lp79
F0.001923076923076919
aF0.03846153846153846
aF0.007692307692307698
aa(lp80
F0.03846153846153846
aF0.007692307692307698
aF0.0038461538461538438
aa(lp81
F0.007692307692307698
aF0.0038461538461538438
aF0.017307692307692312
aa(lp82
F0.0038461538461538438
aF0.017307692307692312
aF0.009615384615384581
aa(lp83
F0.017307692307692312
aF0.009615384615384581
aF0.017307692307692312
aa(lp84
F0.009615384615384581
aF0.017307692307692312
aF0.015384615384615396
aa(lp85
F0.017307692307692312
aF0.015384615384615396
aF0.040384615384615394
aa(lp86
F0.015384615384615396
aF0.040384615384615394
aF0.03461538461538458
aa(lp87
F0.040384615384615394
aF0.03461538461538458
aF0.021153846153846124
aa(lp88
F0.03461538461538458
aF0.021153846153846124
aF0.01346153846153859
aa(lp89
F0.021153846153846124
aF0.01346153846153859
aF0.013461538461538414
aa(lp90
I0
aF0.01730769230769231
aF0.019230769230769232
aa(lp91
I0
aF0.007692307692307693
aF0.06923076923076923
aa(lp92
I0
aF0.3134615384615385
aF0.10961538461538459
aa(lp93
I0
aF0.03461538461538461
aF0.0903846153846154
aa(lp94
F0.03461538461538461
aF0.0903846153846154
aF0.005769230769230793
aa(lp95
F0.0903846153846154
aF0.005769230769230793
aF0.044230769230769205
aa(lp96
F0.005769230769230793
aF0.044230769230769205
aF0.0038461538461538993
aa(lp97
F0.044230769230769205
aF0.0038461538461538993
aF0.05384615384615381
aa(lp98
I0
aF0.03846153846153846
aF0.03076923076923077
aa(lp99
I0
aF0.03653846153846154
aF0.036538461538461534
aa(lp100
F0.03653846153846154
aF0.036538461538461534
aF0.0019230769230769273
aa(lp101
F0.036538461538461534
aF0.0019230769230769273
aF0.0769230769230769
aa(lp102
I0
aF0.009615384615384616
aF0.09230769230769229
aa(lp103
F0.009615384615384616
aF0.09230769230769229
aF0.0942307692307692
aa(lp104
I0
aF0.00576923076923077
aF0.02692307692307692
aa(lp105
I0
aF0.009615384615384616
aF0.003846153846153845
aa(lp106
F0.009615384615384616
aF0.003846153846153845
aF0.00961538461538462
aa(lp107
F0.003846153846153845
aF0.00961538461538462
aF0.01346153846153846
aa(lp108
F0.00961538461538462
aF0.01346153846153846
aF0.0076923076923076875
aa(lp109
F0.01346153846153846
aF0.0076923076923076875
aF0.009615384615384614
aa(lp110
F0.0076923076923076875
aF0.009615384615384614
aF0.021153846153846155
aa(lp111
F0.009615384615384614
aF0.021153846153846155
aF0.0038461538461538438
aa(lp112
F0.021153846153846155
aF0.0038461538461538438
aF0.02307692307692305
aa(lp113
F0.0038461538461538438
aF0.02307692307692305
aF0.009615384615384604
aa(lp114
F0.02307692307692305
aF0.009615384615384604
aF0.0038461538461538993
aa(lp115
F0.009615384615384604
aF0.0038461538461538993
aF0.0019230769230768941
aa(lp116
F0.0038461538461538993
aF0.0019230769230768941
aF0.05
aa(lp117
F0.0019230769230768941
aF0.05
aF0.0019230769230769162
aa(lp118
F0.05
aF0.0019230769230769162
aF0.0038461538461538993
aa(lp119
F0.0019230769230769162
aF0.0038461538461538993
aF0.08269230769230759
aa(lp120
F0.0038461538461538993
aF0.08269230769230759
aF0.02115384615384621
aa(lp121
F0.08269230769230759
aF0.02115384615384621
aF0.03653846153846159
aa(lp122
F0.02115384615384621
aF0.03653846153846159
aF0.048076923076922996
aa(lp123
F0.03653846153846159
aF0.048076923076922996
aF0.04807692307692309
aa(lp124
F0.048076923076922996
aF0.04807692307692309
aF0.0038461538461539214
aa(lp125
F0.04807692307692309
aF0.0038461538461539214
aF0.0038461538461538325
aa(lp126
F0.0038461538461539214
aF0.0038461538461538325
aF0.005769230769230749
aa(lp127
F0.0038461538461538325
aF0.005769230769230749
aF0.0038461538461538325
aa(lp128
F0.005769230769230749
aF0.0038461538461538325
aF0.007692307692307665
aa(lp129
F0.0038461538461538325
aF0.007692307692307665
aF0.0038461538461539214
aa(lp130
F0.007692307692307665
aF0.0038461538461539214
aF0.0019230769230769162
aa(lp131
F0.0038461538461539214
aF0.0019230769230769162
aF0.0038461538461539214
aa(lp132
F0.0019230769230769162
aF0.0038461538461539214
aF0.00576923076923066
aa(lp133
F0.0038461538461539214
aF0.00576923076923066
aF0.00576923076923066
aa(lp134
F0.00576923076923066
aF0.00576923076923066
aF0.0019230769230770051
aa(lp135
I0
aF0.06538461538461539
aF0.009615384615384614
aa(lp136
F0.06538461538461539
aF0.009615384615384614
aF0.021153846153846155
aa(lp137
F0.009615384615384614
aF0.021153846153846155
aF0.017307692307692347
aa(lp138
I0
aF0.1692307692307692
aF0.16538461538461538
aa(lp139
I0
aF0.009615384615384616
aF0.009615384615384612
aa(lp140
F0.009615384615384616
aF0.009615384615384612
aF0.051923076923076926
aa(lp141
I0
aF0.3
aF0.0057692307692307045
aa(lp142
I0
aF0.01923076923076923
aF0.023076923076923078
aa(lp143
I0
aF0.02115384615384615
aF0.036538461538461534
aa(lp144
I0
aF0.05769230769230769
aF0.007692307692307698
aa(lp145
I0
aF0.2326923076923077
aF0.015384615384615375
aa(lp146
F0.2326923076923077
aF0.015384615384615375
aF0.0365384615384615
aa(lp147
I0
aF0.01153846153846154
aF0.21346153846153845
aa(lp148
F0.01153846153846154
aF0.21346153846153845
aF0.013461538461538502
aa(lp149
I0
aF0.0019230769230769227
aF0.0057692307692307696
aa(lp150
I0
aF0.2538461538461538
aF0.015384615384615507
aa(lp151
F0.2538461538461538
aF0.015384615384615507
aF0.030769230769230705
aa(lp152
F0.015384615384615507
aF0.030769230769230705
aF0.09615384615384621
aa(lp153
I0
aF0.0019230769230769227
aF0.0057692307692307696
aa(lp154
I0
aF0.01538461538461539
aF0.3153846153846153
aa(lp155
I0
aF0.1211538461538461
aF0.015384615384615396
aa(lp156
F0.1211538461538461
aF0.015384615384615396
aF0.03653846153846161
aa(lp157
I0
aF0.028846153846153837
aF0.011538461538461553
aa(lp158
I0
aF0.07884615384615384
aF0.05961538461538466
aa(lp159
I0
aF0.02115384615384615
aF0.11923076923076925
aa(lp160
F0.02115384615384615
aF0.11923076923076925
aF0.03269230769230771
aa(lp161
I0
aF0.051923076923076926
aF0.06153846153846158
aa(lp162
I0
aF0.01153846153846154
aF0.013461538461538459
aa(lp163
I0
aF0.025
aF0.028846153846153844
aa(lp164
I0
aF0.044230769230769226
aF0.003846153846153849
aa(lp165
F0.044230769230769226
aF0.003846153846153849
aF0.01730769230769231
aa(lp166
I0
aF0.01730769230769231
aF0.08846153846153848
aa(lp167
F0.01730769230769231
aF0.08846153846153848
aF0.0038461538461538104
aa(lp168
F0.08846153846153848
aF0.0038461538461538104
aF0.1288461538461539
aa(lp169
F0.0038461538461538104
aF0.1288461538461539
aF0.013461538461538414
aa(lp170
F0.1288461538461539
aF0.013461538461538414
aF0.03653846153846159
aa(lp171
F0.013461538461538414
aF0.03653846153846159
aF0.04615384615384608
aa(lp172
F0.03653846153846159
aF0.04615384615384608
aF0.005769230769230837
aa(lp173
F0.04615384615384608
aF0.005769230769230837
aF0.015384615384615285
aa(lp174
F0.005769230769230837
aF0.015384615384615285
aF0.01346153846153859
aa(lp175
I0
aF0.07692307692307693
aF0.013461538461538459
aa(lp176
I0
aF0.0038461538461538455
aF0.23076923076923075
aa(lp177
F0.0038461538461538455
aF0.23076923076923075
aF0.0019230769230769162
aa(lp178
I0
aF0.0038461538461538455
aF0.007692307692307695
aa(lp179
F0.0038461538461538455
aF0.007692307692307695
aF0.007692307692307688
aa(lp180
F0.007692307692307695
aF0.007692307692307688
aF0.013461538461538464
aa(lp181
I0
aF0.03653846153846154
aF0.05192307692307692
aa(lp182
F0.03653846153846154
aF0.05192307692307692
aF0.007692307692307698
aa(lp183
F0.05192307692307692
aF0.007692307692307698
aF0.08653846153846155
aa(lp184
I0
aF0.08269230769230769
aF0.011538461538461543
aa(lp185
F0.08269230769230769
aF0.011538461538461543
aF0.07499999999999998
aa(lp186
I0
aF0.09423076923076923
aF0.00961538461538467
aa(lp187
I0
aF0.00576923076923077
aF0.011538461538461539
aa(lp188
F0.00576923076923077
aF0.011538461538461539
aF0.12884615384615378
aa(lp189
I0
aF0.03653846153846154
aF0.005769230769230765
aa(lp190
F0.03653846153846154
aF0.005769230769230765
aF0.01538461538461538
aa(lp191
F0.005769230769230765
aF0.01538461538461538
aF0.10000000000000002
aa(lp192
I0
aF0.1461538461538461
aF0.0076923076923077986
aa(lp193
F0.1461538461538461
aF0.0076923076923077986
aF0.026923076923076893
aa(lp194
F0.0076923076923077986
aF0.026923076923076893
aF0.22115384615384612
aa(lp195
F0.026923076923076893
aF0.22115384615384612
aF0.028846153846153744
aa(lp196
F0.22115384615384612
aF0.028846153846153744
aF0.040384615384615505
aa(lp197
I0
aF0.07884615384615384
aF0.02307692307692305
aa(lp198
F0.07884615384615384
aF0.02307692307692305
aF0.27692307692307694
aa(lp199
I0
aF0.1134615384615385
aF0.20192307692307693
aa(lp200
I0
aF0.1134615384615385
aF0.0326923076923076
aa(lp201
I0
aF0.11923076923076921
aF0.015384615384615396
aa(lp202
F0.11923076923076921
aF0.015384615384615396
aF0.011538461538461497
aa(lp203
I0
aF0.009615384615384616
aF0.030769230769230778
aa(lp204
I0
aF0.05
aF0.1288461538461539
aa(lp205
F0.05
aF0.1288461538461539
aF0.009615384615384604
aa(lp206
I0
aF0.1865384615384615
aF0.14807692307692308
aa(lp207
I0
aF0.06730769230769232
aF0.03076923076923076
aa(lp208
I0
aF0.01923076923076923
aF0.03461538461538462
aa(lp209
F0.01923076923076923
aF0.03461538461538462
aF0.017307692307692312
aa(lp210
F0.03461538461538462
aF0.017307692307692312
aF0.01923076923076923
aa(lp211
F0.017307692307692312
aF0.01923076923076923
aF0.042307692307692324
aa(lp212
F0.01923076923076923
aF0.042307692307692324
aF0.0076923076923076875
aa(lp213
F0.042307692307692324
aF0.0076923076923076875
aF0.017307692307692312
aa(lp214
I0
aF0.1134615384615385
aF0.01730769230769229
aa(lp215
F0.1134615384615385
aF0.01730769230769229
aF0.023076923076923106
aa(lp216
F0.01730769230769229
aF0.023076923076923106
aF0.0019230769230768941
aa(lp217
I0
aF0.01730769230769231
aF0.011538461538461529
aa(lp218
F0.01730769230769231
aF0.011538461538461529
aF0.06923076923076923
aa(lp219
F0.011538461538461529
aF0.06923076923076923
aF0.03846153846153842
aa(lp220
I0
aF0.01730769230769231
aF0.13846153846153847
aa(lp221
F0.01730769230769231
aF0.13846153846153847
aF0.0211538461538461
aa(lp222
F0.13846153846153847
aF0.0211538461538461
aF0.1423076923076924
aa(lp223
F0.0211538461538461
aF0.1423076923076924
aF0.0692307692307692
aa(lp224
I0
aF0.040384615384615394
aF0.011538461538461536
aa(lp225
F0.040384615384615394
aF0.011538461538461536
aF0.015384615384615385
aa(lp226
I0
aF0.00576923076923077
aF0.046153846153846156
aa(lp227
F0.00576923076923077
aF0.046153846153846156
aF0.01153846153846153
aa(lp228
I0
aF0.10769230769230771
aF0.005769230769230793
aa(lp229
F0.10769230769230771
aF0.005769230769230793
aF0.0211538461538461
aa(lp230
F0.005769230769230793
aF0.0211538461538461
aF0.0038461538461538993
aa(lp231
I0
aF0.3788461538461538
aF0.0019230769230769162
aa(lp232
F0.3788461538461538
aF0.0019230769230769162
aF0.019230769230769294
aa(lp233
I0
aF0.0038461538461538455
aF0.051923076923076926
aa(lp234
F0.0038461538461538455
aF0.051923076923076926
aF0.021153846153846155
aa(lp235
I0
aF0.01153846153846154
aF0.0057692307692307696
aa(lp236
F0.01153846153846154
aF0.0057692307692307696
aF0.001923076923076919
aa(lp237
I0
aF0.01346153846153846
aF0.04038461538461539
aa(lp238
I0
aF0.04615384615384616
aF0.13076923076923072
aa(lp239
I0
aF0.08269230769230769
aF0.011538461538461543
aa(lp240
I0
aF0.2
aF0.20576923076923065
aa(lp241
F0.2
aF0.20576923076923065
aF0.01923076923076934
aa(lp242
I0
aF0.03076923076923077
aF0.08076923076923073
aa(lp243
F0.03076923076923077
aF0.08076923076923073
aF0.1307692307692308
aa(lp244
I0
aF0.0038461538461538455
aF0.3653846153846155
aa(lp245
I0
aF0.01153846153846154
aF0.013461538461538459
aa(lp246
F0.01153846153846154
aF0.013461538461538459
aF0.05961538461538461
aa(lp247
I0
aF0.1384615384615385
aF0.01730769230769229
aa(lp248
F0.1384615384615385
aF0.01730769230769229
aF0.30192307692307685
aa(lp249
I0
aF0.028846153846153837
aF0.10769230769230767
aa(lp250
I0
aF0.1634615384615385
aF0.009615384615384604
aa(lp251
F0.1634615384615385
aF0.009615384615384604
aF0.015384615384615396
aa(lp252
F0.009615384615384604
aF0.015384615384615396
aF0.023076923076922995
aa(lp253
I0
aF0.007692307692307693
aF0.04038461538461539
aa(lp254
I0
aF0.0019230769230769227
aF0.39230769230769236
aa(lp255
I0
aF0.08076923076923077
aF0.005769230769230771
aa(lp256
I0
aF0.01730769230769231
aF0.14038461538461539
aa(lp257
F0.01730769230769231
aF0.14038461538461539
aF0.0365384615384615
aa(lp258
F0.14038461538461539
aF0.0365384615384615
aF0.0019230769230768941
aa(lp259
F0.0365384615384615
aF0.0019230769230768941
aF0.02115384615384619
aa(lp260
F0.0019230769230768941
aF0.02115384615384619
aF0.0038461538461539214
aa(lp261
F0.02115384615384619
aF0.0038461538461539214
aF0.019230769230769208
aa(lp262
F0.0038461538461539214
aF0.019230769230769208
aF0.015384615384615285
aa(lp263
F0.019230769230769208
aF0.015384615384615285
aF0.01346153846153859
aa(lp264
F0.015384615384615285
aF0.01346153846153859
aF0.011538461538461409
aa(lp265
F0.01346153846153859
aF0.011538461538461409
aF0.025
aa(lp266
F0.011538461538461409
aF0.025
aF0.009615384615384715
aa(lp267
F0.025
aF0.009615384615384715
aF0.02115384615384608
aa(lp268
F0.009615384615384715
aF0.02115384615384608
aF0.009615384615384715
aa(lp269
F0.02115384615384608
aF0.009615384615384715
aF0.009615384615384493
aa(lp270
F0.009615384615384715
aF0.009615384615384493
aF0.0019230769230770051
aa(lp271
F0.009615384615384493
aF0.0019230769230770051
aF0.007692307692307709
aa(lp272
F0.0019230769230770051
aF0.007692307692307709
aF0.009615384615384581
aa(lp273
F0.007692307692307709
aF0.009615384615384581
aF0.0038461538461537883
aa(lp274
F0.009615384615384581
aF0.0038461538461537883
aF0.0038461538461539214
aa(lp275
F0.0038461538461537883
aF0.0038461538461539214
aF0.007692307692307709
aa(lp276
F0.0038461538461539214
aF0.007692307692307709
aF0.009615384615384581
aa(lp277
I0
aF0.07307692307692307
aF0.09038461538461542
aa(lp278
F0.07307692307692307
aF0.09038461538461542
aF0.01730769230769229
aa(lp279
F0.09038461538461542
aF0.01730769230769229
aF0.013461538461538414
aa(lp280
F0.01730769230769229
aF0.013461538461538414
aF0.011538461538461497
aa(lp281
F0.013461538461538414
aF0.011538461538461497
aF0.0076923076923077986
aa(lp282
F0.011538461538461497
aF0.0076923076923077986
aF0.1057692307692308
aa(lp283
I0
aF0.040384615384615394
aF0.0653846153846154
aa(lp284
I0
aF0.0038461538461538455
aF0.00576923076923077
aa(lp285
I0
aF0.08076923076923077
aF0.015384615384615385
aa(lp286
I0
aF0.02115384615384615
aF0.11923076923076925
aa(lp287
F0.02115384615384615
aF0.11923076923076925
aF0.015384615384615396
aa(lp288
I0
aF0.3884615384615385
aF0.04230769230769216
aa(lp289
I0
aF0.0038461538461538455
aF0.0038461538461538472
aa(lp290
F0.0038461538461538455
aF0.0038461538461538472
aF0.08653846153846154
aa(lp291
F0.0038461538461538472
aF0.08653846153846154
aF0.011538461538461563
aa(lp292
F0.08653846153846154
aF0.011538461538461563
aF0.017307692307692312
aa(lp293
F0.011538461538461563
aF0.017307692307692312
aF0.01730769230769229
aa(lp294
F0.017307692307692312
aF0.01730769230769229
aF0.015384615384615396
aa(lp295
F0.01730769230769229
aF0.015384615384615396
aF0.0346153846153846
aa(lp296
F0.015384615384615396
aF0.0346153846153846
aF0.0038461538461538104
aa(lp297
F0.0346153846153846
aF0.0038461538461538104
aF0.26153846153846144
aa(lp298
I0
aF0.02692307692307692
aF0.1442307692307692
aa(lp299
I0
aF0.01730769230769231
aF0.12884615384615378
aa(lp300
F0.01730769230769231
aF0.12884615384615378
aF0.201923076923077
aa(lp301
I0
aF0.08846153846153845
aF0.017307692307692336
aa(lp302
I0
aF0.1115384615384615
aF0.0038461538461538993
aa(lp303
F0.1115384615384615
aF0.0038461538461538993
aF0.0057692307692307045
aa(lp304
I0
aF0.0038461538461538455
aF0.0038461538461538472
aa(lp305
I0
aF0.01153846153846154
aF0.036538461538461534
aa(lp306
I0
aF0.02307692307692308
aF0.14423076923076922
aa(lp307
I0
aF0.01153846153846154
aF0.013461538461538459
aa(lp308
F0.01153846153846154
aF0.013461538461538459
aF0.0769230769230769
aa(lp309
I0
aF0.007692307692307693
aF0.009615384615384618
aa(lp310
F0.007692307692307693
aF0.009615384615384618
aF0.017307692307692298
aa(lp311
F0.009615384615384618
aF0.017307692307692298
aF0.03461538461538462
aa(lp312
F0.017307692307692298
aF0.03461538461538462
aF0.021153846153846155
aa(lp313
I0
aF0.0038461538461538455
aF0.011538461538461544
aa(lp314
F0.0038461538461538455
aF0.011538461538461544
aF0.0961538461538461
aa(lp315
F0.011538461538461544
aF0.0961538461538461
aF0.0038461538461538993
aa(lp316
F0.0961538461538461
aF0.0038461538461538993
aF0.025
aa(lp317
F0.0038461538461538993
aF0.025
aF0.07307692307692311
aa(lp318
F0.025
aF0.07307692307692311
aF0.0038461538461537883
aa(lp319
F0.07307692307692311
aF0.0038461538461537883
aF0.005769230769230793
aa(lp320
F0.0038461538461537883
aF0.005769230769230793
aF0.011538461538461497
aa(lp321
F0.005769230769230793
aF0.011538461538461497
aF0.0038461538461539214
aa(lp322
F0.011538461538461497
aF0.0038461538461539214
aF0.009615384615384581
aa(lp323
F0.0038461538461539214
aF0.009615384615384581
aF0.0057692307692307045
aa(lp324
F0.009615384615384581
aF0.0057692307692307045
aF0.0038461538461539214
aa(lp325
F0.0057692307692307045
aF0.0038461538461539214
aF0.025
aa(lp326
F0.0038461538461539214
aF0.025
aF0.09615384615384608
aa(lp327
I0
aF0.07692307692307693
aF0.04615384615384618
aa(lp328
I0
aF0.14423076923076922
aF0.0711538461538462
aa(lp329
I0
aF0.032692307692307694
aF0.005769230769230765
aa(lp330
F0.032692307692307694
aF0.005769230769230765
aF0.01346153846153847
aa(lp331
I0
aF0.08461538461538462
aF0.2615384615384616
aa(lp332
I0
aF0.01923076923076923
aF0.01923076923076923
aa(lp333
F0.01923076923076923
aF0.01923076923076923
aF0.007692307692307704
aa(lp334
F0.01923076923076923
aF0.007692307692307704
aF0.023076923076923068
aa(lp335
F0.007692307692307704
aF0.023076923076923068
aF0.04615384615384617
aa(lp336
F0.023076923076923068
aF0.04615384615384617
aF0.011538461538461497
aa(lp337
F0.04615384615384617
aF0.011538461538461497
aF0.16923076923076932
aa(lp338
I0
aF0.00576923076923077
aF0.00576923076923077
aa(lp339
F0.00576923076923077
aF0.00576923076923077
aF0.10192307692307696
aa(lp340
I0
aF0.40192307692307694
aF0.13653846153846158
aa(lp341
I0
aF0.03461538461538461
aF0.06730769230769229
aa(lp342
F0.03461538461538461
aF0.06730769230769229
aF0.0288461538461539
aa(lp343
I0
aF0.00576923076923077
aF0.198076923076923
aa(lp344
F0.00576923076923077
aF0.198076923076923
aF0.02115384615384621
aa(lp345
F0.198076923076923
aF0.02115384615384621
aF0.3057692307692307
aa(lp346
I0
aF0.15769230769230771
aF0.009615384615384581
aa(lp347
I0
aF0.2134615384615385
aF0.173076923076923
aa(lp348
F0.2134615384615385
aF0.173076923076923
aF0.11153846153846159
aa(lp349
I0
aF0.009615384615384616
aF0.003846153846153845
aa(lp350
F0.009615384615384616
aF0.003846153846153845
aF0.005769230769230768
aa(lp351
I0
aF0.007692307692307693
aF0.25192307692307686
aa(lp352
F0.007692307692307693
aF0.25192307692307686
aF0.09807692307692313
aa(lp353
I0
aF0.1942307692307692
aF0.015384615384615375
aa(lp354
I0
aF0.04615384615384616
aF0.03846153846153845
aa(lp355
F0.04615384615384616
aF0.03846153846153845
aF0.03461538461538459
aa(lp356
F0.03846153846153845
aF0.03461538461538459
aF0.2346153846153846
aa(lp357
I0
aF0.01153846153846154
aF0.0038461538461538507
aa(lp358
I0
aF0.08076923076923077
aF0.15576923076923072
aa(lp359
I0
aF0.15
aF0.15
aa(lp360
F0.15
aF0.15
aF0.025
aa(lp361
I0
aF0.1134615384615385
aF0.21538461538461529
aa(lp362
F0.1134615384615385
aF0.21538461538461529
aF0.10384615384615388
aa(lp363
F0.21538461538461529
aF0.10384615384615388
aF0.02115384615384617
aa(lp364
I0
aF0.040384615384615394
aF0.02115384615384615
aa(lp365
F0.040384615384615394
aF0.02115384615384615
aF0.36153846153846153
aa(lp366
I0
aF0.025
aF0.1115384615384615
aa(lp367
I0
aF0.0019230769230769227
aF0.04230769230769231
aa(lp368
F0.0019230769230769227
aF0.04230769230769231
aF0.009615384615384614
aa(lp369
F0.04230769230769231
aF0.009615384615384614
aF0.021153846153846155
aa(lp370
F0.009615384615384614
aF0.021153846153846155
aF0.06730769230769229
aa(lp371
I0
aF0.2788461538461538
aF0.011538461538461631
aa(lp372
I0
aF0.025
aF0.3173076923076923
aa(lp373
I0
aF0.009615384615384616
aF0.0019230769230769245
aa(lp374
I0
aF0.032692307692307694
aF0.007692307692307698
aa(lp375
I0
aF0.25
aF0.0057692307692307045
aa(lp376
F0.25
aF0.0057692307692307045
aF0.0038461538461538767
aa(lp377
F0.0057692307692307045
aF0.0038461538461538767
aF0.005769230769230837
aa(lp378
I0
aF0.007692307692307693
aF0.01730769230769231
aa(lp379
I0
aF0.01730769230769231
aF0.001923076923076919
aa(lp380
I0
aF0.08461538461538462
aF0.09230769230769229
aa(lp381
F0.08461538461538462
aF0.09230769230769229
aF0.1307692307692308
aa(lp382
F0.09230769230769229
aF0.1307692307692308
aF0.025
aa(lp383
F0.1307692307692308
aF0.025
aF0.05192307692307687
aa(lp384
F0.025
aF0.05192307692307687
aF0.017307692307692336
aa(lp385
F0.05192307692307687
aF0.017307692307692336
aF0.005769230769230749
aa(lp386
F0.017307692307692336
aF0.005769230769230749
aF0.019230769230769253
aa(lp387
I0
aF0.05384615384615384
aF0.05384615384615386
aa(lp388
I0
aF0.1423076923076923
aF0.02115384615384621
aa(lp389
F0.1423076923076923
aF0.02115384615384621
aF0.025
aa(lp390
I0
aF0.007692307692307693
aF0.007692307692307698
aa(lp391
F0.007692307692307693
aF0.007692307692307698
aF0.00576923076923076
aa(lp392
I0
aF0.07115384615384615
aF0.04423076923076924
aa(lp393
F0.07115384615384615
aF0.04423076923076924
aF0.05384615384615381
aa(lp394
I0
aF0.01538461538461539
aF0.048076923076923066
aa(lp395
I0
aF0.02307692307692308
aF0.1692307692307692
aa(lp396
F0.02307692307692308
aF0.1692307692307692
aF0.0615384615384615
aa(lp397
F0.1692307692307692
aF0.0615384615384615
aF0.034615384615384714
aa(lp398
F0.0615384615384615
aF0.034615384615384714
aF0.02115384615384608
aa(lp399
I0
aF0.01346153846153846
aF0.046153846153846156
aa(lp400
I0
aF0.01538461538461539
aF0.001923076923076919
aa(lp401
F0.01538461538461539
aF0.001923076923076919
aF0.0038461538461538407
aa(lp402
F0.001923076923076919
aF0.0038461538461538407
aF0.011538461538461543
aa(lp403
F0.0038461538461538407
aF0.011538461538461543
aF0.0019230769230769162
aa(lp404
I0
aF0.04807692307692308
aF0.011538461538461536
aa(lp405
F0.04807692307692308
aF0.011538461538461536
aF0.0019230769230769273
aa(lp406
I0
aF0.08461538461538462
aF0.048076923076923093
aa(lp407
F0.08461538461538462
aF0.048076923076923093
aF0.08846153846153851
aa(lp408
I0
aF0.0038461538461538455
aF0.00576923076923077
aa(lp409
I0
aF0.2692307692307693
aF0.06346153846153842
aa(lp410
F0.2692307692307693
aF0.06346153846153842
aF0.03269230769230771
aa(lp411
F0.06346153846153842
aF0.03269230769230771
aF0.019230769230769162
aa(lp412
I0
aF0.01153846153846154
aF0.007692307692307688
aa(lp413
F0.01153846153846154
aF0.007692307692307688
aF0.15576923076923077
aa(lp414
F0.007692307692307688
aF0.15576923076923077
aF0.0038461538461538993
aa(lp415
I0
aF0.0038461538461538455
aF0.04230769230769232
aa(lp416
F0.0038461538461538455
aF0.04230769230769232
aF0.01538461538461538
aa(lp417
I0
aF0.13269230769230772
aF0.01730769230769229
aa(lp418
I0
aF0.09615384615384616
aF0.01923076923076924
aa(lp419
F0.09615384615384616
aF0.01923076923076924
aF0.009615384615384604
aa(lp420
I0
aF0.05769230769230769
aF0.021153846153846155
aa(lp421
I0
aF0.0038461538461538455
aF0.017307692307692305
aa(lp422
F0.0038461538461538455
aF0.017307692307692305
aF0.023076923076923078
aa(lp423
F0.017307692307692305
aF0.023076923076923078
aF0.005769230769230771
aa(lp424
F0.023076923076923078
aF0.005769230769230771
aF0.0038461538461538438
aa(lp425
F0.005769230769230771
aF0.0038461538461538438
aF0.009615384615384614
aa(lp426
F0.0038461538461538438
aF0.009615384615384614
aF0.0038461538461538546
aa(lp427
F0.009615384615384614
aF0.0038461538461538546
aF0.03846153846153848
aa(lp428
F0.0038461538461538546
aF0.03846153846153848
aF0.007692307692307709
aa(lp429
I0
aF0.08076923076923077
aF0.28269230769230774
aa(lp430
I0
aF0.02115384615384615
aF0.18846153846153843
aa(lp431
I0
aF0.0038461538461538455
aF0.019230769230769235
aa(lp432
I0
aF0.07692307692307693
aF0.021153846153846145
aa(lp433
F0.07692307692307693
aF0.021153846153846145
aF0.01153846153846153
aa(lp434
F0.021153846153846145
aF0.01153846153846153
aF0.011538461538461497
aa(lp435
I0
aF0.00576923076923077
aF0.0038461538461538455
aa(lp436
I0
aF0.01923076923076923
aF0.03461538461538462
aa(lp437
F0.01923076923076923
aF0.03461538461538462
aF0.11923076923076925
aa(lp438
I0
aF0.01346153846153846
aF0.003846153846153849
aa(lp439
F0.01346153846153846
aF0.003846153846153849
aF0.02307692307692308
aa(lp440
F0.003846153846153849
aF0.02307692307692308
aF0.036538461538461534
aa.