(lp0
(lp1
I0
aF0.02307692307692308
aF0.21730769230769234
aa(lp2
F0.02307692307692308
aF0.21730769230769234
aF0.11923076923076917
aa(lp3
I0
aF0.01538461538461539
aF0.0173076923076923
aa(lp4
I0
aF0.04230769230769231
aF0.05
aa(lp5
F0.04230769230769231
aF0.05
aF0.024999999999999977
aa(lp6
F0.05
aF0.024999999999999977
aF0.14615384615384622
aa(lp7
F0.024999999999999977
aF0.14615384615384622
aF0.013461538461538414
aa(lp8
F0.14615384615384622
aF0.013461538461538414
aF0.015384615384615375
aa(lp9
I0
aF0.2326923076923077
aF0.08076923076923079
aa(lp10
I0
aF0.03653846153846154
aF0.005769230769230765
aa(lp11
F0.03653846153846154
aF0.005769230769230765
aF0.005769230769230771
aa(lp12
I0
aF0.040384615384615394
aF0.04615384615384615
aa(lp13
I0
aF0.01923076923076923
aF0.003846153846153852
aa(lp14
I0
aF0.1730769230769231
aF0.11923076923076918
aa(lp15
I0
aF0.04615384615384616
aF0.15769230769230763
aa(lp16
F0.04615384615384616
aF0.15769230769230763
aF0.04615384615384621
aa(lp17
F0.15769230769230763
aF0.04615384615384621
aF0.009615384615384581
aa(lp18
I0
aF0.0038461538461538455
aF0.04038461538461539
aa(lp19
I0
aF0.01923076923076923
aF0.023076923076923078
aa(lp20
I0
aF0.03653846153846154
aF0.015384615384615385
aa(lp21
I0
aF0.01538461538461539
aF0.00576923076923076
aa(lp22
F0.01538461538461539
aF0.00576923076923076
aF0.01923076923076924
aa(lp23
F0.00576923076923076
aF0.01923076923076924
aF0.02115384615384615
aa(lp24
I0
aF0.075
aF0.07307692307692311
aa(lp25
I0
aF0.032692307692307694
aF0.005769230769230765
aa(lp26
I0
aF0.007692307692307693
aF0.007692307692307698
aa(lp27
F0.007692307692307693
aF0.007692307692307698
aF0.00576923076923076
aa(lp28
F0.007692307692307698
aF0.00576923076923076
aF0.003846153846153849
aa(lp29
I0
aF0.05384615384615384
aF0.01346153846153847
aa(lp30
I0
aF0.13269230769230772
aF0.0365384615384615
aa(lp31
F0.13269230769230772
aF0.0365384615384615
aF0.05769230769230771
aa(lp32
F0.0365384615384615
aF0.05769230769230771
aF0.011538461538461586
aa(lp33
F0.05769230769230771
aF0.011538461538461586
aF0.009615384615384581
aa(lp34
I0
aF0.009615384615384616
aF0.003846153846153845
aa(lp35
I0
aF0.2846153846153846
aF0.017307692307692336
aa(lp36
I0
aF0.040384615384615394
aF0.1346153846153846
aa(lp37
F0.040384615384615394
aF0.1346153846153846
aF0.1826923076923077
aa(lp38
F0.1346153846153846
aF0.1826923076923077
aF0.005769230769230793
aa(lp39
F0.1826923076923077
aF0.005769230769230793
aF0.044230769230769164
aa(lp40
I0
aF0.2788461538461538
aF0.023076923076923127
aa(lp41
I0
aF0.01346153846153846
aF0.05
aa(lp42
I0
aF0.32115384615384623
aF0.0057692307692307045
aa(lp43
F0.32115384615384623
aF0.0057692307692307045
aF0.0038461538461537883
aa(lp44
I0
aF0.05
aF0.01923076923076923
aa(lp45
I0
aF0.01538461538461539
aF0.023076923076923068
aa(lp46
F0.01538461538461539
aF0.023076923076923068
aF0.04038461538461539
aa(lp47
I0
aF0.0019230769230769227
aF0.05192307692307692
aa(lp48
I0
aF0.07884615384615384
aF0.011538461538461543
aa(lp49
I0
aF0.2596153846153846
aF0.005769230769230837
aa(lp50
I0
aF0.044230769230769226
aF0.028846153846153844
aa(lp51
F0.044230769230769226
aF0.028846153846153844
aF0.03269230769230772
aa(lp52
F0.028846153846153844
aF0.03269230769230772
aF0.030769230769230705
aa(lp53
F0.03269230769230772
aF0.030769230769230705
aF0.0038461538461538993
aa(lp54
F0.030769230769230705
aF0.0038461538461538993
aF0.0365384615384615
aa(lp55
I0
aF0.05576923076923077
aF0.19230769230769232
aa(lp56
F0.05576923076923077
aF0.19230769230769232
aF0.075
aa(lp57
F0.19230769230769232
aF0.075
aF0.0019230769230769162
aa(lp58
F0.075
aF0.0019230769230769162
aF0.0057692307692307045
aa(lp59
I0
aF0.02307692307692308
aF0.03076923076923076
aa(lp60
I0
aF0.06538461538461539
aF0.3673076923076923
aa(lp61
I0
aF0.009615384615384616
aF0.015384615384615385
aa(lp62
I0
aF0.02115384615384615
aF0.04807692307692308
aa(lp63
I0
aF0.009615384615384616
aF0.021153846153846155
aa(lp64
I0
aF0.2
aF0.009615384615384581
aa(lp65
F0.2
aF0.009615384615384581
aF0.015384615384615418
aa(lp66
F0.009615384615384581
aF0.015384615384615418
aF0.011538461538461497
aa(lp67
F0.015384615384615418
aF0.011538461538461497
aF0.025
aa(lp68
I0
aF0.007692307692307693
aF0.23076923076923078
aa(lp69
F0.007692307692307693
aF0.23076923076923078
aF0.048076923076922996
aa(lp70
I0
aF0.1346153846153846
aF0.019230769230769294
aa(lp71
F0.1346153846153846
aF0.019230769230769294
aF0.08653846153846152
aa(lp72
F0.019230769230769294
aF0.08653846153846152
aF0.028846153846153876
aa(lp73
I0
aF0.09423076923076923
aF0.17115384615384618
aa(lp74
I0
aF0.01538461538461539
aF0.042307692307692296
aa(lp75
I0
aF0.2788461538461538
aF0.0634615384615385
aa(lp76
F0.2788461538461538
aF0.0634615384615385
aF0.005769230769230793
aa(lp77
I0
aF0.00576923076923077
aF0.02115384615384615
aa(lp78
F0.00576923076923077
aF0.02115384615384615
aF0.003846153846153849
aa(lp79
F0.02115384615384615
aF0.003846153846153849
aF0.00961538461538462
aa(lp80
F0.003846153846153849
aF0.00961538461538462
aF0.0807692307692307
aa(lp81
F0.00961538461538462
aF0.0807692307692307
aF0.03653846153846161
aa(lp82
I0
aF0.0038461538461538455
aF0.00576923076923077
aa(lp83
I0
aF0.15
aF0.0461538461538461
aa(lp84
F0.15
aF0.0461538461538461
aF0.0076923076923076875
aa(lp85
F0.0461538461538461
aF0.0076923076923076875
aF0.02884615384615392
aa(lp86
I0
aF0.04807692307692308
aF0.1288461538461538
aa(lp87
F0.04807692307692308
aF0.1288461538461538
aF0.0057692307692308155
aa(lp88
I0
aF0.040384615384615394
aF0.0615384615384615
aa(lp89
I0
aF0.00576923076923077
aF0.03269230769230769
aa(lp90
F0.00576923076923077
aF0.03269230769230769
aF0.011538461538461543
aa(lp91
F0.03269230769230769
aF0.011538461538461543
aF0.005769230769230771
aa(lp92
I0
aF0.2903846153846154
aF0.044230769230769164
aa(lp93
I0
aF0.09423076923076923
aF0.0038461538461538438
aa(lp94
I0
aF0.2076923076923077
aF0.0038461538461537883
aa(lp95
F0.2076923076923077
aF0.0038461538461537883
aF0.10384615384615392
aa(lp96
F0.0038461538461537883
aF0.10384615384615392
aF0.0038461538461538767
aa(lp97
F0.10384615384615392
aF0.0038461538461538767
aF0.025
aa(lp98
F0.0038461538461538767
aF0.025
aF0.10192307692307687
aa(lp99
I0
aF0.02307692307692308
aF0.005769230769230757
aa(lp100
I0
aF0.007692307692307693
aF0.023076923076923078
aa(lp101
I0
aF0.007692307692307693
aF0.11346153846153842
aa(lp102
I0
aF0.028846153846153837
aF0.0326923076923077
aa(lp103
I0
aF0.01153846153846154
aF0.01153846153846154
aa(lp104
F0.01153846153846154
aF0.01153846153846154
aF0.01346153846153846
aa(lp105
F0.01153846153846154
aF0.01346153846153846
aF0.3288461538461539
aa(lp106
I0
aF0.0019230769230769227
aF0.0019230769230769227
aa(lp107
F0.0019230769230769227
aF0.0019230769230769227
aF0.05961538461538461
aa(lp108
I0
aF0.08461538461538462
aF0.0019230769230769273
aa(lp109
F0.08461538461538462
aF0.0019230769230769273
aF0.02692307692307696
aa(lp110
I0
aF0.05961538461538461
aF0.009615384615384614
aa(lp111
F0.05961538461538461
aF0.009615384615384614
aF0.17115384615384618
aa(lp112
I0
aF0.00576923076923077
aF0.01538461538461538
aa(lp113
I0
aF0.15769230769230771
aF0.09615384615384608
aa(lp114
F0.15769230769230771
aF0.09615384615384608
aF0.013461538461538502
aa(lp115
F0.09615384615384608
aF0.013461538461538502
aF0.09230769230769229
aa(lp116
I0
aF0.009615384615384616
aF0.0076923076923076945
aa(lp117
I0
aF0.01153846153846154
aF0.0423076923076923
aa(lp118
I0
aF0.01538461538461539
aF0.06153846153846154
aa(lp119
F0.01538461538461539
aF0.06153846153846154
aF0.01153846153846153
aa(lp120
F0.06153846153846154
aF0.01153846153846153
aF0.02692307692307694
aa(lp121
F0.01153846153846153
aF0.02692307692307694
aF0.03269230769230771
aa(lp122
I0
aF0.01346153846153846
aF0.03076923076923077
aa(lp123
I0
aF0.01730769230769231
aF0.024999999999999998
aa(lp124
I0
aF0.1596153846153846
aF0.11923076923076918
aa(lp125
F0.1596153846153846
aF0.11923076923076918
aF0.030769230769230792
aa(lp126
I0
aF0.00576923076923077
aF0.08269230769230769
aa(lp127
I0
aF0.04615384615384616
aF0.03846153846153845
aa(lp128
I0
aF0.06346153846153846
aF0.044230769230769254
aa(lp129
I0
aF0.01346153846153846
aF0.0019230769230769301
aa(lp130
I0
aF0.04230769230769231
aF0.176923076923077
aa(lp131
F0.04230769230769231
aF0.176923076923077
aF0.0019230769230769162
aa(lp132
I0
aF0.028846153846153837
aF0.007692307692307704
aa(lp133
F0.028846153846153837
aF0.007692307692307704
aF0.003846153846153849
aa(lp134
F0.007692307692307704
aF0.003846153846153849
aF0.0076923076923076875
aa(lp135
I0
aF0.15192307692307688
aF0.1096153846153846
aa.