(lp0
F0.11923076923076917
aF0.05961538461538476
aF0.019230769230769235
aF0.024999999999999977
aF0.14615384615384622
aF0.013461538461538414
aF0.015384615384615375
aF0.005769230769230793
aF0.005769230769230793
aF0.005769230769230771
aF0.0019230769230769219
aF0.09999999999999995
aF0.00769230769230769
aF0.026923076923077004
aF0.04615384615384621
aF0.009615384615384581
aF0.017307692307692336
aF0.13076923076923078
aF0.04230769230769231
aF0.07115384615384618
aF0.01923076923076924
aF0.02115384615384615
aF0.0173076923076923
aF0.05192307692307689
aF0.011538461538461543
aF0.00576923076923076
aF0.003846153846153849
aF0.01538461538461539
aF0.37884615384615383
aF0.05769230769230771
aF0.011538461538461586
aF0.009615384615384581
aF0.0057692307692307045
aF0.00769230769230769
aF0.02115384615384617
aF0.1826923076923077
aF0.005769230769230793
aF0.044230769230769164
aF0.00961538461538467
aF0.026923076923076873
aF0.007692307692307698
aF0.0038461538461537883
aF0.01346153846153859
aF0.025
aF0.04038461538461539
aF0.005769230769230771
aF0.007692307692307698
aF0.04038461538461541
aF0.019230769230769162
aF0.03269230769230772
aF0.030769230769230705
aF0.0038461538461538993
aF0.0365384615384615
aF0.013461538461538502
aF0.075
aF0.0019230769230769162
aF0.0057692307692307045
aF0.09615384615384621
aF0.009615384615384614
aF0.06730769230769233
aF0.08076923076923079
aF0.026923076923076928
aF0.10192307692307694
aF0.015384615384615418
aF0.011538461538461497
aF0.025
aF0.011538461538461586
aF0.048076923076922996
aF0.02115384615384621
aF0.08653846153846152
aF0.028846153846153876
aF0.044230769230769205
aF0.04230769230769229
aF0.11346153846153842
aF0.005769230769230793
aF0.025
aF0.003846153846153849
aF0.00961538461538462
aF0.0807692307692307
aF0.03653846153846161
aF0.01730769230769229
aF0.17115384615384616
aF0.0076923076923076875
aF0.02884615384615392
aF0.02884615384615379
aF0.0057692307692308155
aF0.023076923076922995
aF0.03653846153846161
aF0.011538461538461543
aF0.005769230769230771
aF0.02307692307692307
aF0.10384615384615392
aF0.017307692307692323
aF0.10384615384615392
aF0.0038461538461538767
aF0.025
aF0.10192307692307687
aF0.011538461538461497
aF0.005769230769230771
aF0.005769230769230771
aF0.009615384615384692
aF0.01153846153846153
aF0.01346153846153846
aF0.3288461538461539
aF0.05
aF0.05961538461538461
aF0.009615384615384614
aF0.02692307692307696
aF0.019230769230769208
aF0.17115384615384618
aF0.05769230769230767
aF0.01923076923076924
aF0.013461538461538502
aF0.09230769230769229
aF0.15
aF0.01346153846153846
aF0.005769230769230771
aF0.01153846153846153
aF0.02692307692307694
aF0.03269230769230771
aF0.019230769230769183
aF0.007692307692307698
aF0.04615384615384615
aF0.030769230769230792
aF0.011538461538461631
aF0.0019230769230769273
aF0.019230769230769284
aF0.11923076923076921
aF0.025
aF0.0019230769230769162
aF0.0019230769230768718
aF0.003846153846153849
aF0.0076923076923076875
aF0.038461538461538464
aF0.19038461538461543
a.