(lp0
(lp1
F15.0
aF16.0
aF15.0
aa(lp2
F16.0
aF15.0
aF15.0
aa(lp3
F1.0
aF1.0
aF1.0
aa(lp4
F2.0
aF1.0
aF1.0
aa(lp5
F1.0
aF1.0
aF1.0
aa(lp6
F1.0
aF1.0
aF1.0
aa(lp7
F1.0
aF1.0
aF1.0
aa(lp8
F1.0
aF1.0
aF1.0
aa(lp9
F12.0
aF1.0
aF1.0
aa(lp10
F1.0
aF1.0
aF1.0
aa(lp11
F1.0
aF1.0
aF1.0
aa(lp12
F26.0
aF26.0
aF26.0
aa(lp13
F2.0
aF2.0
aF2.0
aa(lp14
F14.0
aF67.0
aF14.0
aa(lp15
F2.0
aF2.0
aF2.0
aa(lp16
F2.0
aF2.0
aF2.0
aa(lp17
F2.0
aF2.0
aF2.0
aa(lp18
F2.0
aF1.0
aF1.0
aa(lp19
F11.0
aF8.0
aF8.0
aa(lp20
F68.0
aF58.0
aF68.0
aa(lp21
F1.0
aF1.0
aF1.0
aa(lp22
F1.0
aF1.0
aF1.0
aa(lp23
F1.0
aF1.0
aF1.0
aa(lp24
F9.0
aF9.0
aF9.0
aa(lp25
F11.0
aF15.0
aF15.0
aa(lp26
F2.0
aF2.0
aF12.0
aa(lp27
F2.0
aF12.0
aF2.0
aa(lp28
F12.0
aF2.0
aF2.0
aa(lp29
F11.0
aF1.0
aF1.0
aa(lp30
F1.0
aF1.0
aF1.0
aa(lp31
F1.0
aF1.0
aF1.0
aa(lp32
F1.0
aF1.0
aF1.0
aa(lp33
F1.0
aF1.0
aF1.0
aa(lp34
F2.0
aF2.0
aF2.0
aa(lp35
F1.0
aF1.0
aF1.0
aa(lp36
F1.0
aF1.0
aF1.0
aa(lp37
F1.0
aF1.0
aF1.0
aa(lp38
F1.0
aF1.0
aF1.0
aa(lp39
F1.0
aF1.0
aF1.0
aa(lp40
F1.0
aF1.0
aF1.0
aa(lp41
F1.0
aF1.0
aF1.0
aa(lp42
F1.0
aF1.0
aF1.0
aa(lp43
F1.0
aF1.0
aF1.0
aa(lp44
F12.0
aF12.0
aF12.0
aa(lp45
F1.0
aF1.0
aF2.0
aa(lp46
F1.0
aF2.0
aF1.0
aa(lp47
F2.0
aF2.0
aF7.0
aa(lp48
F70.0
aF12.0
aF9.0
aa(lp49
F14.0
aF2.0
aF2.0
aa(lp50
F14.0
aF26.0
aF26.0
aa(lp51
F26.0
aF26.0
aF26.0
aa(lp52
F26.0
aF26.0
aF14.0
aa(lp53
F26.0
aF14.0
aF26.0
aa(lp54
F14.0
aF26.0
aF26.0
aa(lp55
F1.0
aF20.0
aF1.0
aa(lp56
F20.0
aF1.0
aF1.0
aa(lp57
F1.0
aF1.0
aF1.0
aa(lp58
F1.0
aF1.0
aF1.0
aa(lp59
F71.0
aF71.0
aF72.0
aa(lp60
F1.0
aF1.0
aF1.0
aa(lp61
F33.0
aF17.0
aF33.0
aa(lp62
F12.0
aF12.0
aF12.0
aa(lp63
F1.0
aF1.0
aF1.0
aa(lp64
F1.0
aF1.0
aF1.0
aa(lp65
F1.0
aF1.0
aF1.0
aa(lp66
F1.0
aF1.0
aF1.0
aa(lp67
F1.0
aF1.0
aF1.0
aa(lp68
F1.0
aF1.0
aF1.0
aa(lp69
F1.0
aF1.0
aF1.0
aa(lp70
F1.0
aF9.0
aF1.0
aa(lp71
F9.0
aF1.0
aF1.0
aa(lp72
F1.0
aF1.0
aF1.0
aa(lp73
F11.0
aF14.0
aF11.0
aa(lp74
F1.0
aF1.0
aF1.0
aa(lp75
F9.0
aF9.0
aF9.0
aa(lp76
F9.0
aF9.0
aF12.0
aa(lp77
F1.0
aF1.0
aF1.0
aa(lp78
F1.0
aF1.0
aF1.0
aa(lp79
F1.0
aF1.0
aF1.0
aa(lp80
F1.0
aF1.0
aF1.0
aa(lp81
F1.0
aF1.0
aF1.0
aa(lp82
F16.0
aF16.0
aF16.0
aa(lp83
F7.0
aF7.0
aF12.0
aa(lp84
F7.0
aF12.0
aF12.0
aa(lp85
F12.0
aF12.0
aF12.0
aa(lp86
F43.0
aF16.0
aF16.0
aa(lp87
F16.0
aF16.0
aF38.0
aa(lp88
F1.0
aF1.0
aF1.0
aa(lp89
F14.0
aF12.0
aF12.0
aa(lp90
F12.0
aF12.0
aF12.0
aa(lp91
F12.0
aF12.0
aF12.0
aa(lp92
F12.0
aF1.0
aF1.0
aa(lp93
F2.0
aF2.0
aF2.0
aa(lp94
F15.0
aF2.0
aF2.0
aa(lp95
F2.0
aF2.0
aF2.0
aa(lp96
F2.0
aF2.0
aF2.0
aa(lp97
F2.0
aF2.0
aF2.0
aa(lp98
F2.0
aF2.0
aF2.0
aa(lp99
F2.0
aF2.0
aF2.0
aa(lp100
F1.0
aF1.0
aF1.0
aa(lp101
F17.0
aF11.0
aF7.0
aa(lp102
F1.0
aF1.0
aF1.0
aa(lp103
F1.0
aF1.0
aF1.0
aa(lp104
F1.0
aF1.0
aF1.0
aa(lp105
F1.0
aF1.0
aF1.0
aa(lp106
F19.0
aF19.0
aF19.0
aa(lp107
F19.0
aF19.0
aF19.0
aa(lp108
F15.0
aF15.0
aF15.0
aa(lp109
F15.0
aF15.0
aF15.0
aa(lp110
F1.0
aF1.0
aF1.0
aa(lp111
F1.0
aF1.0
aF1.0
aa(lp112
F26.0
aF26.0
aF26.0
aa(lp113
F2.0
aF2.0
aF1.0
aa(lp114
F2.0
aF1.0
aF2.0
aa(lp115
F1.0
aF2.0
aF1.0
aa(lp116
F9.0
aF9.0
aF9.0
aa(lp117
F1.0
aF1.0
aF1.0
aa(lp118
F1.0
aF1.0
aF1.0
aa(lp119
F1.0
aF1.0
aF1.0
aa(lp120
F1.0
aF1.0
aF1.0
aa(lp121
F1.0
aF1.0
aF1.0
aa(lp122
F1.0
aF1.0
aF1.0
aa(lp123
F9.0
aF9.0
aF9.0
aa(lp124
F9.0
aF9.0
aF2.0
aa(lp125
F9.0
aF2.0
aF2.0
aa(lp126
F2.0
aF2.0
aF2.0
aa(lp127
F1.0
aF1.0
aF1.0
aa(lp128
F2.0
aF9.0
aF2.0
aa(lp129
F2.0
aF2.0
aF2.0
aa(lp130
F3.0
aF3.0
aF3.0
aa(lp131
F3.0
aF3.0
aF3.0
aa(lp132
F1.0
aF1.0
aF1.0
aa(lp133
F1.0
aF1.0
aF1.0
aa(lp134
F1.0
aF1.0
aF1.0
aa(lp135
F9.0
aF27.0
aF9.0
aa.