(lp0
F3.057692307692307
aF2.173076923076923
aF1.730769230769231
aF3.019230769230769
aF3.884615384615385
aF2.9807692307692313
aF0.1730769230769231
aF0.2115384615384615
aF0.13461538461538447
aF4.25
aF1.480769230769231
aF4.384615384615385
aF2.423076923076923
aF2.096153846153846
aF1.115384615384615
aF1.1538461538461533
aF2.730769230769231
aF3.192307692307693
aF1.365384615384615
aF1.423076923076923
aF0.3653846153846154
aF0.7692307692307692
aF0.7692307692307692
aF1.0384615384615385
aF1.4615384615384612
aF1.557692307692307
aF1.3076923076923082
aF0.42307692307692335
aF0.326923076923078
aF0.4615384615384608
aF0.6538461538461537
aF1.25
aF1.0192307692307705
aF1.0384615384615388
aF0.5
aF0.5769230769230758
aF0.25
aF0.6346153846153846
aF1.269230769230769
aF2.980769230769231
aF1.153846153846154
aF0.8461538461538461
aF1.403846153846154
aF1.5961538461538465
aF1.442307692307692
aF2.961538461538462
aF2.576923076923077
aF1.788461538461539
aF1.442307692307692
aF1.6730769230769231
aF1.2499999999999996
aF0.8076923076923079
aF0.75
aF0.788461538461539
aF0.5961538461538458
aF0.5192307692307692
aF0.365384615384615
aF0.34615384615384714
aF0.4230769230769238
aF0.48076923076923084
aF0.5192307692307692
aF0.557692307692307
aF0.4615384615384608
aF1.0384615384615379
aF1.115384615384615
aF1.307692307692308
aF2.019230769230769
aF0.23076923076923084
aF2.826923076923077
aF2.8461538461538467
aF0.9423076923076923
aF1.442307692307692
aF2.019230769230769
aF0.1923076923076923
aF0.15384615384615388
aF0.09615384615384609
aF0.4423076923076923
aF0.4807692307692307
aF0.5
aF0.28846153846153855
aF0.3076923076923074
aF0.44230769230769207
aF0.4230769230769229
aF0.7307692307692311
aF0.9038461538461537
aF0.961538461538461
aF0.692307692307693
aF0.4807692307692313
aF0.5
aF0.3846153846153846
aF0.8461538461538461
aF4.480769230769231
aF1.307692307692308
aF1.403846153846154
aF0.538461538461539
aF1.0192307692307692
aF1.0961538461538458
aF0.8846153846153846
aF0.75
aF1.1538461538461535
aF1.3846153846153841
aF1.961538461538461
aF2.0769230769230766
aF0.3653846153846154
aF0.2307692307692308
aF0.2692307692307693
aF0.3076923076923077
aF0.3076923076923076
aF0.3846153846153846
aF0.34615384615384615
aF0.4807692307692305
aF0.365384615384615
aF0.36538461538461553
aF0.15384615384615397
aF0.5576923076923079
aF0.5384615384615381
aF0.5576923076923082
aF0.8846153846153841
aF1.076923076923077
aF1.403846153846154
aF1.057692307692308
aF1.3269230769230766
aF1.0
aF0.5576923076923084
aF0.13461538461538503
aF0.13461538461538414
aF0.17307692307692246
aF0.1538461538461542
aF0.13461538461538503
aF0.09615384615384759
aF0.11538461538461497
aF0.1538461538461524
aF0.13461538461538325
aF0.17307692307692335
aF0.9615384615384616
aF0.48076923076923117
aF1.7884615384615379
aF3.5
aF0.7115384615384616
aF1.3846153846153848
aF3.173076923076923
aF0.5
aF0.75
aF1.076923076923077
aF2.846153846153846
aF1.4038461538461537
aF2.384615384615385
aF3.8269230769230775
aF1.461538461538461
aF3.0
aF1.4230769230769242
aF1.8653846153846136
aF0.3269230769230769
aF3.538461538461538
aF1.730769230769231
aF0.634615384615385
aF3.692307692307693
aF1.519230769230769
aF1.730769230769231
aF2.1923076923076925
aF1.5
aF1.461538461538461
aF1.923076923076923
aF0.6538461538461539
aF0.48076923076923084
aF1.096153846153846
aF2.211538461538462
aF1.4615384615384612
aF1.788461538461539
aF0.9615384615384608
aF0.884615384615385
aF0.673076923076922
aF0.34615384615384714
aF0.3461538461538458
aF1.307692307692308
aF2.365384615384615
aF2.5769230769230766
aF0.1923076923076923
aF0.2884615384615385
aF0.26923076923076916
aF0.9615384615384616
aF1.4615384615384617
aF1.7307692307692304
aF1.692307692307692
aF1.1538461538461542
aF1.307692307692308
aF1.461538461538461
aF2.2307692307692304
aF0.5769230769230769
aF1.2115384615384617
aF1.2307692307692308
aF1.807692307692308
aF2.5576923076923084
aF2.7692307692307674
aF2.9038461538461537
aF0.8269230769230766
aF3.788461538461538
aF3.9423076923076925
aF4.173076923076923
aF1.557692307692308
aF1.461538461538461
aF2.480769230769231
aF0.7307692307692307
aF1.884615384615385
aF1.461538461538461
aF3.903846153846154
aF2.057692307692307
aF0.7115384615384616
aF0.7115384615384616
aF0.7884615384615387
aF0.6923076923076924
aF0.6730769230769232
aF0.2884615384615379
aF1.538461538461539
aF0.4230769230769229
aF0.7499999999999991
aF0.9807692307692307
aF1.1923076923076918
aF1.6346153846153846
aF1.769230769230769
aF3.01923076923077
aF2.326923076923077
aF2.25
aF0.6730769230769231
aF0.3269230769230768
aF0.6346153846153846
aF0.6153846153846154
aF1.346153846153846
aF0.30769230769230793
aF0.26923076923076894
aF4.0
aF0.3653846153846163
aF0.7692307692307693
aF0.8461538461538461
aF0.1923076923076923
aF0.1153846153846154
aF0.5576923076923077
aF1.807692307692308
aF1.461538461538461
aF4.25
aF2.346153846153846
aF2.423076923076923
aF2.1730769230769234
aF4.173076923076923
aF0.8461538461538461
aF0.7692307692307692
aF4.576923076923077
aF3.23076923076923
aF3.884615384615385
aF1.884615384615385
aF0.48076923076922995
aF0.6923076923076918
aF0.6538461538461539
aF4.096153846153846
aF1.057692307692308
aF1.942307692307692
aF1.7884615384615379
aF0.5961538461538458
aF0.26923076923077005
aF0.4423076923076932
aF0.38461538461538414
aF0.48076923076923084
aF0.40384615384615286
aF0.5
aF0.46153846153846123
aF0.5576923076923079
aF0.4038461538461551
aF0.40384615384615286
aF0.21153846153846212
aF0.19230769230769207
aF0.19230769230769296
aF0.2115384615384608
aF0.1730769230769229
aF0.1538461538461542
aF0.21153846153846212
aF0.4230769230769229
aF1.807692307692308
aF1.2115384615384612
aF0.423076923076922
aF0.3269230769230771
aF1.2500000000000009
aF2.3846153846153864
aF1.788461538461539
aF0.1923076923076923
aF1.057692307692308
aF1.557692307692308
aF1.6923076923076925
aF4.423076923076923
aF0.9423076923076923
aF1.0192307692307694
aF1.1538461538461542
aF0.4615384615384617
aF0.5
aF0.6730769230769229
aF0.5384615384615381
aF2.9999999999999987
aF3.288461538461539
aF3.038461538461538
aF3.480769230769231
aF4.76923076923077
aF2.211538461538462
aF1.211538461538461
aF0.25
aF1.653846153846154
aF0.9807692307692307
aF2.211538461538462
aF1.019230769230769
aF1.2115384615384617
aF0.3461538461538461
aF0.6153846153846154
aF0.7307692307692307
aF0.9615384615384619
aF1.115384615384615
aF1.1153846153846154
aF1.25
aF1.01923076923077
aF1.019230769230769
aF0.8269230769230769
aF0.2115384615384608
aF0.21153846153846212
aF0.25
aF0.19230769230769207
aF0.19230769230769207
aF0.34615384615384626
aF1.25
aF1.4999999999999996
aF3.076923076923077
aF4.596153846153846
aF0.5192307692307693
aF0.6923076923076921
aF3.538461538461538
aF0.4615384615384616
aF0.5
aF0.7692307692307694
aF0.8076923076923073
aF2.26923076923077
aF2.730769230769231
aF1.134615384615385
aF1.1346153846153844
aF5.423076923076923
aF1.307692307692308
aF1.6923076923076918
aF2.25
aF5.249999999999999
aF3.846153846153847
aF2.057692307692307
aF4.980769230769231
aF2.884615384615384
aF0.1923076923076923
aF1.0384615384615388
aF3.576923076923077
aF3.576923076923077
aF2.461538461538462
aF1.192307692307692
aF3.076923076923076
aF2.8846153846153846
aF0.2115384615384615
aF2.634615384615385
aF3.25
aF3.0576923076923066
aF4.326923076923077
aF3.4038461538461533
aF1.5192307692307687
aF4.230769230769231
aF4.615384615384615
aF1.423076923076923
aF0.5384615384615384
aF0.7307692307692307
aF0.9807692307692306
aF0.9807692307692305
aF2.942307692307693
aF4.403846153846154
aF0.8461538461538461
aF0.4230769230769231
aF2.596153846153846
aF0.1538461538461542
aF0.28846153846153877
aF0.3076923076923077
aF0.2115384615384615
aF3.076923076923077
aF2.480769230769231
aF2.0769230769230766
aF0.9423076923076921
aF0.7499999999999996
aF0.42307692307692335
aF0.5192307692307692
aF1.173076923076923
aF1.884615384615385
aF0.5576923076923082
aF0.2115384615384615
aF0.23076923076923078
aF1.692307692307692
aF1.1730769230769234
aF4.942307692307693
aF2.538461538461538
aF2.653846153846154
aF1.173076923076923
aF0.7115384615384621
aF0.7115384615384616
aF0.2115384615384615
aF0.17307692307692302
aF0.173076923076923
aF0.1538461538461539
aF0.6153846153846154
aF3.25
aF2.211538461538462
aF1.5769230769230766
aF0.1730769230769231
aF3.653846153846154
aF1.1538461538461529
aF0.6538461538461537
aF1.75
aF1.6730769230769236
aF2.096153846153846
aF0.6153846153846154
aF3.9423076923076925
aF2.769230769230769
aF1.25
aF0.8269230769230774
aF0.8653846153846154
aF0.4423076923076923
aF0.46153846153846156
aF0.3269230769230769
aF0.1923076923076923
aF0.17307692307692313
aF0.5192307692307695
aF0.5000000000000004
aF0.4999999999999998
aF3.826923076923077
aF2.942307692307693
aF0.2884615384615384
aF1.096153846153846
aF0.44230769230769174
aF0.4038461538461543
aF0.1538461538461539
aF1.730769230769231
aF2.250000000000001
aF0.4038461538461539
aF0.6346153846153847
aF1.1153846153846159
a.